PARTICIPANT_ID	TEST_SECTION_ID	SENTENCE	USER_INPUT	KEYSTROKE_ID	PRESS_TIME	RELEASE_TIME	LETTER	KEYCODE
63904	698414	I was planning to attend.	I was planning to attend.	33206641	1472748654920	1472748655045	CAPS_LOCK	20
63904	698414	I was planning to attend.	I was planning to attend.	33206644	1472748655077	1472748655217	I	73
63904	698414	I was planning to attend.	I was planning to attend.	33206649	1472748655170	1472748655342	CAPS_LOCK	20
63904	698414	I was planning to attend.	I was planning to attend.	33206652	1472748655405	1472748655489	 	32
63904	698414	I was planning to attend.	I was planning to attend.	33206659	1472748656004	1472748656118	w	87
63904	698414	I was planning to attend.	I was planning to attend.	33206663	1472748656243	1472748656476	a	65
63904	698414	I was planning to attend.	I was planning to attend.	33206665	1472748656601	1472748656688	 	32
63904	698414	I was planning to attend.	I was planning to attend.	33206738	1472748657266	1472748657397	BKSP	8
63904	698414	I was planning to attend.	I was planning to attend.	33206741	1472748657460	1472748657553	s	83
63904	698414	I was planning to attend.	I was planning to attend.	33206745	1472748657600	1472748657688	 	32
63904	698414	I was planning to attend.	I was planning to attend.	33206747	1472748658032	1472748658117	p	80
63904	698414	I was planning to attend.	I was planning to attend.	33206917	1472748658179	1472748658372	a	65
63904	698414	I was planning to attend.	I was planning to attend.	33206750	1472748658238	1472748658339	l	76
63904	698414	I was planning to attend.	I was planning to attend.	33206923	1472748659293	1472748659384	BKSP	8
63904	698414	I was planning to attend.	I was planning to attend.	33206925	1472748659462	1472748659551	BKSP	8
63904	698414	I was planning to attend.	I was planning to attend.	33206929	1472748660291	1472748660416	l	76
63904	698414	I was planning to attend.	I was planning to attend.	33206932	1472748660416	1472748660551	a	65
63904	698414	I was planning to attend.	I was planning to attend.	33206935	1472748660551	1472748660638	n	78
63904	698414	I was planning to attend.	I was planning to attend.	33206936	1472748660716	1472748660805	n	78
63904	698414	I was planning to attend.	I was planning to attend.	33206940	1472748660899	1472748661000	i	73
63904	698414	I was planning to attend.	I was planning to attend.	33207013	1472748661127	1472748661218	n	78
63904	698414	I was planning to attend.	I was planning to attend.	33207020	1472748661376	1472748661463	g	71
63904	698414	I was planning to attend.	I was planning to attend.	33207026	1472748661573	1472748661686	 	32
63904	698414	I was planning to attend.	I was planning to attend.	33207032	1472748662389	1472748662501	t	84
63904	698414	I was planning to attend.	I was planning to attend.	33207037	1472748662501	1472748662587	o	79
63904	698414	I was planning to attend.	I was planning to attend.	33207089	1472748662729	1472748662868	 	32
63904	698414	I was planning to attend.	I was planning to attend.	33207091	1472748662977	1472748663147	a	65
63904	698414	I was planning to attend.	I was planning to attend.	33207094	1472748663256	1472748663337	t	84
63904	698414	I was planning to attend.	I was planning to attend.	33207096	1472748663416	1472748663504	t	84
63904	698414	I was planning to attend.	I was planning to attend.	33207098	1472748663583	1472748663671	e	69
63904	698414	I was planning to attend.	I was planning to attend.	33207322	1472748663752	1472748663853	n	78
63904	698414	I was planning to attend.	I was planning to attend.	33207326	1472748664228	1472748664366	d	68
63904	698414	I was planning to attend.	I was planning to attend.	33207330	1472748665369	1472748665455	.	190
63904	698435	Please send me an email.	Please send me an email.	33207617	1472748671337	1472748671493	CAPS_LOCK	20
63904	698435	Please send me an email.	Please send me an email.	33207618	1472748671636	1472748671766	P	80
63904	698435	Please send me an email.	Please send me an email.	33207619	1472748671876	1472748672047	CAPS_LOCK	20
63904	698435	Please send me an email.	Please send me an email.	33207621	1472748672549	1472748672638	l	76
63904	698435	Please send me an email.	Please send me an email.	33207623	1472748673263	1472748673400	e	69
63904	698435	Please send me an email.	Please send me an email.	33207625	1472748673478	1472748673677	a	65
63904	698435	Please send me an email.	Please send me an email.	33207629	1472748673677	1472748673800	s	83
63904	698435	Please send me an email.	Please send me an email.	33207744	1472748673925	1472748674049	e	69
63904	698435	Please send me an email.	Please send me an email.	33207749	1472748674049	1472748674185	 	32
63904	698435	Please send me an email.	Please send me an email.	33207756	1472748675264	1472748675397	s	83
63904	698435	Please send me an email.	Please send me an email.	33207760	1472748675553	1472748675682	e	69
63904	698435	Please send me an email.	Please send me an email.	33207764	1472748675729	1472748675818	n	78
63904	698435	Please send me an email.	Please send me an email.	33207852	1472748675913	1472748676093	d	68
63904	698435	Please send me an email.	Please send me an email.	33207854	1472748676031	1472748676178	 	32
63904	698435	Please send me an email.	Please send me an email.	33207859	1472748677279	1472748677399	m	77
63904	698435	Please send me an email.	Please send me an email.	33207863	1472748677430	1472748677535	e	69
63904	698435	Please send me an email.	Please send me an email.	33207871	1472748677566	1472748677685	 	32
63904	698435	Please send me an email.	Please send me an email.	33207943	1472748677749	1472748677869	a	65
63904	698435	Please send me an email.	Please send me an email.	33207946	1472748677994	1472748678116	n	78
63904	698435	Please send me an email.	Please send me an email.	33207951	1472748678194	1472748678316	 	32
63904	698435	Please send me an email.	Please send me an email.	33207957	1472748678394	1472748678487	e	69
63904	698435	Please send me an email.	Please send me an email.	33207962	1472748679003	1472748679132	m	77
63904	698435	Please send me an email.	Please send me an email.	33208249	1472748679180	1472748679339	a	65
63904	698435	Please send me an email.	Please send me an email.	33208253	1472748679282	1472748679371	i	73
63904	698435	Please send me an email.	Please send me an email.	33208257	1472748679511	1472748679618	l	76
63904	698435	Please send me an email.	Please send me an email.	33208263	1472748681107	1472748681166	.	190
63904	698454	What is in the plan?	What is in the plan?	33208684	1472748689143	1472748689299	CAPS_LOCK	20
63904	698454	What is in the plan?	What is in the plan?	33208686	1472748689331	1472748689430	W	87
63904	698454	What is in the plan?	What is in the plan?	33208688	1472748689540	1472748689665	CAPS_LOCK	20
63904	698454	What is in the plan?	What is in the plan?	33208692	1472748689805	1472748689887	g	71
63904	698454	What is in the plan?	What is in the plan?	33208694	1472748690590	1472748690679	BKSP	8
63904	698454	What is in the plan?	What is in the plan?	33208696	1472748690914	1472748691045	h	72
63904	698454	What is in the plan?	What is in the plan?	33208700	1472748691077	1472748691247	a	65
63904	698454	What is in the plan?	What is in the plan?	33208705	1472748691262	1472748691351	t	84
63904	698454	What is in the plan?	What is in the plan?	33208788	1472748691508	1472748691602	 	32
63904	698454	What is in the plan?	What is in the plan?	33208790	1472748691760	1472748691851	i	73
63904	698454	What is in the plan?	What is in the plan?	33208793	1472748691882	1472748692013	s	83
63904	698454	What is in the plan?	What is in the plan?	33208796	1472748692565	1472748692654	 	32
63904	698454	What is in the plan?	What is in the plan?	33208803	1472748692841	1472748692932	i	73
63904	698454	What is in the plan?	What is in the plan?	33208888	1472748693168	1472748693252	n	78
63904	698454	What is in the plan?	What is in the plan?	33208893	1472748693627	1472748693716	 	32
63904	698454	What is in the plan?	What is in the plan?	33208897	1472748693841	1472748693934	t	84
63904	698454	What is in the plan?	What is in the plan?	33208901	1472748693965	1472748694054	h	72
63904	698454	What is in the plan?	What is in the plan?	33208906	1472748694101	1472748694234	e	69
63904	698454	What is in the plan?	What is in the plan?	33209036	1472748694282	1472748694370	 	32
63904	698454	What is in the plan?	What is in the plan?	33209039	1472748695420	1472748695566	p	80
63904	698454	What is in the plan?	What is in the plan?	33209043	1472748695644	1472748695734	l	76
63904	698454	What is in the plan?	What is in the plan?	33209046	1472748695796	1472748695963	a	65
63904	698454	What is in the plan?	What is in the plan?	33209051	1472748696010	1472748696101	n	78
63904	698454	What is in the plan?	What is in the plan?	33209432	1472748698265	1472748699167	SHIFT	16
63904	698454	What is in the plan?	What is in the plan?	33209427	1472748699033	1472748699101	?	191
63904	698479	Your voice cheered me up.	Your voice cheered me up.	33209847	1472748707099	1472748707270	CAPS_LOCK	20
63904	698479	Your voice cheered me up.	Your voice cheered me up.	33209854	1472748707349	1472748707472	Y	89
63904	698479	Your voice cheered me up.	Your voice cheered me up.	33209858	1472748707550	1472748707675	CAPS_LOCK	20
63904	698479	Your voice cheered me up.	Your voice cheered me up.	33209861	1472748707753	1472748707854	o	79
63904	698479	Your voice cheered me up.	Your voice cheered me up.	33209864	1472748707964	1472748708104	u	85
63904	698479	Your voice cheered me up.	Your voice cheered me up.	33209869	1472748708214	1472748708339	r	82
63904	698479	Your voice cheered me up.	Your voice cheered me up.	33209874	1472748708417	1472748708505	 	32
63904	698479	Your voice cheered me up.	Your voice cheered me up.	33209959	1472748708928	1472748709008	v	86
63904	698479	Your voice cheered me up.	Your voice cheered me up.	33209964	1472748709195	1472748709307	o	79
63904	698479	Your voice cheered me up.	Your voice cheered me up.	33209969	1472748709353	1472748709471	i	73
63904	698479	Your voice cheered me up.	Your voice cheered me up.	33209972	1472748709976	1472748710059	c	67
63904	698479	Your voice cheered me up.	Your voice cheered me up.	33209976	1472748710059	1472748710192	e	69
63904	698479	Your voice cheered me up.	Your voice cheered me up.	33210015	1472748710225	1472748710306	 	32
63904	698479	Your voice cheered me up.	Your voice cheered me up.	33210018	1472748710728	1472748710840	c	67
63904	698479	Your voice cheered me up.	Your voice cheered me up.	33210021	1472748710887	1472748710973	h	72
63904	698479	Your voice cheered me up.	Your voice cheered me up.	33210025	1472748711084	1472748711143	h	72
63904	698479	Your voice cheered me up.	Your voice cheered me up.	33210031	1472748711189	1472748711324	e	69
63904	698479	Your voice cheered me up.	Your voice cheered me up.	33210083	1472748711466	1472748711560	r	82
63904	698479	Your voice cheered me up.	Your voice cheered me up.	33210086	1472748711669	1472748711773	e	69
63904	698479	Your voice cheered me up.	Your voice cheered me up.	33210091	1472748711914	1472748712010	d	68
63904	698479	Your voice cheered me up.	Your voice cheered me up.	33210096	1472748712057	1472748712144	 	32
63904	698479	Your voice cheered me up.	Your voice cheered me up.	33210098	1472748712362	1472748712507	m	77
63904	698479	Your voice cheered me up.	Your voice cheered me up.	33210164	1472748712633	1472748712755	e	69
63904	698479	Your voice cheered me up.	Your voice cheered me up.	33210169	1472748712770	1472748712856	 	32
63904	698479	Your voice cheered me up.	Your voice cheered me up.	33210173	1472748713153	1472748713255	u	85
63904	698479	Your voice cheered me up.	Your voice cheered me up.	33210177	1472748713474	1472748713539	p	80
63904	698479	Your voice cheered me up.	Your voice cheered me up.	33210184	1472748713961	1472748714020	.	190
63904	698479	Your voice cheered me up.	Your voice cheered me up.	33210570	1472748716487	1472748716547	BKSP	8
63904	698479	Your voice cheered me up.	Your voice cheered me up.	33210577	1472748717390	1472748717477	e	69
63904	698506	You just can't work without me can you?	You just can't work without me can you?	33211025	1472748726293	1472748726418	CAPS_LOCK	20
63904	698506	You just can't work without me can you?	You just can't work without me can you?	33211027	1472748726465	1472748726605	Y	89
63904	698506	You just can't work without me can you?	You just can't work without me can you?	33211029	1472748726637	1472748726762	CAPS_LOCK	20
63904	698506	You just can't work without me can you?	You just can't work without me can you?	33211031	1472748726871	1472748726960	o	79
63904	698506	You just can't work without me can you?	You just can't work without me can you?	33211032	1472748727116	1472748727255	u	85
63904	698506	You just can't work without me can you?	You just can't work without me can you?	33211036	1472748727677	1472748727760	 	32
63904	698506	You just can't work without me can you?	You just can't work without me can you?	33211039	1472748728449	1472748728557	j	74
63904	698506	You just can't work without me can you?	You just can't work without me can you?	33211079	1472748728651	1472748728787	u	85
63904	698506	You just can't work without me can you?	You just can't work without me can you?	33211083	1472748728850	1472748728989	s	83
63904	698506	You just can't work without me can you?	You just can't work without me can you?	33211089	1472748728989	1472748729077	t	84
63904	698506	You just can't work without me can you?	You just can't work without me can you?	33211096	1472748729265	1472748729356	 	32
63904	698506	You just can't work without me can you?	You just can't work without me can you?	33211103	1472748729530	1472748729624	c	67
63904	698506	You just can't work without me can you?	You just can't work without me can you?	33211237	1472748729703	1472748729852	a	65
63904	698506	You just can't work without me can you?	You just can't work without me can you?	33211244	1472748729883	1472748729991	n	78
63904	698506	You just can't work without me can you?	You just can't work without me can you?	33211252	1472748731808	1472748731955	'	222
63904	698506	You just can't work without me can you?	You just can't work without me can you?	33211263	1472748732143	1472748732225	t	84
63904	698506	You just can't work without me can you?	You just can't work without me can you?	33211268	1472748732256	1472748732358	 	32
63904	698506	You just can't work without me can you?	You just can't work without me can you?	33211340	1472748732719	1472748732889	w	87
63904	698506	You just can't work without me can you?	You just can't work without me can you?	33211346	1472748732889	1472748733022	o	79
63904	698506	You just can't work without me can you?	You just can't work without me can you?	33211352	1472748733241	1472748733324	r	82
63904	698506	You just can't work without me can you?	You just can't work without me can you?	33211356	1472748733434	1472748733525	k	75
63904	698506	You just can't work without me can you?	You just can't work without me can you?	33211363	1472748733682	1472748733819	 	32
63904	698506	You just can't work without me can you?	You just can't work without me can you?	33211415	1472748734008	1472748734122	w	87
63904	698506	You just can't work without me can you?	You just can't work without me can you?	33211420	1472748734169	1472748734302	i	73
63904	698506	You just can't work without me can you?	You just can't work without me can you?	33211424	1472748734349	1472748734439	t	84
63904	698506	You just can't work without me can you?	You just can't work without me can you?	33211428	1472748734471	1472748734560	h	72
63904	698506	You just can't work without me can you?	You just can't work without me can you?	33211436	1472748734732	1472748734854	o	79
63904	698506	You just can't work without me can you?	You just can't work without me can you?	33211487	1472748734966	1472748735075	u	85
63904	698506	You just can't work without me can you?	You just can't work without me can you?	33211492	1472748735294	1472748735376	t	84
63904	698506	You just can't work without me can you?	You just can't work without me can you?	33211498	1472748735454	1472748735543	 	32
63904	698506	You just can't work without me can you?	You just can't work without me can you?	33211502	1472748735879	1472748735961	m	77
63904	698506	You just can't work without me can you?	You just can't work without me can you?	33211510	1472748736084	1472748736218	e	69
63904	698506	You just can't work without me can you?	You just can't work without me can you?	33211615	1472748736250	1472748736353	 	32
63904	698506	You just can't work without me can you?	You just can't work without me can you?	33211618	1472748736888	1472748736976	v	86
63904	698506	You just can't work without me can you?	You just can't work without me can you?	33211624	1472748738172	1472748738259	BKSP	8
63904	698506	You just can't work without me can you?	You just can't work without me can you?	33211632	1472748738437	1472748738575	c	67
63904	698506	You just can't work without me can you?	You just can't work without me can you?	33211639	1472748738789	1472748738876	a	65
63904	698506	You just can't work without me can you?	You just can't work without me can you?	33211645	1472748738987	1472748739115	n	78
63904	698506	You just can't work without me can you?	You just can't work without me can you?	33211826	1472748740128	1472748740219	 	32
63904	698506	You just can't work without me can you?	You just can't work without me can you?	33211828	1472748740594	1472748740676	y	89
63904	698506	You just can't work without me can you?	You just can't work without me can you?	33211830	1472748740676	1472748740806	o	79
63904	698506	You just can't work without me can you?	You just can't work without me can you?	33211832	1472748740868	1472748740973	u	85
63904	698506	You just can't work without me can you?	You just can't work without me can you?	33211834	1472748742103	1472748742509	SHIFT	16
63904	698506	You just can't work without me can you?	You just can't work without me can you?	33211996	1472748742446	1472748742572	?	191
63904	698532	England star Paul Gascoigne was one of the recipients of the loans.	England star Paul Gascoigne was one of the recipients of the loans.	33212372	1472748750555	1472748750664	CAPS_LOCK	20
63904	698532	England star Paul Gascoigne was one of the recipients of the loans.	England star Paul Gascoigne was one of the recipients of the loans.	33212377	1472748750821	1472748750987	E	69
63904	698532	England star Paul Gascoigne was one of the recipients of the loans.	England star Paul Gascoigne was one of the recipients of the loans.	33212382	1472748751175	1472748751331	CAPS_LOCK	20
63904	698532	England star Paul Gascoigne was one of the recipients of the loans.	England star Paul Gascoigne was one of the recipients of the loans.	33212387	1472748752224	1472748752351	n	78
63904	698532	England star Paul Gascoigne was one of the recipients of the loans.	England star Paul Gascoigne was one of the recipients of the loans.	33212396	1472748752460	1472748752554	g	71
63904	698532	England star Paul Gascoigne was one of the recipients of the loans.	England star Paul Gascoigne was one of the recipients of the loans.	33212403	1472748752929	1472748753008	l	76
63904	698532	England star Paul Gascoigne was one of the recipients of the loans.	England star Paul Gascoigne was one of the recipients of the loans.	33212409	1472748753055	1472748753240	a	65
63904	698532	England star Paul Gascoigne was one of the recipients of the loans.	England star Paul Gascoigne was one of the recipients of the loans.	33212477	1472748753173	1472748753259	n	78
63904	698532	England star Paul Gascoigne was one of the recipients of the loans.	England star Paul Gascoigne was one of the recipients of the loans.	33212480	1472748753384	1472748753505	d	68
63904	698532	England star Paul Gascoigne was one of the recipients of the loans.	England star Paul Gascoigne was one of the recipients of the loans.	33212484	1472748753505	1472748753592	 	32
63904	698532	England star Paul Gascoigne was one of the recipients of the loans.	England star Paul Gascoigne was one of the recipients of the loans.	33212488	1472748754373	1472748754506	s	83
63904	698532	England star Paul Gascoigne was one of the recipients of the loans.	England star Paul Gascoigne was one of the recipients of the loans.	33212493	1472748754553	1472748754669	t	84
63904	698532	England star Paul Gascoigne was one of the recipients of the loans.	England star Paul Gascoigne was one of the recipients of the loans.	33212593	1472748754669	1472748754816	a	65
63904	698532	England star Paul Gascoigne was one of the recipients of the loans.	England star Paul Gascoigne was one of the recipients of the loans.	33212597	1472748754816	1472748754906	r	82
63904	698532	England star Paul Gascoigne was one of the recipients of the loans.	England star Paul Gascoigne was one of the recipients of the loans.	33212601	1472748755094	1472748755173	 	32
63904	698532	England star Paul Gascoigne was one of the recipients of the loans.	England star Paul Gascoigne was one of the recipients of the loans.	33212610	1472748755973	1472748756129	CAPS_LOCK	20
63904	698532	England star Paul Gascoigne was one of the recipients of the loans.	England star Paul Gascoigne was one of the recipients of the loans.	33212614	1472748756194	1472748756301	P	80
63904	698532	England star Paul Gascoigne was one of the recipients of the loans.	England star Paul Gascoigne was one of the recipients of the loans.	33212620	1472748756348	1472748756473	CAPS_LOCK	20
63904	698532	England star Paul Gascoigne was one of the recipients of the loans.	England star Paul Gascoigne was one of the recipients of the loans.	33212628	1472748756691	1472748756867	a	65
63904	698532	England star Paul Gascoigne was one of the recipients of the loans.	England star Paul Gascoigne was one of the recipients of the loans.	33212633	1472748756867	1472748756958	u	85
63904	698532	England star Paul Gascoigne was one of the recipients of the loans.	England star Paul Gascoigne was one of the recipients of the loans.	33212854	1472748757194	1472748757306	l	76
63904	698532	England star Paul Gascoigne was one of the recipients of the loans.	England star Paul Gascoigne was one of the recipients of the loans.	33212856	1472748757603	1472748757687	 	32
63904	698532	England star Paul Gascoigne was one of the recipients of the loans.	England star Paul Gascoigne was one of the recipients of the loans.	33212858	1472748760652	1472748760762	CAPS_LOCK	20
63904	698532	England star Paul Gascoigne was one of the recipients of the loans.	England star Paul Gascoigne was one of the recipients of the loans.	33212861	1472748760857	1472748761005	G	71
63904	698532	England star Paul Gascoigne was one of the recipients of the loans.	England star Paul Gascoigne was one of the recipients of the loans.	33212864	1472748762178	1472748762303	CAPS_LOCK	20
63904	698532	England star Paul Gascoigne was one of the recipients of the loans.	England star Paul Gascoigne was one of the recipients of the loans.	33212870	1472748762412	1472748762503	a	65
63904	698532	England star Paul Gascoigne was one of the recipients of the loans.	England star Paul Gascoigne was one of the recipients of the loans.	33212874	1472748762612	1472748762755	s	83
63904	698532	England star Paul Gascoigne was one of the recipients of the loans.	England star Paul Gascoigne was one of the recipients of the loans.	33213108	1472748762787	1472748762875	 	32
63904	698532	England star Paul Gascoigne was one of the recipients of the loans.	England star Paul Gascoigne was one of the recipients of the loans.	33213110	1472748763956	1472748764067	BKSP	8
63904	698532	England star Paul Gascoigne was one of the recipients of the loans.	England star Paul Gascoigne was one of the recipients of the loans.	33213111	1472748765089	1472748765188	c	67
63904	698532	England star Paul Gascoigne was one of the recipients of the loans.	England star Paul Gascoigne was one of the recipients of the loans.	33213112	1472748765235	1472748765336	o	79
63904	698532	England star Paul Gascoigne was one of the recipients of the loans.	England star Paul Gascoigne was one of the recipients of the loans.	33213114	1472748766702	1472748766787	i	73
63904	698532	England star Paul Gascoigne was one of the recipients of the loans.	England star Paul Gascoigne was one of the recipients of the loans.	33213116	1472748766969	1472748767068	g	71
63904	698532	England star Paul Gascoigne was one of the recipients of the loans.	England star Paul Gascoigne was one of the recipients of the loans.	33213272	1472748767336	1472748767419	n	78
63904	698532	England star Paul Gascoigne was one of the recipients of the loans.	England star Paul Gascoigne was one of the recipients of the loans.	33213275	1472748767451	1472748767606	e	69
63904	698532	England star Paul Gascoigne was one of the recipients of the loans.	England star Paul Gascoigne was one of the recipients of the loans.	33213277	1472748767538	1472748767669	 	32
63904	698532	England star Paul Gascoigne was one of the recipients of the loans.	England star Paul Gascoigne was one of the recipients of the loans.	33213281	1472748769625	1472748769719	w	87
63904	698532	England star Paul Gascoigne was one of the recipients of the loans.	England star Paul Gascoigne was one of the recipients of the loans.	33213286	1472748769797	1472748770075	a	65
63904	698532	England star Paul Gascoigne was one of the recipients of the loans.	England star Paul Gascoigne was one of the recipients of the loans.	33213325	1472748770008	1472748770150	s	83
63904	698532	England star Paul Gascoigne was one of the recipients of the loans.	England star Paul Gascoigne was one of the recipients of the loans.	33213328	1472748770150	1472748770238	 	32
63904	698532	England star Paul Gascoigne was one of the recipients of the loans.	England star Paul Gascoigne was one of the recipients of the loans.	33213332	1472748770378	1472748770516	o	79
63904	698532	England star Paul Gascoigne was one of the recipients of the loans.	England star Paul Gascoigne was one of the recipients of the loans.	33213340	1472748770625	1472748770752	n	78
63904	698532	England star Paul Gascoigne was one of the recipients of the loans.	England star Paul Gascoigne was one of the recipients of the loans.	33213348	1472748770784	1472748770855	e	69
63904	698532	England star Paul Gascoigne was one of the recipients of the loans.	England star Paul Gascoigne was one of the recipients of the loans.	33213354	1472748770871	1472748770985	 	32
63904	698532	England star Paul Gascoigne was one of the recipients of the loans.	England star Paul Gascoigne was one of the recipients of the loans.	33213447	1472748771691	1472748771787	o	79
63904	698532	England star Paul Gascoigne was one of the recipients of the loans.	England star Paul Gascoigne was one of the recipients of the loans.	33213451	1472748771880	1472748772013	f	70
63904	698532	England star Paul Gascoigne was one of the recipients of the loans.	England star Paul Gascoigne was one of the recipients of the loans.	33213456	1472748772044	1472748772153	 	32
63904	698532	England star Paul Gascoigne was one of the recipients of the loans.	England star Paul Gascoigne was one of the recipients of the loans.	33213459	1472748772215	1472748772304	t	84
63904	698532	England star Paul Gascoigne was one of the recipients of the loans.	England star Paul Gascoigne was one of the recipients of the loans.	33213463	1472748772351	1472748772468	h	72
63904	698532	England star Paul Gascoigne was one of the recipients of the loans.	England star Paul Gascoigne was one of the recipients of the loans.	33213622	1472748772641	1472748772734	e	69
63904	698532	England star Paul Gascoigne was one of the recipients of the loans.	England star Paul Gascoigne was one of the recipients of the loans.	33213624	1472748772765	1472748772898	 	32
63904	698532	England star Paul Gascoigne was one of the recipients of the loans.	England star Paul Gascoigne was one of the recipients of the loans.	33213625	1472748774812	1472748774932	r	82
63904	698532	England star Paul Gascoigne was one of the recipients of the loans.	England star Paul Gascoigne was one of the recipients of the loans.	33213627	1472748774963	1472748775099	e	69
63904	698532	England star Paul Gascoigne was one of the recipients of the loans.	England star Paul Gascoigne was one of the recipients of the loans.	33213631	1472748775255	1472748775367	c	67
63904	698532	England star Paul Gascoigne was one of the recipients of the loans.	England star Paul Gascoigne was one of the recipients of the loans.	33213806	1472748776511	1472748776601	i	73
63904	698532	England star Paul Gascoigne was one of the recipients of the loans.	England star Paul Gascoigne was one of the recipients of the loans.	33213810	1472748777510	1472748777605	p	80
63904	698532	England star Paul Gascoigne was one of the recipients of the loans.	England star Paul Gascoigne was one of the recipients of the loans.	33213817	1472748777714	1472748777804	i	73
63904	698532	England star Paul Gascoigne was one of the recipients of the loans.	England star Paul Gascoigne was one of the recipients of the loans.	33213823	1472748777929	1472748778049	e	69
63904	698532	England star Paul Gascoigne was one of the recipients of the loans.	England star Paul Gascoigne was one of the recipients of the loans.	33213829	1472748778096	1472748778214	n	78
63904	698532	England star Paul Gascoigne was one of the recipients of the loans.	England star Paul Gascoigne was one of the recipients of the loans.	33214000	1472748778341	1472748778410	t	84
63904	698532	England star Paul Gascoigne was one of the recipients of the loans.	England star Paul Gascoigne was one of the recipients of the loans.	33214004	1472748778687	1472748778833	s	83
63904	698532	England star Paul Gascoigne was one of the recipients of the loans.	England star Paul Gascoigne was one of the recipients of the loans.	33214007	1472748778833	1472748778953	 	32
63904	698532	England star Paul Gascoigne was one of the recipients of the loans.	England star Paul Gascoigne was one of the recipients of the loans.	33214012	1472748780502	1472748780648	o	79
63904	698532	England star Paul Gascoigne was one of the recipients of the loans.	England star Paul Gascoigne was one of the recipients of the loans.	33214018	1472748780835	1472748780934	f	70
63904	698532	England star Paul Gascoigne was one of the recipients of the loans.	England star Paul Gascoigne was one of the recipients of the loans.	33214052	1472748780970	1472748781070	 	32
63904	698532	England star Paul Gascoigne was one of the recipients of the loans.	England star Paul Gascoigne was one of the recipients of the loans.	33214056	1472748781101	1472748781203	t	84
63904	698532	England star Paul Gascoigne was one of the recipients of the loans.	England star Paul Gascoigne was one of the recipients of the loans.	33214058	1472748781234	1472748781362	h	72
63904	698532	England star Paul Gascoigne was one of the recipients of the loans.	England star Paul Gascoigne was one of the recipients of the loans.	33214062	1472748781393	1472748781533	e	69
63904	698532	England star Paul Gascoigne was one of the recipients of the loans.	England star Paul Gascoigne was one of the recipients of the loans.	33214065	1472748781564	1472748781665	 	32
63904	698532	England star Paul Gascoigne was one of the recipients of the loans.	England star Paul Gascoigne was one of the recipients of the loans.	33214367	1472748781994	1472748782115	l	76
63904	698532	England star Paul Gascoigne was one of the recipients of the loans.	England star Paul Gascoigne was one of the recipients of the loans.	33214371	1472748782193	1472748782315	a	65
63904	698532	England star Paul Gascoigne was one of the recipients of the loans.	England star Paul Gascoigne was one of the recipients of the loans.	33214378	1472748782331	1472748782416	o	79
63904	698532	England star Paul Gascoigne was one of the recipients of the loans.	England star Paul Gascoigne was one of the recipients of the loans.	33214386	1472748782713	1472748782774	n	78
63904	698532	England star Paul Gascoigne was one of the recipients of the loans.	England star Paul Gascoigne was one of the recipients of the loans.	33214396	1472748784463	1472748784565	BKSP	8
63904	698532	England star Paul Gascoigne was one of the recipients of the loans.	England star Paul Gascoigne was one of the recipients of the loans.	33214404	1472748784627	1472748784717	BKSP	8
63904	698532	England star Paul Gascoigne was one of the recipients of the loans.	England star Paul Gascoigne was one of the recipients of the loans.	33214411	1472748785737	1472748785820	BKSP	8
63904	698532	England star Paul Gascoigne was one of the recipients of the loans.	England star Paul Gascoigne was one of the recipients of the loans.	33214422	1472748786507	1472748786632	o	79
63904	698532	England star Paul Gascoigne was one of the recipients of the loans.	England star Paul Gascoigne was one of the recipients of the loans.	33214588	1472748786681	1472748786844	a	65
63904	698532	England star Paul Gascoigne was one of the recipients of the loans.	England star Paul Gascoigne was one of the recipients of the loans.	33214591	1472748786969	1472748787051	n	78
63904	698532	England star Paul Gascoigne was one of the recipients of the loans.	England star Paul Gascoigne was one of the recipients of the loans.	33214595	1472748787192	1472748787254	s	83
63904	698532	England star Paul Gascoigne was one of the recipients of the loans.	England star Paul Gascoigne was one of the recipients of the loans.	33214598	1472748787629	1472748787687	.	190
63904	698579	The sooner I get this, the sooner we can get this implemented.	The sooner I get this, the sooner we can gt this implemented.	33215254	1472748799729	1472748799903	CAPS_LOCK	20
63904	698579	The sooner I get this, the sooner we can get this implemented.	The sooner I get this, the sooner we can gt this implemented.	33215257	1472748799950	1472748800036	T	84
63904	698579	The sooner I get this, the sooner we can get this implemented.	The sooner I get this, the sooner we can gt this implemented.	33215263	1472748800067	1472748800192	CAPS_LOCK	20
63904	698579	The sooner I get this, the sooner we can get this implemented.	The sooner I get this, the sooner we can gt this implemented.	33215268	1472748800192	1472748800332	h	72
63904	698579	The sooner I get this, the sooner we can get this implemented.	The sooner I get this, the sooner we can gt this implemented.	33215272	1472748800395	1472748800529	e	69
63904	698579	The sooner I get this, the sooner we can get this implemented.	The sooner I get this, the sooner we can gt this implemented.	33215278	1472748800560	1472748800652	 	32
63904	698579	The sooner I get this, the sooner we can get this implemented.	The sooner I get this, the sooner we can gt this implemented.	33215283	1472748801605	1472748801684	s	83
63904	698579	The sooner I get this, the sooner we can get this implemented.	The sooner I get this, the sooner we can gt this implemented.	33215313	1472748801763	1472748801866	o	79
63904	698579	The sooner I get this, the sooner we can get this implemented.	The sooner I get this, the sooner we can gt this implemented.	33215316	1472748801897	1472748802028	o	79
63904	698579	The sooner I get this, the sooner we can get this implemented.	The sooner I get this, the sooner we can gt this implemented.	33215320	1472748802153	1472748802234	n	78
63904	698579	The sooner I get this, the sooner we can get this implemented.	The sooner I get this, the sooner we can gt this implemented.	33215325	1472748802374	1472748802484	e	69
63904	698579	The sooner I get this, the sooner we can get this implemented.	The sooner I get this, the sooner we can gt this implemented.	33215330	1472748802546	1472748802648	r	82
63904	698579	The sooner I get this, the sooner we can get this implemented.	The sooner I get this, the sooner we can gt this implemented.	33215482	1472748802695	1472748802782	 	32
63904	698579	The sooner I get this, the sooner we can get this implemented.	The sooner I get this, the sooner we can gt this implemented.	33215492	1472748803582	1472748803670	i	73
63904	698579	The sooner I get this, the sooner we can get this implemented.	The sooner I get this, the sooner we can gt this implemented.	33215497	1472748804045	1472748804132	BKSP	8
63904	698579	The sooner I get this, the sooner we can get this implemented.	The sooner I get this, the sooner we can gt this implemented.	33215503	1472748804289	1472748804414	CAPS_LOCK	20
63904	698579	The sooner I get this, the sooner we can get this implemented.	The sooner I get this, the sooner we can gt this implemented.	33215510	1472748804570	1472748804666	I	73
63904	698579	The sooner I get this, the sooner we can get this implemented.	The sooner I get this, the sooner we can gt this implemented.	33215514	1472748804729	1472748804823	CAPS_LOCK	20
63904	698579	The sooner I get this, the sooner we can get this implemented.	The sooner I get this, the sooner we can gt this implemented.	33215518	1472748804870	1472748804967	 	32
63904	698579	The sooner I get this, the sooner we can get this implemented.	The sooner I get this, the sooner we can gt this implemented.	33215520	1472748805155	1472748805249	g	71
63904	698579	The sooner I get this, the sooner we can get this implemented.	The sooner I get this, the sooner we can gt this implemented.	33215566	1472748805282	1472748805416	e	69
63904	698579	The sooner I get this, the sooner we can get this implemented.	The sooner I get this, the sooner we can gt this implemented.	33215571	1472748805416	1472748805503	t	84
63904	698579	The sooner I get this, the sooner we can get this implemented.	The sooner I get this, the sooner we can gt this implemented.	33215577	1472748805644	1472748805734	 	32
63904	698579	The sooner I get this, the sooner we can get this implemented.	The sooner I get this, the sooner we can gt this implemented.	33215584	1472748806439	1472748806505	t	84
63904	698579	The sooner I get this, the sooner we can get this implemented.	The sooner I get this, the sooner we can gt this implemented.	33215589	1472748806535	1472748806619	h	72
63904	698579	The sooner I get this, the sooner we can get this implemented.	The sooner I get this, the sooner we can gt this implemented.	33215689	1472748806698	1472748806832	i	73
63904	698579	The sooner I get this, the sooner we can get this implemented.	The sooner I get this, the sooner we can gt this implemented.	33215690	1472748806895	1472748807043	s	83
63904	698579	The sooner I get this, the sooner we can get this implemented.	The sooner I get this, the sooner we can gt this implemented.	33215693	1472748807404	1472748807452	.	190
63904	698579	The sooner I get this, the sooner we can get this implemented.	The sooner I get this, the sooner we can gt this implemented.	33215699	1472748807812	1472748807916	BKSP	8
63904	698579	The sooner I get this, the sooner we can get this implemented.	The sooner I get this, the sooner we can gt this implemented.	33215704	1472748808103	1472748808152	,	188
63904	698579	The sooner I get this, the sooner we can get this implemented.	The sooner I get this, the sooner we can gt this implemented.	33215709	1472748808247	1472748808357	 	32
63904	698579	The sooner I get this, the sooner we can get this implemented.	The sooner I get this, the sooner we can gt this implemented.	33215776	1472748808682	1472748808833	t	84
63904	698579	The sooner I get this, the sooner we can get this implemented.	The sooner I get this, the sooner we can gt this implemented.	33215779	1472748808865	1472748808953	h	72
63904	698579	The sooner I get this, the sooner we can get this implemented.	The sooner I get this, the sooner we can gt this implemented.	33215787	1472748809031	1472748809185	e	69
63904	698579	The sooner I get this, the sooner we can get this implemented.	The sooner I get this, the sooner we can gt this implemented.	33215791	1472748809119	1472748809216	 	32
63904	698579	The sooner I get this, the sooner we can get this implemented.	The sooner I get this, the sooner we can gt this implemented.	33215797	1472748809999	1472748810118	s	83
63904	698579	The sooner I get this, the sooner we can get this implemented.	The sooner I get this, the sooner we can gt this implemented.	33215836	1472748810296	1472748810386	o	79
63904	698579	The sooner I get this, the sooner we can get this implemented.	The sooner I get this, the sooner we can gt this implemented.	33215837	1472748810496	1472748810553	n	78
63904	698579	The sooner I get this, the sooner we can get this implemented.	The sooner I get this, the sooner we can gt this implemented.	33215840	1472748810631	1472748810750	e	69
63904	698579	The sooner I get this, the sooner we can get this implemented.	The sooner I get this, the sooner we can gt this implemented.	33215843	1472748810829	1472748810977	r	82
63904	698579	The sooner I get this, the sooner we can get this implemented.	The sooner I get this, the sooner we can gt this implemented.	33215848	1472748810977	1472748811078	 	32
63904	698579	The sooner I get this, the sooner we can get this implemented.	The sooner I get this, the sooner we can gt this implemented.	33215944	1472748811728	1472748811862	w	87
63904	698579	The sooner I get this, the sooner we can get this implemented.	The sooner I get this, the sooner we can gt this implemented.	33215947	1472748811940	1472748812017	e	69
63904	698579	The sooner I get this, the sooner we can get this implemented.	The sooner I get this, the sooner we can gt this implemented.	33215952	1472748812033	1472748812150	 	32
63904	698579	The sooner I get this, the sooner we can get this implemented.	The sooner I get this, the sooner we can gt this implemented.	33215956	1472748812416	1472748812503	c	67
63904	698579	The sooner I get this, the sooner we can get this implemented.	The sooner I get this, the sooner we can gt this implemented.	33215962	1472748812582	1472748812669	a	65
63904	698579	The sooner I get this, the sooner we can get this implemented.	The sooner I get this, the sooner we can gt this implemented.	33216089	1472748812702	1472748812817	n	78
63904	698579	The sooner I get this, the sooner we can get this implemented.	The sooner I get this, the sooner we can gt this implemented.	33216092	1472748812895	1472748813011	 	32
63904	698579	The sooner I get this, the sooner we can get this implemented.	The sooner I get this, the sooner we can gt this implemented.	33216096	1472748814252	1472748814430	g	71
63904	698579	The sooner I get this, the sooner we can get this implemented.	The sooner I get this, the sooner we can gt this implemented.	33216100	1472748814649	1472748814784	t	84
63904	698579	The sooner I get this, the sooner we can get this implemented.	The sooner I get this, the sooner we can gt this implemented.	33216103	1472748814940	1472748815017	 	32
63904	698579	The sooner I get this, the sooner we can get this implemented.	The sooner I get this, the sooner we can gt this implemented.	33216134	1472748815628	1472748815761	t	84
63904	698579	The sooner I get this, the sooner we can get this implemented.	The sooner I get this, the sooner we can gt this implemented.	33216135	1472748815777	1472748815850	h	72
63904	698579	The sooner I get this, the sooner we can get this implemented.	The sooner I get this, the sooner we can gt this implemented.	33216136	1472748815975	1472748816066	i	73
63904	698579	The sooner I get this, the sooner we can get this implemented.	The sooner I get this, the sooner we can gt this implemented.	33216137	1472748816144	1472748816264	s	83
63904	698579	The sooner I get this, the sooner we can get this implemented.	The sooner I get this, the sooner we can gt this implemented.	33216139	1472748816264	1472748816328	 	32
63904	698579	The sooner I get this, the sooner we can get this implemented.	The sooner I get this, the sooner we can gt this implemented.	33216255	1472748817480	1472748817569	i	73
63904	698579	The sooner I get this, the sooner we can get this implemented.	The sooner I get this, the sooner we can gt this implemented.	33216259	1472748817694	1472748817814	m	77
63904	698579	The sooner I get this, the sooner we can get this implemented.	The sooner I get this, the sooner we can gt this implemented.	33216268	1472748818001	1472748818102	p	80
63904	698579	The sooner I get this, the sooner we can get this implemented.	The sooner I get this, the sooner we can gt this implemented.	33216272	1472748818211	1472748818316	l	76
63904	698579	The sooner I get this, the sooner we can get this implemented.	The sooner I get this, the sooner we can gt this implemented.	33216275	1472748818566	1472748818669	e	69
63904	698579	The sooner I get this, the sooner we can get this implemented.	The sooner I get this, the sooner we can gt this implemented.	33216394	1472748820283	1472748820416	m	77
63904	698579	The sooner I get this, the sooner we can get this implemented.	The sooner I get this, the sooner we can gt this implemented.	33216396	1472748820462	1472748820548	e	69
63904	698579	The sooner I get this, the sooner we can get this implemented.	The sooner I get this, the sooner we can gt this implemented.	33216398	1472748820580	1472748820695	n	78
63904	698579	The sooner I get this, the sooner we can get this implemented.	The sooner I get this, the sooner we can gt this implemented.	33216401	1472748821164	1472748821235	t	84
63904	698579	The sooner I get this, the sooner we can get this implemented.	The sooner I get this, the sooner we can gt this implemented.	33216403	1472748821344	1472748821464	e	69
63904	698579	The sooner I get this, the sooner we can get this implemented.	The sooner I get this, the sooner we can gt this implemented.	33216561	1472748821542	1472748821699	d	68
63904	698579	The sooner I get this, the sooner we can get this implemented.	The sooner I get this, the sooner we can gt this implemented.	33216565	1472748822322	1472748822369	.	190
63904	698621	I forgot one person when we spoke on Friday.	I forgot one person when we spoke one Friday.	33217208	1472748835166	1472748835338	CAPS_LOCK	20
63904	698621	I forgot one person when we spoke on Friday.	I forgot one person when we spoke one Friday.	33217209	1472748835338	1472748835472	I	73
63904	698621	I forgot one person when we spoke on Friday.	I forgot one person when we spoke one Friday.	33217212	1472748835457	1472748835613	CAPS_LOCK	20
63904	698621	I forgot one person when we spoke on Friday.	I forgot one person when we spoke one Friday.	33217217	1472748835613	1472748835707	 	32
63904	698621	I forgot one person when we spoke on Friday.	I forgot one person when we spoke one Friday.	33217224	1472748836411	1472748836548	f	70
63904	698621	I forgot one person when we spoke on Friday.	I forgot one person when we spoke one Friday.	33217230	1472748836580	1472748836703	o	79
63904	698621	I forgot one person when we spoke on Friday.	I forgot one person when we spoke one Friday.	33217234	1472748837285	1472748837401	r	82
63904	698621	I forgot one person when we spoke on Friday.	I forgot one person when we spoke one Friday.	33217278	1472748837479	1472748837621	g	71
63904	698621	I forgot one person when we spoke on Friday.	I forgot one person when we spoke one Friday.	33217281	1472748838121	1472748838255	o	79
63904	698621	I forgot one person when we spoke on Friday.	I forgot one person when we spoke one Friday.	33217283	1472748838286	1472748838374	t	84
63904	698621	I forgot one person when we spoke on Friday.	I forgot one person when we spoke one Friday.	33217285	1472748838405	1472748838508	 	32
63904	698621	I forgot one person when we spoke on Friday.	I forgot one person when we spoke one Friday.	33217287	1472748838649	1472748838740	o	79
63904	698621	I forgot one person when we spoke on Friday.	I forgot one person when we spoke one Friday.	33217325	1472748838897	1472748838988	n	78
63904	698621	I forgot one person when we spoke on Friday.	I forgot one person when we spoke one Friday.	33217329	1472748839097	1472748839165	e	69
63904	698621	I forgot one person when we spoke on Friday.	I forgot one person when we spoke one Friday.	33217332	1472748839189	1472748839274	 	32
63904	698621	I forgot one person when we spoke on Friday.	I forgot one person when we spoke one Friday.	33217336	1472748839540	1472748839703	p	80
63904	698621	I forgot one person when we spoke on Friday.	I forgot one person when we spoke one Friday.	33217341	1472748839765	1472748839902	e	69
63904	698621	I forgot one person when we spoke on Friday.	I forgot one person when we spoke one Friday.	33217383	1472748839951	1472748840040	r	82
63904	698621	I forgot one person when we spoke on Friday.	I forgot one person when we spoke one Friday.	33217386	1472748840196	1472748840286	s	83
63904	698621	I forgot one person when we spoke on Friday.	I forgot one person when we spoke one Friday.	33217392	1472748840333	1472748840452	o	79
63904	698621	I forgot one person when we spoke on Friday.	I forgot one person when we spoke one Friday.	33217397	1472748840608	1472748840657	n	78
63904	698621	I forgot one person when we spoke on Friday.	I forgot one person when we spoke one Friday.	33217404	1472748840799	1472748840872	 	32
63904	698621	I forgot one person when we spoke on Friday.	I forgot one person when we spoke one Friday.	33217463	1472748841594	1472748841719	w	87
63904	698621	I forgot one person when we spoke on Friday.	I forgot one person when we spoke one Friday.	33217465	1472748841766	1472748841855	h	72
63904	698621	I forgot one person when we spoke on Friday.	I forgot one person when we spoke one Friday.	33217468	1472748841918	1472748842020	e	69
63904	698621	I forgot one person when we spoke on Friday.	I forgot one person when we spoke one Friday.	33217471	1472748842083	1472748842171	n	78
63904	698621	I forgot one person when we spoke on Friday.	I forgot one person when we spoke one Friday.	33217474	1472748842296	1472748842387	 	32
63904	698621	I forgot one person when we spoke on Friday.	I forgot one person when we spoke one Friday.	33217538	1472748842466	1472748842587	w	87
63904	698621	I forgot one person when we spoke on Friday.	I forgot one person when we spoke one Friday.	33217542	1472748842618	1472748842717	e	69
63904	698621	I forgot one person when we spoke on Friday.	I forgot one person when we spoke one Friday.	33217545	1472748842796	1472748842887	 	32
63904	698621	I forgot one person when we spoke on Friday.	I forgot one person when we spoke one Friday.	33217549	1472748843655	1472748843741	s	83
63904	698621	I forgot one person when we spoke on Friday.	I forgot one person when we spoke one Friday.	33217553	1472748843756	1472748843871	p	80
63904	698621	I forgot one person when we spoke on Friday.	I forgot one person when we spoke one Friday.	33217572	1472748843965	1472748844055	o	79
63904	698621	I forgot one person when we spoke on Friday.	I forgot one person when we spoke one Friday.	33217574	1472748844196	1472748844290	k	75
63904	698621	I forgot one person when we spoke on Friday.	I forgot one person when we spoke one Friday.	33217578	1472748844368	1472748844468	e	69
63904	698621	I forgot one person when we spoke on Friday.	I forgot one person when we spoke one Friday.	33217584	1472748844515	1472748844605	 	32
63904	698621	I forgot one person when we spoke on Friday.	I forgot one person when we spoke one Friday.	33217590	1472748844809	1472748844889	o	79
63904	698621	I forgot one person when we spoke on Friday.	I forgot one person when we spoke one Friday.	33217672	1472748845046	1472748845137	n	78
63904	698621	I forgot one person when we spoke on Friday.	I forgot one person when we spoke one Friday.	33217678	1472748845247	1472748845338	e	69
63904	698621	I forgot one person when we spoke on Friday.	I forgot one person when we spoke one Friday.	33217683	1472748845384	1472748845502	 	32
63904	698621	I forgot one person when we spoke on Friday.	I forgot one person when we spoke one Friday.	33217689	1472748845894	1472748845988	f	70
63904	698621	I forgot one person when we spoke on Friday.	I forgot one person when we spoke one Friday.	33217692	1472748846066	1472748846186	r	82
63904	698621	I forgot one person when we spoke on Friday.	I forgot one person when we spoke one Friday.	33217935	1472748846235	1472748846367	i	73
63904	698621	I forgot one person when we spoke on Friday.	I forgot one person when we spoke one Friday.	33217942	1472748846586	1472748846717	d	68
63904	698621	I forgot one person when we spoke on Friday.	I forgot one person when we spoke one Friday.	33217947	1472748846827	1472748846922	y	89
63904	698621	I forgot one person when we spoke on Friday.	I forgot one person when we spoke one Friday.	33217951	1472748847047	1472748847137	a	65
63904	698621	I forgot one person when we spoke on Friday.	I forgot one person when we spoke one Friday.	33217954	1472748847465	1472748847555	BKSP	8
63904	698621	I forgot one person when we spoke on Friday.	I forgot one person when we spoke one Friday.	33217956	1472748847680	1472748847724	BKSP	8
63904	698621	I forgot one person when we spoke on Friday.	I forgot one person when we spoke one Friday.	33217957	1472748847802	1472748847887	BKSP	8
63904	698621	I forgot one person when we spoke on Friday.	I forgot one person when we spoke one Friday.	33217958	1472748847954	1472748848041	BKSP	8
63904	698621	I forgot one person when we spoke on Friday.	I forgot one person when we spoke one Friday.	33217959	1472748848072	1472748848172	BKSP	8
63904	698621	I forgot one person when we spoke on Friday.	I forgot one person when we spoke one Friday.	33217962	1472748848891	1472748848990	BKSP	8
63904	698621	I forgot one person when we spoke on Friday.	I forgot one person when we spoke one Friday.	33217965	1472748849724	1472748849849	CAPS_LOCK	20
63904	698621	I forgot one person when we spoke on Friday.	I forgot one person when we spoke one Friday.	33217969	1472748850256	1472748850354	F	70
63904	698621	I forgot one person when we spoke on Friday.	I forgot one person when we spoke one Friday.	33217983	1472748850339	1472748850464	CAPS_LOCK	20
63904	698621	I forgot one person when we spoke on Friday.	I forgot one person when we spoke one Friday.	33217987	1472748850511	1472748850604	r	82
63904	698621	I forgot one person when we spoke on Friday.	I forgot one person when we spoke one Friday.	33217993	1472748850870	1472748850957	i	73
63904	698621	I forgot one person when we spoke on Friday.	I forgot one person when we spoke one Friday.	33217996	1472748851144	1472748851238	d	68
63904	698621	I forgot one person when we spoke on Friday.	I forgot one person when we spoke one Friday.	33217999	1472748851394	1472748851505	y	65
63904	698621	I forgot one person when we spoke on Friday.	I forgot one person when we spoke one Friday.	33218218	1472748852538	1472748852596	.	190
63904	698652	Hope all is well.	Hope all is well.	33218538	1472748861502	1472748861658	CAPS_LOCK	20
63904	698652	Hope all is well.	Hope all is well.	33218541	1472748861767	1472748861899	H	72
63904	698652	Hope all is well.	Hope all is well.	33218545	1472748861852	1472748861977	CAPS_LOCK	20
63904	698652	Hope all is well.	Hope all is well.	33218551	1472748862055	1472748862138	o	79
63904	698652	Hope all is well.	Hope all is well.	33218556	1472748862248	1472748862386	p	80
63904	698652	Hope all is well.	Hope all is well.	33218560	1472748862418	1472748862506	e	69
63904	698652	Hope all is well.	Hope all is well.	33218563	1472748862585	1472748862673	 	32
63904	698652	Hope all is well.	Hope all is well.	33218590	1472748862847	1472748862968	a	65
63904	698652	Hope all is well.	Hope all is well.	33218595	1472748863031	1472748863089	l	76
63904	698652	Hope all is well.	Hope all is well.	33218599	1472748863168	1472748863256	l	76
63904	698652	Hope all is well.	Hope all is well.	33218602	1472748863366	1472748863452	 	32
63904	698652	Hope all is well.	Hope all is well.	33218608	1472748863592	1472748863718	i	73
63904	698652	Hope all is well.	Hope all is well.	33218632	1472748863751	1472748863868	s	83
63904	698652	Hope all is well.	Hope all is well.	33218635	1472748863899	1472748863985	 	32
63904	698652	Hope all is well.	Hope all is well.	33218638	1472748864063	1472748864201	w	87
63904	698652	Hope all is well.	Hope all is well.	33218641	1472748864232	1472748864347	e	69
63904	698652	Hope all is well.	Hope all is well.	33218644	1472748864425	1472748864494	l	76
63904	698652	Hope all is well.	Hope all is well.	33218807	1472748864554	1472748864656	l	76
63904	698652	Hope all is well.	Hope all is well.	33218809	1472748864843	1472748864937	.	190
63904	698701	Doug Chapman will likely get the start in Bennett s absence.	Doug Chapman will likely get the start in Bennett s absence.	33220998	1472748901443	1472748901615	CAPS_LOCK	20
63904	698701	Doug Chapman will likely get the start in Bennett s absence.	Doug Chapman will likely get the start in Bennett s absence.	33221003	1472748902963	1472748903029	D	68
63904	698701	Doug Chapman will likely get the start in Bennett s absence.	Doug Chapman will likely get the start in Bennett s absence.	33221008	1472748903169	1472748903294	CAPS_LOCK	20
63904	698701	Doug Chapman will likely get the start in Bennett s absence.	Doug Chapman will likely get the start in Bennett s absence.	33221012	1472748903310	1472748903443	o	79
63904	698701	Doug Chapman will likely get the start in Bennett s absence.	Doug Chapman will likely get the start in Bennett s absence.	33221020	1472748903521	1472748903627	u	85
63904	698701	Doug Chapman will likely get the start in Bennett s absence.	Doug Chapman will likely get the start in Bennett s absence.	33221025	1472748903846	1472748903944	g	71
63904	698701	Doug Chapman will likely get the start in Bennett s absence.	Doug Chapman will likely get the start in Bennett s absence.	33221028	1472748904006	1472748904110	 	32
63904	698701	Doug Chapman will likely get the start in Bennett s absence.	Doug Chapman will likely get the start in Bennett s absence.	33221148	1472748905020	1472748905161	CAPS_LOCK	20
63904	698701	Doug Chapman will likely get the start in Bennett s absence.	Doug Chapman will likely get the start in Bennett s absence.	33221152	1472748905270	1472748905360	C	67
63904	698701	Doug Chapman will likely get the start in Bennett s absence.	Doug Chapman will likely get the start in Bennett s absence.	33221156	1472748905438	1472748905563	CAPS_LOCK	20
63904	698701	Doug Chapman will likely get the start in Bennett s absence.	Doug Chapman will likely get the start in Bennett s absence.	33221161	1472748905594	1472748905675	h	72
63904	698701	Doug Chapman will likely get the start in Bennett s absence.	Doug Chapman will likely get the start in Bennett s absence.	33221165	1472748905988	1472748906076	a	65
63904	698701	Doug Chapman will likely get the start in Bennett s absence.	Doug Chapman will likely get the start in Bennett s absence.	33221168	1472748906107	1472748906243	p	80
63904	698701	Doug Chapman will likely get the start in Bennett s absence.	Doug Chapman will likely get the start in Bennett s absence.	33221171	1472748906352	1472748906443	m	77
63904	698701	Doug Chapman will likely get the start in Bennett s absence.	Doug Chapman will likely get the start in Bennett s absence.	33221243	1472748906553	1472748906702	a	65
63904	698701	Doug Chapman will likely get the start in Bennett s absence.	Doug Chapman will likely get the start in Bennett s absence.	33221249	1472748906733	1472748906826	n	78
63904	698701	Doug Chapman will likely get the start in Bennett s absence.	Doug Chapman will likely get the start in Bennett s absence.	33221254	1472748906935	1472748907029	 	32
63904	698701	Doug Chapman will likely get the start in Bennett s absence.	Doug Chapman will likely get the start in Bennett s absence.	33221260	1472748907841	1472748908063	w	87
63904	698701	Doug Chapman will likely get the start in Bennett s absence.	Doug Chapman will likely get the start in Bennett s absence.	33221389	1472748907976	1472748908063	i	73
63904	698701	Doug Chapman will likely get the start in Bennett s absence.	Doug Chapman will likely get the start in Bennett s absence.	33221390	1472748908236	1472748908326	l	76
63904	698701	Doug Chapman will likely get the start in Bennett s absence.	Doug Chapman will likely get the start in Bennett s absence.	33221393	1472748908388	1472748908493	l	76
63904	698701	Doug Chapman will likely get the start in Bennett s absence.	Doug Chapman will likely get the start in Bennett s absence.	33221397	1472748908680	1472748908776	 	32
63904	698701	Doug Chapman will likely get the start in Bennett s absence.	Doug Chapman will likely get the start in Bennett s absence.	33221399	1472748908964	1472748909059	l	76
63904	698701	Doug Chapman will likely get the start in Bennett s absence.	Doug Chapman will likely get the start in Bennett s absence.	33221401	1472748910815	1472748910909	i	73
63904	698701	Doug Chapman will likely get the start in Bennett s absence.	Doug Chapman will likely get the start in Bennett s absence.	33221431	1472748911035	1472748911123	k	75
63904	698701	Doug Chapman will likely get the start in Bennett s absence.	Doug Chapman will likely get the start in Bennett s absence.	33221433	1472748911202	1472748911324	e	69
63904	698701	Doug Chapman will likely get the start in Bennett s absence.	Doug Chapman will likely get the start in Bennett s absence.	33221435	1472748911402	1472748911510	;	76
63904	698701	Doug Chapman will likely get the start in Bennett s absence.	Doug Chapman will likely get the start in Bennett s absence.	33221436	1472748911887	1472748911978	y	89
63904	698701	Doug Chapman will likely get the start in Bennett s absence.	Doug Chapman will likely get the start in Bennett s absence.	33221603	1472748912026	1472748912093	 	32
63904	698701	Doug Chapman will likely get the start in Bennett s absence.	Doug Chapman will likely get the start in Bennett s absence.	33221607	1472748912471	1472748912558	BKSP	8
63904	698701	Doug Chapman will likely get the start in Bennett s absence.	Doug Chapman will likely get the start in Bennett s absence.	33221613	1472748912667	1472748912737	BKSP	8
63904	698701	Doug Chapman will likely get the start in Bennett s absence.	Doug Chapman will likely get the start in Bennett s absence.	33221619	1472748912793	1472748912854	BKSP	8
63904	698701	Doug Chapman will likely get the start in Bennett s absence.	Doug Chapman will likely get the start in Bennett s absence.	33221625	1472748912926	1472748913012	BKSP	8
63904	698701	Doug Chapman will likely get the start in Bennett s absence.	Doug Chapman will likely get the start in Bennett s absence.	33221631	1472748914218	1472748914309	l	76
63904	698701	Doug Chapman will likely get the start in Bennett s absence.	Doug Chapman will likely get the start in Bennett s absence.	33221639	1472748914340	1472748914429	y	89
63904	698701	Doug Chapman will likely get the start in Bennett s absence.	Doug Chapman will likely get the start in Bennett s absence.	33221646	1472748914492	1472748914579	 	32
63904	698701	Doug Chapman will likely get the start in Bennett s absence.	Doug Chapman will likely get the start in Bennett s absence.	33221652	1472748915344	1472748915458	g	71
63904	698701	Doug Chapman will likely get the start in Bennett s absence.	Doug Chapman will likely get the start in Bennett s absence.	33221672	1472748915506	1472748915596	e	69
63904	698701	Doug Chapman will likely get the start in Bennett s absence.	Doug Chapman will likely get the start in Bennett s absence.	33221676	1472748915627	1472748915729	t	84
63904	698701	Doug Chapman will likely get the start in Bennett s absence.	Doug Chapman will likely get the start in Bennett s absence.	33221680	1472748915885	1472748916021	 	32
63904	698701	Doug Chapman will likely get the start in Bennett s absence.	Doug Chapman will likely get the start in Bennett s absence.	33221682	1472748916052	1472748916174	t	84
63904	698701	Doug Chapman will likely get the start in Bennett s absence.	Doug Chapman will likely get the start in Bennett s absence.	33221687	1472748916221	1472748916339	h	72
63904	698701	Doug Chapman will likely get the start in Bennett s absence.	Doug Chapman will likely get the start in Bennett s absence.	33221753	1472748916574	1472748916693	e	69
63904	698701	Doug Chapman will likely get the start in Bennett s absence.	Doug Chapman will likely get the start in Bennett s absence.	33221756	1472748916693	1472748916795	 	32
63904	698701	Doug Chapman will likely get the start in Bennett s absence.	Doug Chapman will likely get the start in Bennett s absence.	33221759	1472748917483	1472748917620	s	83
63904	698701	Doug Chapman will likely get the start in Bennett s absence.	Doug Chapman will likely get the start in Bennett s absence.	33221761	1472748917620	1472748917740	t	84
63904	698701	Doug Chapman will likely get the start in Bennett s absence.	Doug Chapman will likely get the start in Bennett s absence.	33221822	1472748917740	1472748917927	a	65
63904	698701	Doug Chapman will likely get the start in Bennett s absence.	Doug Chapman will likely get the start in Bennett s absence.	33221824	1472748917860	1472748917960	r	82
63904	698701	Doug Chapman will likely get the start in Bennett s absence.	Doug Chapman will likely get the start in Bennett s absence.	33221829	1472748918117	1472748918222	t	84
63904	698701	Doug Chapman will likely get the start in Bennett s absence.	Doug Chapman will likely get the start in Bennett s absence.	33221835	1472748918775	1472748918862	 	32
63904	698701	Doug Chapman will likely get the start in Bennett s absence.	Doug Chapman will likely get the start in Bennett s absence.	33221839	1472748919080	1472748919177	i	73
63904	698701	Doug Chapman will likely get the start in Bennett s absence.	Doug Chapman will likely get the start in Bennett s absence.	33221842	1472748919333	1472748919426	n	78
63904	698701	Doug Chapman will likely get the start in Bennett s absence.	Doug Chapman will likely get the start in Bennett s absence.	33221877	1472748919552	1472748919645	 	32
63904	698701	Doug Chapman will likely get the start in Bennett s absence.	Doug Chapman will likely get the start in Bennett s absence.	33221880	1472748919879	1472748919960	b	66
63904	698701	Doug Chapman will likely get the start in Bennett s absence.	Doug Chapman will likely get the start in Bennett s absence.	33221885	1472748920038	1472748920124	e	69
63904	698701	Doug Chapman will likely get the start in Bennett s absence.	Doug Chapman will likely get the start in Bennett s absence.	33221890	1472748920234	1472748920326	e	69
63904	698701	Doug Chapman will likely get the start in Bennett s absence.	Doug Chapman will likely get the start in Bennett s absence.	33221895	1472748920435	1472748920503	n	78
63904	698701	Doug Chapman will likely get the start in Bennett s absence.	Doug Chapman will likely get the start in Bennett s absence.	33222005	1472748920845	1472748920895	=	187
63904	698701	Doug Chapman will likely get the start in Bennett s absence.	Doug Chapman will likely get the start in Bennett s absence.	33222012	1472748921192	1472748921295	BKSP	8
63904	698701	Doug Chapman will likely get the start in Bennett s absence.	Doug Chapman will likely get the start in Bennett s absence.	33222017	1472748921358	1472748921445	BKSP	8
63904	698701	Doug Chapman will likely get the start in Bennett s absence.	Doug Chapman will likely get the start in Bennett s absence.	33222022	1472748921523	1472748921591	BKSP	8
63904	698701	Doug Chapman will likely get the start in Bennett s absence.	Doug Chapman will likely get the start in Bennett s absence.	33222026	1472748922346	1472748922458	n	78
63904	698701	Doug Chapman will likely get the start in Bennett s absence.	Doug Chapman will likely get the start in Bennett s absence.	33222027	1472748922490	1472748922610	n	78
63904	698701	Doug Chapman will likely get the start in Bennett s absence.	Doug Chapman will likely get the start in Bennett s absence.	33222028	1472748922657	1472748922776	e	69
63904	698701	Doug Chapman will likely get the start in Bennett s absence.	Doug Chapman will likely get the start in Bennett s absence.	33222029	1472748922854	1472748922941	t	84
63904	698701	Doug Chapman will likely get the start in Bennett s absence.	Doug Chapman will likely get the start in Bennett s absence.	33222256	1472748923460	1472748923543	BKSP	8
63904	698701	Doug Chapman will likely get the start in Bennett s absence.	Doug Chapman will likely get the start in Bennett s absence.	33222257	1472748923621	1472748923723	BKSP	8
63904	698701	Doug Chapman will likely get the start in Bennett s absence.	Doug Chapman will likely get the start in Bennett s absence.	33222261	1472748923786	1472748923856	BKSP	8
63904	698701	Doug Chapman will likely get the start in Bennett s absence.	Doug Chapman will likely get the start in Bennett s absence.	33222266	1472748923921	1472748924019	BKSP	8
63904	698701	Doug Chapman will likely get the start in Bennett s absence.	Doug Chapman will likely get the start in Bennett s absence.	33222269	1472748924097	1472748924144	BKSP	8
63904	698701	Doug Chapman will likely get the start in Bennett s absence.	Doug Chapman will likely get the start in Bennett s absence.	33222270	1472748924207	1472748924293	BKSP	8
63904	698701	Doug Chapman will likely get the start in Bennett s absence.	Doug Chapman will likely get the start in Bennett s absence.	33222273	1472748925321	1472748925438	CAPS_LOCK	20
63904	698701	Doug Chapman will likely get the start in Bennett s absence.	Doug Chapman will likely get the start in Bennett s absence.	33222278	1472748925469	1472748925575	B	66
63904	698701	Doug Chapman will likely get the start in Bennett s absence.	Doug Chapman will likely get the start in Bennett s absence.	33222284	1472748925606	1472748925731	CAPS_LOCK	20
63904	698701	Doug Chapman will likely get the start in Bennett s absence.	Doug Chapman will likely get the start in Bennett s absence.	33222289	1472748926783	1472748926892	e	69
63904	698701	Doug Chapman will likely get the start in Bennett s absence.	Doug Chapman will likely get the start in Bennett s absence.	33222296	1472748927394	1472748927523	n	78
63904	698701	Doug Chapman will likely get the start in Bennett s absence.	Doug Chapman will likely get the start in Bennett s absence.	33222302	1472748927585	1472748927693	n	78
63904	698701	Doug Chapman will likely get the start in Bennett s absence.	Doug Chapman will likely get the start in Bennett s absence.	33222307	1472748927724	1472748927853	e	69
63904	698701	Doug Chapman will likely get the start in Bennett s absence.	Doug Chapman will likely get the start in Bennett s absence.	33222364	1472748927931	1472748928025	t	84
63904	698701	Doug Chapman will likely get the start in Bennett s absence.	Doug Chapman will likely get the start in Bennett s absence.	33222367	1472748928337	1472748928424	t	84
63904	698701	Doug Chapman will likely get the start in Bennett s absence.	Doug Chapman will likely get the start in Bennett s absence.	33222373	1472748928659	1472748928745	 	32
63904	698701	Doug Chapman will likely get the start in Bennett s absence.	Doug Chapman will likely get the start in Bennett s absence.	33222378	1472748929666	1472748929806	s	83
63904	698701	Doug Chapman will likely get the start in Bennett s absence.	Doug Chapman will likely get the start in Bennett s absence.	33222384	1472748929837	1472748929924	 	32
63904	698701	Doug Chapman will likely get the start in Bennett s absence.	Doug Chapman will likely get the start in Bennett s absence.	33222507	1472748930725	1472748930859	a	65
63904	698701	Doug Chapman will likely get the start in Bennett s absence.	Doug Chapman will likely get the start in Bennett s absence.	33222511	1472748931109	1472748931237	n	78
63904	698701	Doug Chapman will likely get the start in Bennett s absence.	Doug Chapman will likely get the start in Bennett s absence.	33222514	1472748931900	1472748932073	=	187
63904	698701	Doug Chapman will likely get the start in Bennett s absence.	Doug Chapman will likely get the start in Bennett s absence.	33222517	1472748932229	1472748932325	b	66
63904	698701	Doug Chapman will likely get the start in Bennett s absence.	Doug Chapman will likely get the start in Bennett s absence.	33222519	1472748932356	1472748932445	 	32
63904	698701	Doug Chapman will likely get the start in Bennett s absence.	Doug Chapman will likely get the start in Bennett s absence.	33222869	1472748933603	1472748933737	BKSP	8
63904	698701	Doug Chapman will likely get the start in Bennett s absence.	Doug Chapman will likely get the start in Bennett s absence.	33222873	1472748933815	1472748933861	BKSP	8
63904	698701	Doug Chapman will likely get the start in Bennett s absence.	Doug Chapman will likely get the start in Bennett s absence.	33222877	1472748934017	1472748934077	BKSP	8
63904	698701	Doug Chapman will likely get the start in Bennett s absence.	Doug Chapman will likely get the start in Bennett s absence.	33222880	1472748934845	1472748934939	BKSP	8
63904	698701	Doug Chapman will likely get the start in Bennett s absence.	Doug Chapman will likely get the start in Bennett s absence.	33222884	1472748935600	1472748935739	b	66
63904	698701	Doug Chapman will likely get the start in Bennett s absence.	Doug Chapman will likely get the start in Bennett s absence.	33222889	1472748935895	1472748936038	s	83
63904	698701	Doug Chapman will likely get the start in Bennett s absence.	Doug Chapman will likely get the start in Bennett s absence.	33222894	1472748936148	1472748936273	e	69
63904	698701	Doug Chapman will likely get the start in Bennett s absence.	Doug Chapman will likely get the start in Bennett s absence.	33222901	1472748936382	1472748936492	n	78
63904	698701	Doug Chapman will likely get the start in Bennett s absence.	Doug Chapman will likely get the start in Bennett s absence.	33222907	1472748937980	1472748938106	c	67
63904	698701	Doug Chapman will likely get the start in Bennett s absence.	Doug Chapman will likely get the start in Bennett s absence.	33223287	1472748938106	1472748938242	e	69
63904	698701	Doug Chapman will likely get the start in Bennett s absence.	Doug Chapman will likely get the start in Bennett s absence.	33223290	1472748938712	1472748938788	.	190
63904	698765	Trust me, the men are the ones showing restraint.	Trust me, the men are the ones showing restraint.	33224598	1472748953903	1472748953997	CAPS_LOCK	20
63904	698765	Trust me, the men are the ones showing restraint.	Trust me, the men are the ones showing restraint.	33224604	1472748954563	1472748954653	T	84
63904	698765	Trust me, the men are the ones showing restraint.	Trust me, the men are the ones showing restraint.	33224611	1472748954732	1472748954857	CAPS_LOCK	20
63904	698765	Trust me, the men are the ones showing restraint.	Trust me, the men are the ones showing restraint.	33224620	1472748954888	1472748954986	r	82
63904	698765	Trust me, the men are the ones showing restraint.	Trust me, the men are the ones showing restraint.	33224624	1472748955330	1472748955421	u	85
63904	698765	Trust me, the men are the ones showing restraint.	Trust me, the men are the ones showing restraint.	33224627	1472748955499	1472748955647	s	83
63904	698765	Trust me, the men are the ones showing restraint.	Trust me, the men are the ones showing restraint.	33224631	1472748955647	1472748955734	t	84
63904	698765	Trust me, the men are the ones showing restraint.	Trust me, the men are the ones showing restraint.	33224749	1472748956017	1472748956105	 	32
63904	698765	Trust me, the men are the ones showing restraint.	Trust me, the men are the ones showing restraint.	33224756	1472748956245	1472748956385	m	77
63904	698765	Trust me, the men are the ones showing restraint.	Trust me, the men are the ones showing restraint.	33224765	1472748956416	1472748956552	e	69
63904	698765	Trust me, the men are the ones showing restraint.	Trust me, the men are the ones showing restraint.	33224774	1472748956583	1472748956672	 	32
63904	698765	Trust me, the men are the ones showing restraint.	Trust me, the men are the ones showing restraint.	33224778	1472748957094	1472748957185	,	188
63904	698765	Trust me, the men are the ones showing restraint.	Trust me, the men are the ones showing restraint.	33225117	1472748957813	1472748957901	BKSP	8
63904	698765	Trust me, the men are the ones showing restraint.	Trust me, the men are the ones showing restraint.	33225121	1472748958011	1472748958070	BKSP	8
63904	698765	Trust me, the men are the ones showing restraint.	Trust me, the men are the ones showing restraint.	33225131	1472748958133	1472748958200	BKSP	8
63904	698765	Trust me, the men are the ones showing restraint.	Trust me, the men are the ones showing restraint.	33225140	1472748959928	1472748960067	e	69
63904	698765	Trust me, the men are the ones showing restraint.	Trust me, the men are the ones showing restraint.	33225146	1472748960364	1472748960450	,	188
63904	698765	Trust me, the men are the ones showing restraint.	Trust me, the men are the ones showing restraint.	33225152	1472748960528	1472748960618	 	32
63904	698765	Trust me, the men are the ones showing restraint.	Trust me, the men are the ones showing restraint.	33225159	1472748960995	1472748961087	t	84
63904	698765	Trust me, the men are the ones showing restraint.	Trust me, the men are the ones showing restraint.	33225165	1472748961165	1472748961315	h	72
63904	698765	Trust me, the men are the ones showing restraint.	Trust me, the men are the ones showing restraint.	33225333	1472748961281	1472748961430	e	69
63904	698765	Trust me, the men are the ones showing restraint.	Trust me, the men are the ones showing restraint.	33225337	1472748961430	1472748961536	 	32
63904	698765	Trust me, the men are the ones showing restraint.	Trust me, the men are the ones showing restraint.	33225341	1472748962774	1472748962943	m	77
63904	698765	Trust me, the men are the ones showing restraint.	Trust me, the men are the ones showing restraint.	33225345	1472748963131	1472748963217	e	69
63904	698765	Trust me, the men are the ones showing restraint.	Trust me, the men are the ones showing restraint.	33225351	1472748963451	1472748963538	n	78
63904	698765	Trust me, the men are the ones showing restraint.	Trust me, the men are the ones showing restraint.	33225355	1472748963663	1472748963752	 	32
63904	698765	Trust me, the men are the ones showing restraint.	Trust me, the men are the ones showing restraint.	33225534	1472748964206	1472748964319	a	65
63904	698765	Trust me, the men are the ones showing restraint.	Trust me, the men are the ones showing restraint.	33225540	1472748964398	1472748964499	r	82
63904	698765	Trust me, the men are the ones showing restraint.	Trust me, the men are the ones showing restraint.	33225545	1472748964687	1472748964787	 	32
63904	698765	Trust me, the men are the ones showing restraint.	Trust me, the men are the ones showing restraint.	33225552	1472748965382	1472748965514	BKSP	8
63904	698765	Trust me, the men are the ones showing restraint.	Trust me, the men are the ones showing restraint.	33225558	1472748966065	1472748966197	e	69
63904	698765	Trust me, the men are the ones showing restraint.	Trust me, the men are the ones showing restraint.	33225564	1472748966229	1472748966317	 	32
63904	698765	Trust me, the men are the ones showing restraint.	Trust me, the men are the ones showing restraint.	33225628	1472748966365	1472748966448	t	84
63904	698765	Trust me, the men are the ones showing restraint.	Trust me, the men are the ones showing restraint.	33225634	1472748966526	1472748966636	h	72
63904	698765	Trust me, the men are the ones showing restraint.	Trust me, the men are the ones showing restraint.	33225643	1472748966714	1472748966816	e	69
63904	698765	Trust me, the men are the ones showing restraint.	Trust me, the men are the ones showing restraint.	33225652	1472748966862	1472748966952	 	32
63904	698765	Trust me, the men are the ones showing restraint.	Trust me, the men are the ones showing restraint.	33225661	1472748967140	1472748967266	o	79
63904	698765	Trust me, the men are the ones showing restraint.	Trust me, the men are the ones showing restraint.	33225730	1472748967376	1472748967484	n	78
63904	698765	Trust me, the men are the ones showing restraint.	Trust me, the men are the ones showing restraint.	33225739	1472748967594	1472748967685	e	69
63904	698765	Trust me, the men are the ones showing restraint.	Trust me, the men are the ones showing restraint.	33225748	1472748967794	1472748967948	s	83
63904	698765	Trust me, the men are the ones showing restraint.	Trust me, the men are the ones showing restraint.	33225758	1472748968026	1472748968118	 	32
63904	698765	Trust me, the men are the ones showing restraint.	Trust me, the men are the ones showing restraint.	33225765	1472748968306	1472748968417	s	83
63904	698765	Trust me, the men are the ones showing restraint.	Trust me, the men are the ones showing restraint.	33225874	1472748968543	1472748968651	h	72
63904	698765	Trust me, the men are the ones showing restraint.	Trust me, the men are the ones showing restraint.	33225876	1472748968839	1472748968919	o	79
63904	698765	Trust me, the men are the ones showing restraint.	Trust me, the men are the ones showing restraint.	33225878	1472748969420	1472748969551	w	87
63904	698765	Trust me, the men are the ones showing restraint.	Trust me, the men are the ones showing restraint.	33225881	1472748969551	1472748969638	i	73
63904	698765	Trust me, the men are the ones showing restraint.	Trust me, the men are the ones showing restraint.	33225884	1472748969778	1472748969866	n	78
63904	698765	Trust me, the men are the ones showing restraint.	Trust me, the men are the ones showing restraint.	33226033	1472748969945	1472748970083	g	71
63904	698765	Trust me, the men are the ones showing restraint.	Trust me, the men are the ones showing restraint.	33226037	1472748970083	1472748970171	 	32
63904	698765	Trust me, the men are the ones showing restraint.	Trust me, the men are the ones showing restraint.	33226045	1472748971470	1472748971616	r	82
63904	698765	Trust me, the men are the ones showing restraint.	Trust me, the men are the ones showing restraint.	33226052	1472748971663	1472748971828	e	69
63904	698765	Trust me, the men are the ones showing restraint.	Trust me, the men are the ones showing restraint.	33226064	1472748971938	1472748972099	s	83
63904	698765	Trust me, the men are the ones showing restraint.	Trust me, the men are the ones showing restraint.	33226327	1472748972147	1472748972233	t	84
63904	698765	Trust me, the men are the ones showing restraint.	Trust me, the men are the ones showing restraint.	33226336	1472748973082	1472748973202	BKSP	8
63904	698765	Trust me, the men are the ones showing restraint.	Trust me, the men are the ones showing restraint.	33226343	1472748974267	1472748974354	t	84
63904	698765	Trust me, the men are the ones showing restraint.	Trust me, the men are the ones showing restraint.	33226353	1472748974729	1472748974816	r	82
63904	698765	Trust me, the men are the ones showing restraint.	Trust me, the men are the ones showing restraint.	33226363	1472748974894	1472748975063	a	65
63904	698765	Trust me, the men are the ones showing restraint.	Trust me, the men are the ones showing restraint.	33226370	1472748975440	1472748975536	i	73
63904	698765	Trust me, the men are the ones showing restraint.	Trust me, the men are the ones showing restraint.	33226729	1472748975647	1472748975751	n	78
63904	698765	Trust me, the men are the ones showing restraint.	Trust me, the men are the ones showing restraint.	33226735	1472748975782	1472748975871	t	84
63904	698765	Trust me, the men are the ones showing restraint.	Trust me, the men are the ones showing restraint.	33226739	1472748976528	1472748976635	BKSP	8
63904	698765	Trust me, the men are the ones showing restraint.	Trust me, the men are the ones showing restraint.	33226745	1472748978233	1472748978321	t	84
63904	698765	Trust me, the men are the ones showing restraint.	Trust me, the men are the ones showing restraint.	33226753	1472748978431	1472748978516	,	188
63904	698765	Trust me, the men are the ones showing restraint.	Trust me, the men are the ones showing restraint.	33226758	1472748978969	1472748979069	BKSP	8
63904	698765	Trust me, the men are the ones showing restraint.	Trust me, the men are the ones showing restraint.	33226764	1472748979226	1472748979317	.	190
63904	698849	I think Tim wants to move quickly.	I think Tim wants to move quickly.	33228692	1472748991689	1472748991781	M	77
63904	698849	I think Tim wants to move quickly.	I think Tim wants to move quickly.	33228699	1472748992471	1472748992551	 	32
63904	698849	I think Tim wants to move quickly.	I think Tim wants to move quickly.	33228703	1472748993098	1472748993167	BKSP	8
63904	698849	I think Tim wants to move quickly.	I think Tim wants to move quickly.	33228708	1472748993233	1472748993327	BKSP	8
63904	698849	I think Tim wants to move quickly.	I think Tim wants to move quickly.	33228718	1472748993391	1472748993482	BKSP	8
63904	698849	I think Tim wants to move quickly.	I think Tim wants to move quickly.	33228195	1472748993494	1472748993619	CAPS_LOCK	20
63904	698849	I think Tim wants to move quickly.	I think Tim wants to move quickly.	33228198	1472748993729	1472748993847	I	73
63904	698849	I think Tim wants to move quickly.	I think Tim wants to move quickly.	33228726	1472748994141	1472748994313	CAPS_LOCK	20
63904	698849	I think Tim wants to move quickly.	I think Tim wants to move quickly.	33228203	1472748994191	1472748994320	CAPS_LOCK	20
63904	698849	I think Tim wants to move quickly.	I think Tim wants to move quickly.	33228737	1472748994313	1472748994401	i	73
63904	698849	I think Tim wants to move quickly.	I think Tim wants to move quickly.	33228745	1472748994510	1472748994597	m	77
63904	698849	I think Tim wants to move quickly.	I think Tim wants to move quickly.	33228208	1472748994617	1472748994751	 	32
63904	698849	I think Tim wants to move quickly.	I think Tim wants to move quickly.	33228788	1472748994677	1472748994779	 	32
63904	698849	I think Tim wants to move quickly.	I think Tim wants to move quickly.	33228212	1472748994860	1472748994952	t	84
63904	698849	I think Tim wants to move quickly.	I think Tim wants to move quickly.	33228794	1472748994919	1472748995031	w	87
63904	698849	I think Tim wants to move quickly.	I think Tim wants to move quickly.	33228217	1472748995030	1472748995096	h	72
63904	698849	I think Tim wants to move quickly.	I think Tim wants to move quickly.	33228804	1472748995172	1472748995314	a	65
63904	698849	I think Tim wants to move quickly.	I think Tim wants to move quickly.	33228223	1472748995209	1472748995347	i	73
63904	698849	I think Tim wants to move quickly.	I think Tim wants to move quickly.	33228814	1472748995345	1472748995477	n	78
63904	698849	I think Tim wants to move quickly.	I think Tim wants to move quickly.	33228423	1472748995457	1472748995550	n	78
63904	698849	I think Tim wants to move quickly.	I think Tim wants to move quickly.	33228820	1472748995539	1472748995601	t	84
63904	698849	I think Tim wants to move quickly.	I think Tim wants to move quickly.	33228429	1472748995894	1472748995983	k	75
63904	698849	I think Tim wants to move quickly.	I think Tim wants to move quickly.	33228437	1472748996046	1472748996181	 	32
63904	698849	I think Tim wants to move quickly.	I think Tim wants to move quickly.	33228442	1472748996399	1472748996543	t	84
63904	698849	I think Tim wants to move quickly.	I think Tim wants to move quickly.	33228446	1472748996982	1472748997053	BKSP	8
63904	698849	I think Tim wants to move quickly.	I think Tim wants to move quickly.	33229032	1472748997028	1472748997175	s	83
63904	698849	I think Tim wants to move quickly.	I think Tim wants to move quickly.	33229037	1472748997206	1472748997298	 	32
63904	698849	I think Tim wants to move quickly.	I think Tim wants to move quickly.	33228453	1472748997272	1472748997397	CAPS_LOCK	20
63904	698849	I think Tim wants to move quickly.	I think Tim wants to move quickly.	33229042	1472748997407	1472748997546	t	84
63904	698849	I think Tim wants to move quickly.	I think Tim wants to move quickly.	33229053	1472748997656	1472748997764	o	79
63904	698849	I think Tim wants to move quickly.	I think Tim wants to move quickly.	33228460	1472748997758	1472748997850	T	84
63904	698849	I think Tim wants to move quickly.	I think Tim wants to move quickly.	33229061	1472748997906	1472748997998	 	32
63904	698849	I think Tim wants to move quickly.	I think Tim wants to move quickly.	33228687	1472748997929	1472748998016	I	73
63904	698849	I think Tim wants to move quickly.	I think Tim wants to move quickly.	33229168	1472748998187	1472748998281	m	77
63904	698849	I think Tim wants to move quickly.	I think Tim wants to move quickly.	33229175	1472748998390	1472748998484	o	79
63904	698849	I think Tim wants to move quickly.	I think Tim wants to move quickly.	33229179	1472748998963	1472748999006	v	86
63904	698849	I think Tim wants to move quickly.	I think Tim wants to move quickly.	33229181	1472748999080	1472748999168	e	69
63904	698849	I think Tim wants to move quickly.	I think Tim wants to move quickly.	33229187	1472748999199	1472748999300	 	32
63904	698849	I think Tim wants to move quickly.	I think Tim wants to move quickly.	33229383	1472749000206	1472749000347	q	81
63904	698849	I think Tim wants to move quickly.	I think Tim wants to move quickly.	33229387	1472749000488	1472749000583	u	85
63904	698849	I think Tim wants to move quickly.	I think Tim wants to move quickly.	33229392	1472749000771	1472749000881	i	73
63904	698849	I think Tim wants to move quickly.	I think Tim wants to move quickly.	33229398	1472749001256	1472749001379	c	67
63904	698849	I think Tim wants to move quickly.	I think Tim wants to move quickly.	33229404	1472749001489	1472749001598	k	75
63904	698849	I think Tim wants to move quickly.	I think Tim wants to move quickly.	33229840	1472749001911	1472749001975	l	76
63904	698849	I think Tim wants to move quickly.	I think Tim wants to move quickly.	33229845	1472749002079	1472749002168	y	89
63904	698849	I think Tim wants to move quickly.	I think Tim wants to move quickly.	33229849	1472749003436	1472749003531	.	190
63904	698913	Two RAF Hercules transport planes airlifted foreign evacuees.	Two RAF Hercules transport planes airlifted foreign evacuees.	33230494	1472749011848	1472749011973	CAPS_LOCK	20
63904	698913	Two RAF Hercules transport planes airlifted foreign evacuees.	Two RAF Hercules transport planes airlifted foreign evacuees.	33230502	1472749012051	1472749012179	T	84
63904	698913	Two RAF Hercules transport planes airlifted foreign evacuees.	Two RAF Hercules transport planes airlifted foreign evacuees.	33230512	1472749012445	1472749012570	CAPS_LOCK	20
63904	698913	Two RAF Hercules transport planes airlifted foreign evacuees.	Two RAF Hercules transport planes airlifted foreign evacuees.	33230519	1472749012743	1472749012829	e	69
63904	698913	Two RAF Hercules transport planes airlifted foreign evacuees.	Two RAF Hercules transport planes airlifted foreign evacuees.	33230528	1472749013600	1472749013728	BKSP	8
63904	698913	Two RAF Hercules transport planes airlifted foreign evacuees.	Two RAF Hercules transport planes airlifted foreign evacuees.	33230538	1472749013837	1472749013933	w	87
63904	698913	Two RAF Hercules transport planes airlifted foreign evacuees.	Two RAF Hercules transport planes airlifted foreign evacuees.	33230545	1472749013980	1472749014067	o	79
63904	698913	Two RAF Hercules transport planes airlifted foreign evacuees.	Two RAF Hercules transport planes airlifted foreign evacuees.	33230557	1472749014207	1472749014314	 	32
63904	698913	Two RAF Hercules transport planes airlifted foreign evacuees.	Two RAF Hercules transport planes airlifted foreign evacuees.	33231017	1472749015459	1472749015569	CAPS_LOCK	20
63904	698913	Two RAF Hercules transport planes airlifted foreign evacuees.	Two RAF Hercules transport planes airlifted foreign evacuees.	33231019	1472749016039	1472749016162	R	82
63904	698913	Two RAF Hercules transport planes airlifted foreign evacuees.	Two RAF Hercules transport planes airlifted foreign evacuees.	33231023	1472749016194	1472749016340	A	65
63904	698913	Two RAF Hercules transport planes airlifted foreign evacuees.	Two RAF Hercules transport planes airlifted foreign evacuees.	33231026	1472749016606	1472749016697	F	70
63904	698913	Two RAF Hercules transport planes airlifted foreign evacuees.	Two RAF Hercules transport planes airlifted foreign evacuees.	33231031	1472749016901	1472749017026	CAPS_LOCK	20
63904	698913	Two RAF Hercules transport planes airlifted foreign evacuees.	Two RAF Hercules transport planes airlifted foreign evacuees.	33231036	1472749017151	1472749017232	 	32
63904	698913	Two RAF Hercules transport planes airlifted foreign evacuees.	Two RAF Hercules transport planes airlifted foreign evacuees.	33231045	1472749019678	1472749019865	CAPS_LOCK	20
63904	698913	Two RAF Hercules transport planes airlifted foreign evacuees.	Two RAF Hercules transport planes airlifted foreign evacuees.	33231053	1472749019928	1472749020017	H	72
63904	698913	Two RAF Hercules transport planes airlifted foreign evacuees.	Two RAF Hercules transport planes airlifted foreign evacuees.	33231334	1472749020204	1472749020329	CAPS_LOCK	20
63904	698913	Two RAF Hercules transport planes airlifted foreign evacuees.	Two RAF Hercules transport planes airlifted foreign evacuees.	33231343	1472749020454	1472749020547	e	69
63904	698913	Two RAF Hercules transport planes airlifted foreign evacuees.	Two RAF Hercules transport planes airlifted foreign evacuees.	33231351	1472749020688	1472749020767	r	82
63904	698913	Two RAF Hercules transport planes airlifted foreign evacuees.	Two RAF Hercules transport planes airlifted foreign evacuees.	33231355	1472749021925	1472749022092	c	67
63904	698913	Two RAF Hercules transport planes airlifted foreign evacuees.	Two RAF Hercules transport planes airlifted foreign evacuees.	33231363	1472749022326	1472749022428	u	85
63904	698913	Two RAF Hercules transport planes airlifted foreign evacuees.	Two RAF Hercules transport planes airlifted foreign evacuees.	33231370	1472749022820	1472749022947	l	76
63904	698913	Two RAF Hercules transport planes airlifted foreign evacuees.	Two RAF Hercules transport planes airlifted foreign evacuees.	33231646	1472749023728	1472749023895	s	83
63904	698913	Two RAF Hercules transport planes airlifted foreign evacuees.	Two RAF Hercules transport planes airlifted foreign evacuees.	33231652	1472749024598	1472749024681	BKSP	8
63904	698913	Two RAF Hercules transport planes airlifted foreign evacuees.	Two RAF Hercules transport planes airlifted foreign evacuees.	33231659	1472749024947	1472749025079	e	69
63904	698913	Two RAF Hercules transport planes airlifted foreign evacuees.	Two RAF Hercules transport planes airlifted foreign evacuees.	33231666	1472749025267	1472749025411	s	83
63904	698913	Two RAF Hercules transport planes airlifted foreign evacuees.	Two RAF Hercules transport planes airlifted foreign evacuees.	33231671	1472749025411	1472749025511	 	32
63904	698913	Two RAF Hercules transport planes airlifted foreign evacuees.	Two RAF Hercules transport planes airlifted foreign evacuees.	33231675	1472749026173	1472749026295	t	84
63904	698913	Two RAF Hercules transport planes airlifted foreign evacuees.	Two RAF Hercules transport planes airlifted foreign evacuees.	33231775	1472749026421	1472749026500	r	82
63904	698913	Two RAF Hercules transport planes airlifted foreign evacuees.	Two RAF Hercules transport planes airlifted foreign evacuees.	33231783	1472749026922	1472749027014	n	78
63904	698913	Two RAF Hercules transport planes airlifted foreign evacuees.	Two RAF Hercules transport planes airlifted foreign evacuees.	33231791	1472749027014	1472749027162	a	65
63904	698913	Two RAF Hercules transport planes airlifted foreign evacuees.	Two RAF Hercules transport planes airlifted foreign evacuees.	33231800	1472749027272	1472749027364	s	83
63904	698913	Two RAF Hercules transport planes airlifted foreign evacuees.	Two RAF Hercules transport planes airlifted foreign evacuees.	33231810	1472749027707	1472749027797	p	80
63904	698913	Two RAF Hercules transport planes airlifted foreign evacuees.	Two RAF Hercules transport planes airlifted foreign evacuees.	33232076	1472749027906	1472749027997	o	79
63904	698913	Two RAF Hercules transport planes airlifted foreign evacuees.	Two RAF Hercules transport planes airlifted foreign evacuees.	33232083	1472749028107	1472749028198	r	82
63904	698913	Two RAF Hercules transport planes airlifted foreign evacuees.	Two RAF Hercules transport planes airlifted foreign evacuees.	33232094	1472749028341	1472749028430	t	84
63904	698913	Two RAF Hercules transport planes airlifted foreign evacuees.	Two RAF Hercules transport planes airlifted foreign evacuees.	33232102	1472749028461	1472749028550	 	32
63904	698913	Two RAF Hercules transport planes airlifted foreign evacuees.	Two RAF Hercules transport planes airlifted foreign evacuees.	33232111	1472749029206	1472749029298	BKSP	8
63904	698913	Two RAF Hercules transport planes airlifted foreign evacuees.	Two RAF Hercules transport planes airlifted foreign evacuees.	33232120	1472749029376	1472749029461	BKSP	8
63904	698913	Two RAF Hercules transport planes airlifted foreign evacuees.	Two RAF Hercules transport planes airlifted foreign evacuees.	33232130	1472749029539	1472749029673	BKSP	8
63904	698913	Two RAF Hercules transport planes airlifted foreign evacuees.	Two RAF Hercules transport planes airlifted foreign evacuees.	33232133	1472749029736	1472749029831	BKSP	8
63904	698913	Two RAF Hercules transport planes airlifted foreign evacuees.	Two RAF Hercules transport planes airlifted foreign evacuees.	33232137	1472749029878	1472749029966	BKSP	8
63904	698913	Two RAF Hercules transport planes airlifted foreign evacuees.	Two RAF Hercules transport planes airlifted foreign evacuees.	33232142	1472749030044	1472749030104	BKSP	8
63904	698913	Two RAF Hercules transport planes airlifted foreign evacuees.	Two RAF Hercules transport planes airlifted foreign evacuees.	33232148	1472749030175	1472749030266	BKSP	8
63904	698913	Two RAF Hercules transport planes airlifted foreign evacuees.	Two RAF Hercules transport planes airlifted foreign evacuees.	33232152	1472749030344	1472749030444	BKSP	8
63904	698913	Two RAF Hercules transport planes airlifted foreign evacuees.	Two RAF Hercules transport planes airlifted foreign evacuees.	33232159	1472749031230	1472749031425	a	65
63904	698913	Two RAF Hercules transport planes airlifted foreign evacuees.	Two RAF Hercules transport planes airlifted foreign evacuees.	33232366	1472749031520	1472749031644	n	78
63904	698913	Two RAF Hercules transport planes airlifted foreign evacuees.	Two RAF Hercules transport planes airlifted foreign evacuees.	33232372	1472749031800	1472749031959	s	83
63904	698913	Two RAF Hercules transport planes airlifted foreign evacuees.	Two RAF Hercules transport planes airlifted foreign evacuees.	33232384	1472749032069	1472749032165	p	80
63904	698913	Two RAF Hercules transport planes airlifted foreign evacuees.	Two RAF Hercules transport planes airlifted foreign evacuees.	33232391	1472749033779	1472749033912	r	82
63904	698913	Two RAF Hercules transport planes airlifted foreign evacuees.	Two RAF Hercules transport planes airlifted foreign evacuees.	33232397	1472749033944	1472749034032	t	84
63904	698913	Two RAF Hercules transport planes airlifted foreign evacuees.	Two RAF Hercules transport planes airlifted foreign evacuees.	33232741	1472749034751	1472749034878	BKSP	8
63904	698913	Two RAF Hercules transport planes airlifted foreign evacuees.	Two RAF Hercules transport planes airlifted foreign evacuees.	33232743	1472749034956	1472749035047	BKSP	8
63904	698913	Two RAF Hercules transport planes airlifted foreign evacuees.	Two RAF Hercules transport planes airlifted foreign evacuees.	33232746	1472749035628	1472749035757	o	79
63904	698913	Two RAF Hercules transport planes airlifted foreign evacuees.	Two RAF Hercules transport planes airlifted foreign evacuees.	33232752	1472749036195	1472749036266	r	82
63904	698913	Two RAF Hercules transport planes airlifted foreign evacuees.	Two RAF Hercules transport planes airlifted foreign evacuees.	33232756	1472749036375	1472749036509	t	84
63904	698913	Two RAF Hercules transport planes airlifted foreign evacuees.	Two RAF Hercules transport planes airlifted foreign evacuees.	33232760	1472749036509	1472749036611	 	32
63904	698913	Two RAF Hercules transport planes airlifted foreign evacuees.	Two RAF Hercules transport planes airlifted foreign evacuees.	33232764	1472749037664	1472749037794	p	80
63904	698913	Two RAF Hercules transport planes airlifted foreign evacuees.	Two RAF Hercules transport planes airlifted foreign evacuees.	33232904	1472749038343	1472749038444	l	76
63904	698913	Two RAF Hercules transport planes airlifted foreign evacuees.	Two RAF Hercules transport planes airlifted foreign evacuees.	33232907	1472749038553	1472749038680	a	65
63904	698913	Two RAF Hercules transport planes airlifted foreign evacuees.	Two RAF Hercules transport planes airlifted foreign evacuees.	33232913	1472749039149	1472749039230	n	78
63904	698913	Two RAF Hercules transport planes airlifted foreign evacuees.	Two RAF Hercules transport planes airlifted foreign evacuees.	33232921	1472749039339	1472749039432	e	69
63904	698913	Two RAF Hercules transport planes airlifted foreign evacuees.	Two RAF Hercules transport planes airlifted foreign evacuees.	33232935	1472749039588	1472749039727	s	83
63904	698913	Two RAF Hercules transport planes airlifted foreign evacuees.	Two RAF Hercules transport planes airlifted foreign evacuees.	33233373	1472749039727	1472749039816	 	32
63904	698913	Two RAF Hercules transport planes airlifted foreign evacuees.	Two RAF Hercules transport planes airlifted foreign evacuees.	33233377	1472749040676	1472749040821	a	65
63904	698913	Two RAF Hercules transport planes airlifted foreign evacuees.	Two RAF Hercules transport planes airlifted foreign evacuees.	33233381	1472749041149	1472749041247	i	73
63904	698913	Two RAF Hercules transport planes airlifted foreign evacuees.	Two RAF Hercules transport planes airlifted foreign evacuees.	33233387	1472749041466	1472749041560	l	76
63904	698913	Two RAF Hercules transport planes airlifted foreign evacuees.	Two RAF Hercules transport planes airlifted foreign evacuees.	33233396	1472749042724	1472749042830	BKSP	8
63904	698913	Two RAF Hercules transport planes airlifted foreign evacuees.	Two RAF Hercules transport planes airlifted foreign evacuees.	33233400	1472749043519	1472749043656	r	82
63904	698913	Two RAF Hercules transport planes airlifted foreign evacuees.	Two RAF Hercules transport planes airlifted foreign evacuees.	33233478	1472749043704	1472749043827	l	76
63904	698913	Two RAF Hercules transport planes airlifted foreign evacuees.	Two RAF Hercules transport planes airlifted foreign evacuees.	33233486	1472749043952	1472749044077	i	73
63904	698913	Two RAF Hercules transport planes airlifted foreign evacuees.	Two RAF Hercules transport planes airlifted foreign evacuees.	33233492	1472749044281	1472749044396	f	70
63904	698913	Two RAF Hercules transport planes airlifted foreign evacuees.	Two RAF Hercules transport planes airlifted foreign evacuees.	33233497	1472749044443	1472749044543	t	84
63904	698913	Two RAF Hercules transport planes airlifted foreign evacuees.	Two RAF Hercules transport planes airlifted foreign evacuees.	33233504	1472749044621	1472749044756	e	69
63904	698913	Two RAF Hercules transport planes airlifted foreign evacuees.	Two RAF Hercules transport planes airlifted foreign evacuees.	33233651	1472749044882	1472749045012	d	68
63904	698913	Two RAF Hercules transport planes airlifted foreign evacuees.	Two RAF Hercules transport planes airlifted foreign evacuees.	33233657	1472749045012	1472749045114	 	32
63904	698913	Two RAF Hercules transport planes airlifted foreign evacuees.	Two RAF Hercules transport planes airlifted foreign evacuees.	33234409	1472749045392	1472749045485	 	32
63904	698913	Two RAF Hercules transport planes airlifted foreign evacuees.	Two RAF Hercules transport planes airlifted foreign evacuees.	33233665	1472749046037	1472749046207	f	70
63904	698913	Two RAF Hercules transport planes airlifted foreign evacuees.	Two RAF Hercules transport planes airlifted foreign evacuees.	33234414	1472749046095	1472749046233	e	69
63904	698913	Two RAF Hercules transport planes airlifted foreign evacuees.	Two RAF Hercules transport planes airlifted foreign evacuees.	33233675	1472749046270	1472749046379	o	79
63904	698913	Two RAF Hercules transport planes airlifted foreign evacuees.	Two RAF Hercules transport planes airlifted foreign evacuees.	33234423	1472749046421	1472749046502	v	86
63904	698913	Two RAF Hercules transport planes airlifted foreign evacuees.	Two RAF Hercules transport planes airlifted foreign evacuees.	33233685	1472749046504	1472749046679	r	82
63904	698913	Two RAF Hercules transport planes airlifted foreign evacuees.	Two RAF Hercules transport planes airlifted foreign evacuees.	33234432	1472749047488	1472749047696	a	65
63904	698913	Two RAF Hercules transport planes airlifted foreign evacuees.	Two RAF Hercules transport planes airlifted foreign evacuees.	33234163	1472749047615	1472749047744	g	71
63904	698913	Two RAF Hercules transport planes airlifted foreign evacuees.	Two RAF Hercules transport planes airlifted foreign evacuees.	33234439	1472749047852	1472749047947	n	78
63904	698913	Two RAF Hercules transport planes airlifted foreign evacuees.	Two RAF Hercules transport planes airlifted foreign evacuees.	33234170	1472749048261	1472749048380	BKSP	8
63904	698913	Two RAF Hercules transport planes airlifted foreign evacuees.	Two RAF Hercules transport planes airlifted foreign evacuees.	33234702	1472749050146	1472749050251	c	67
63904	698913	Two RAF Hercules transport planes airlifted foreign evacuees.	Two RAF Hercules transport planes airlifted foreign evacuees.	33234711	1472749050313	1472749050446	u	85
63904	698913	Two RAF Hercules transport planes airlifted foreign evacuees.	Two RAF Hercules transport planes airlifted foreign evacuees.	33234725	1472749050524	1472749050649	e	69
63904	698913	Two RAF Hercules transport planes airlifted foreign evacuees.	Two RAF Hercules transport planes airlifted foreign evacuees.	33234176	1472749050572	1472749050662	e	69
63904	698913	Two RAF Hercules transport planes airlifted foreign evacuees.	Two RAF Hercules transport planes airlifted foreign evacuees.	33234180	1472749050662	1472749050827	i	73
63904	698913	Two RAF Hercules transport planes airlifted foreign evacuees.	Two RAF Hercules transport planes airlifted foreign evacuees.	33234732	1472749050727	1472749050818	e	69
63904	698913	Two RAF Hercules transport planes airlifted foreign evacuees.	Two RAF Hercules transport planes airlifted foreign evacuees.	33234185	1472749050968	1472749051065	g	71
63904	698913	Two RAF Hercules transport planes airlifted foreign evacuees.	Two RAF Hercules transport planes airlifted foreign evacuees.	33234742	1472749050974	1472749051099	s	83
63904	698913	Two RAF Hercules transport planes airlifted foreign evacuees.	Two RAF Hercules transport planes airlifted foreign evacuees.	33234192	1472749051112	1472749051198	n	78
63904	698913	Two RAF Hercules transport planes airlifted foreign evacuees.	Two RAF Hercules transport planes airlifted foreign evacuees.	33236210	1472749052243	1472749052303	.	190
63904	698913	Two RAF Hercules transport planes airlifted foreign evacuees.	Two RAF Hercules transport planes airlifted foreign evacuees.	33236218	1472749058802	1472749058917	BKSP	8
63904	699040	Giants, but he didn't finish it.	Giants, but he didn't finish it.	33237273	1472749073016	1472749073173	CAPS_LOCK	20
63904	699040	Giants, but he didn't finish it.	Giants, but he didn't finish it.	33237279	1472749073503	1472749073599	G	71
63904	699040	Giants, but he didn't finish it.	Giants, but he didn't finish it.	33237283	1472749073974	1472749074164	CAPS_LOCK	20
63904	699040	Giants, but he didn't finish it.	Giants, but he didn't finish it.	33237287	1472749075042	1472749075164	i	73
63904	699040	Giants, but he didn't finish it.	Giants, but he didn't finish it.	33237293	1472749075320	1472749075448	a	65
63904	699040	Giants, but he didn't finish it.	Giants, but he didn't finish it.	33237299	1472749075464	1472749075584	n	78
63904	699040	Giants, but he didn't finish it.	Giants, but he didn't finish it.	33237309	1472749075724	1472749075864	t	84
63904	699040	Giants, but he didn't finish it.	Giants, but he didn't finish it.	33237503	1472749076099	1472749076243	s	83
63904	699040	Giants, but he didn't finish it.	Giants, but he didn't finish it.	33237508	1472749076970	1472749077053	,	188
63904	699040	Giants, but he didn't finish it.	Giants, but he didn't finish it.	33237517	1472749077474	1472749077567	 	32
63904	699040	Giants, but he didn't finish it.	Giants, but he didn't finish it.	33237526	1472749077755	1472749077834	b	66
63904	699040	Giants, but he didn't finish it.	Giants, but he didn't finish it.	33237535	1472749078021	1472749078103	u	85
63904	699040	Giants, but he didn't finish it.	Giants, but he didn't finish it.	33237581	1472749078198	1472749078286	t	84
63904	699040	Giants, but he didn't finish it.	Giants, but he didn't finish it.	33237586	1472749078364	1472749078427	 	32
63904	699040	Giants, but he didn't finish it.	Giants, but he didn't finish it.	33237597	1472749078672	1472749078736	h	72
63904	699040	Giants, but he didn't finish it.	Giants, but he didn't finish it.	33237607	1472749078845	1472749078932	e	69
63904	699040	Giants, but he didn't finish it.	Giants, but he didn't finish it.	33237613	1472749078979	1472749079065	 	32
63904	699040	Giants, but he didn't finish it.	Giants, but he didn't finish it.	33237662	1472749079144	1472749079264	d	68
63904	699040	Giants, but he didn't finish it.	Giants, but he didn't finish it.	33237667	1472749079311	1472749079400	i	73
63904	699040	Giants, but he didn't finish it.	Giants, but he didn't finish it.	33237673	1472749079556	1472749079636	d	68
63904	699040	Giants, but he didn't finish it.	Giants, but he didn't finish it.	33237680	1472749079761	1472749079851	n	78
63904	699040	Giants, but he didn't finish it.	Giants, but he didn't finish it.	33237687	1472749079898	1472749079986	t	84
63904	699040	Giants, but he didn't finish it.	Giants, but he didn't finish it.	33237843	1472749080034	1472749080136	 	32
63904	699040	Giants, but he didn't finish it.	Giants, but he didn't finish it.	33237848	1472749081073	1472749081166	f	70
63904	699040	Giants, but he didn't finish it.	Giants, but he didn't finish it.	33237856	1472749081275	1472749081413	i	73
63904	699040	Giants, but he didn't finish it.	Giants, but he didn't finish it.	33237860	1472749081819	1472749081966	n	78
63904	699040	Giants, but he didn't finish it.	Giants, but he didn't finish it.	33237867	1472749082075	1472749082197	i	73
63904	699040	Giants, but he didn't finish it.	Giants, but he didn't finish it.	33237952	1472749082244	1472749082396	s	83
63904	699040	Giants, but he didn't finish it.	Giants, but he didn't finish it.	33237959	1472749082459	1472749082553	h	72
63904	699040	Giants, but he didn't finish it.	Giants, but he didn't finish it.	33237964	1472749082740	1472749082846	 	32
63904	699040	Giants, but he didn't finish it.	Giants, but he didn't finish it.	33237974	1472749082956	1472749083081	i	73
63904	699040	Giants, but he didn't finish it.	Giants, but he didn't finish it.	33237984	1472749083238	1472749083336	t	84
63904	699040	Giants, but he didn't finish it.	Giants, but he didn't finish it.	33238582	1472749083525	1472749083591	.	190
63904	699040	Giants, but he didn't finish it.	Giants, but he didn't finish it.	33238588	1472749086556	1472749086651	'	222
