PARTICIPANT_ID	TEST_SECTION_ID	SENTENCE	USER_INPUT	KEYSTROKE_ID	PRESS_TIME	RELEASE_TIME	LETTER	KEYCODE
66961	729272	I hope he is having a fantastic time.	I hope he is having a fantastic time.	34642474	1472784900412	1472784900536	CAPS_LOCK	20
66961	729272	I hope he is having a fantastic time.	I hope he is having a fantastic time.	34642476	1472784900533	1472784900675	I	73
66961	729272	I hope he is having a fantastic time.	I hope he is having a fantastic time.	34642478	1472784900603	1472784900708	CAPS_LOCK	20
66961	729272	I hope he is having a fantastic time.	I hope he is having a fantastic time.	34642480	1472784900692	1472784900795	 	32
66961	729272	I hope he is having a fantastic time.	I hope he is having a fantastic time.	34642482	1472784901180	1472784901283	h	72
66961	729272	I hope he is having a fantastic time.	I hope he is having a fantastic time.	34642486	1472784901587	1472784901635	o	79
66961	729272	I hope he is having a fantastic time.	I hope he is having a fantastic time.	34642490	1472784901707	1472784901787	p	80
66961	729272	I hope he is having a fantastic time.	I hope he is having a fantastic time.	34642550	1472784901803	1472784901915	e	69
66961	729272	I hope he is having a fantastic time.	I hope he is having a fantastic time.	34642552	1472784901907	1472784901995	 	32
66961	729272	I hope he is having a fantastic time.	I hope he is having a fantastic time.	34642555	1472784902427	1472784902515	j	74
66961	729272	I hope he is having a fantastic time.	I hope he is having a fantastic time.	34642556	1472784902516	1472784902611	e	69
66961	729272	I hope he is having a fantastic time.	I hope he is having a fantastic time.	34642559	1472784902803	1472784902875	BKSP	8
66961	729272	I hope he is having a fantastic time.	I hope he is having a fantastic time.	34642562	1472784902931	1472784902995	BKSP	8
66961	729272	I hope he is having a fantastic time.	I hope he is having a fantastic time.	34642568	1472784903155	1472784903283	h	72
66961	729272	I hope he is having a fantastic time.	I hope he is having a fantastic time.	34642630	1472784903235	1472784903331	e	69
66961	729272	I hope he is having a fantastic time.	I hope he is having a fantastic time.	34642633	1472784903315	1472784903403	 	32
66961	729272	I hope he is having a fantastic time.	I hope he is having a fantastic time.	34642636	1472784903483	1472784903571	i	73
66961	729272	I hope he is having a fantastic time.	I hope he is having a fantastic time.	34642640	1472784903563	1472784903651	s	83
66961	729272	I hope he is having a fantastic time.	I hope he is having a fantastic time.	34642643	1472784903675	1472784903755	 	32
66961	729272	I hope he is having a fantastic time.	I hope he is having a fantastic time.	34642646	1472784905139	1472784905219	h	72
66961	729272	I hope he is having a fantastic time.	I hope he is having a fantastic time.	34642669	1472784905227	1472784905339	a	65
66961	729272	I hope he is having a fantastic time.	I hope he is having a fantastic time.	34642672	1472784905571	1472784905700	v	86
66961	729272	I hope he is having a fantastic time.	I hope he is having a fantastic time.	34642675	1472784905667	1472784905811	i	73
66961	729272	I hope he is having a fantastic time.	I hope he is having a fantastic time.	34642677	1472784905891	1472784906043	n	78
66961	729272	I hope he is having a fantastic time.	I hope he is having a fantastic time.	34642679	1472784906283	1472784906339	 	32
66961	729272	I hope he is having a fantastic time.	I hope he is having a fantastic time.	34642729	1472784906587	1472784906667	BKSP	8
66961	729272	I hope he is having a fantastic time.	I hope he is having a fantastic time.	34642730	1472784906731	1472784906787	f	70
66961	729272	I hope he is having a fantastic time.	I hope he is having a fantastic time.	34642731	1472784906795	1472784906867	 	32
66961	729272	I hope he is having a fantastic time.	I hope he is having a fantastic time.	34642732	1472784907243	1472784907316	BKSP	8
66961	729272	I hope he is having a fantastic time.	I hope he is having a fantastic time.	34642733	1472784907363	1472784907443	BKSP	8
66961	729272	I hope he is having a fantastic time.	I hope he is having a fantastic time.	34642734	1472784907923	1472784908043	g	71
66961	729272	I hope he is having a fantastic time.	I hope he is having a fantastic time.	34642751	1472784908011	1472784908083	a	32
66961	729272	I hope he is having a fantastic time.	I hope he is having a fantastic time.	34642752	1472784908283	1472784908339	 	32
66961	729272	I hope he is having a fantastic time.	I hope he is having a fantastic time.	34642754	1472784908468	1472784908595	f	70
66961	729272	I hope he is having a fantastic time.	I hope he is having a fantastic time.	34642756	1472784908540	1472784908659	a	65
66961	729272	I hope he is having a fantastic time.	I hope he is having a fantastic time.	34642759	1472784908915	1472784908995	n	78
66961	729272	I hope he is having a fantastic time.	I hope he is having a fantastic time.	34642763	1472784909083	1472784909195	t	84
66961	729272	I hope he is having a fantastic time.	I hope he is having a fantastic time.	34642795	1472784909179	1472784909275	a	65
66961	729272	I hope he is having a fantastic time.	I hope he is having a fantastic time.	34642796	1472784909355	1472784909483	s	83
66961	729272	I hope he is having a fantastic time.	I hope he is having a fantastic time.	34642798	1472784909547	1472784909635	t	84
66961	729272	I hope he is having a fantastic time.	I hope he is having a fantastic time.	34642799	1472784910099	1472784910195	i	73
66961	729272	I hope he is having a fantastic time.	I hope he is having a fantastic time.	34642801	1472784910323	1472784910445	c	67
66961	729272	I hope he is having a fantastic time.	I hope he is having a fantastic time.	34642827	1472784910411	1472784910483	 	32
66961	729272	I hope he is having a fantastic time.	I hope he is having a fantastic time.	34642830	1472784910923	1472784911035	t	84
66961	729272	I hope he is having a fantastic time.	I hope he is having a fantastic time.	34642835	1472784911243	1472784911307	i	73
66961	729272	I hope he is having a fantastic time.	I hope he is having a fantastic time.	34642838	1472784911451	1472784911531	m	188
66961	729272	I hope he is having a fantastic time.	I hope he is having a fantastic time.	34642892	1472784911523	1472784911603	e	69
66961	729272	I hope he is having a fantastic time.	I hope he is having a fantastic time.	34642893	1472784911891	1472784911947	BKSP	8
66961	729272	I hope he is having a fantastic time.	I hope he is having a fantastic time.	34642895	1472784912003	1472784912075	BKSP	8
66961	729272	I hope he is having a fantastic time.	I hope he is having a fantastic time.	34642897	1472784912123	1472784912179	BKSP	8
66961	729272	I hope he is having a fantastic time.	I hope he is having a fantastic time.	34642899	1472784912740	1472784912787	m	77
66961	729272	I hope he is having a fantastic time.	I hope he is having a fantastic time.	34642901	1472784912819	1472784912915	e	69
66961	729272	I hope he is having a fantastic time.	I hope he is having a fantastic time.	34642902	1472784913147	1472784913227	.	190
66961	729281	Just thought you oughta know.	Just though you oughta know.	34643016	1472784916683	1472784916795	CAPS_LOCK	20
66961	729281	Just thought you oughta know.	Just though you oughta know.	34643017	1472784916763	1472784916851	J	74
66961	729281	Just thought you oughta know.	Just though you oughta know.	34643018	1472784916843	1472784916955	CAPS_LOCK	20
66961	729281	Just thought you oughta know.	Just though you oughta know.	34643019	1472784916955	1472784917043	u	85
66961	729281	Just thought you oughta know.	Just though you oughta know.	34643021	1472784917339	1472784917491	s	83
66961	729281	Just thought you oughta know.	Just though you oughta know.	34643024	1472784917587	1472784917675	t	84
66961	729281	Just thought you oughta know.	Just though you oughta know.	34643027	1472784917728	1472784917812	 	32
66961	729281	Just thought you oughta know.	Just though you oughta know.	34643066	1472784918011	1472784918099	t	84
66961	729281	Just thought you oughta know.	Just though you oughta know.	34643072	1472784918091	1472784918203	h	72
66961	729281	Just thought you oughta know.	Just though you oughta know.	34643077	1472784918499	1472784918635	o	79
66961	729281	Just thought you oughta know.	Just though you oughta know.	34643078	1472784918723	1472784918796	u	85
66961	729281	Just thought you oughta know.	Just though you oughta know.	34643079	1472784918883	1472784918955	g	71
66961	729281	Just thought you oughta know.	Just though you oughta know.	34643095	1472784918963	1472784919043	h	72
66961	729281	Just thought you oughta know.	Just though you oughta know.	34643097	1472784919155	1472784919211	 	32
66961	729281	Just thought you oughta know.	Just though you oughta know.	34643099	1472784919811	1472784919933	y	89
66961	729281	Just thought you oughta know.	Just though you oughta know.	34643102	1472784919907	1472784920147	o	79
66961	729281	Just thought you oughta know.	Just though you oughta know.	34643142	1472784920075	1472784920243	u	85
66961	729281	Just thought you oughta know.	Just though you oughta know.	34643144	1472784920195	1472784920291	 	32
66961	729281	Just thought you oughta know.	Just though you oughta know.	34643146	1472784920507	1472784920619	o	79
66961	729281	Just thought you oughta know.	Just though you oughta know.	34643147	1472784920723	1472784920803	u	85
66961	729281	Just thought you oughta know.	Just though you oughta know.	34643148	1472784921027	1472784921123	g	71
66961	729281	Just thought you oughta know.	Just though you oughta know.	34643149	1472784921123	1472784921195	h	72
66961	729281	Just thought you oughta know.	Just though you oughta know.	34643177	1472784921211	1472784921339	t	84
66961	729281	Just thought you oughta know.	Just though you oughta know.	34643181	1472784921347	1472784921467	a	65
66961	729281	Just thought you oughta know.	Just though you oughta know.	34643186	1472784921515	1472784921596	 	32
66961	729281	Just thought you oughta know.	Just though you oughta know.	34643193	1472784921835	1472784921915	k	75
66961	729281	Just thought you oughta know.	Just though you oughta know.	34643197	1472784921995	1472784922107	n	78
66961	729281	Just thought you oughta know.	Just though you oughta know.	34643216	1472784922147	1472784922267	o	79
66961	729281	Just thought you oughta know.	Just though you oughta know.	34643218	1472784922276	1472784922363	w	87
66961	729281	Just thought you oughta know.	Just though you oughta know.	34643222	1472784922891	1472784922963	.	190
66961	729289	I think FMV is probably less than fifty.	I think FMV is probably less than fifty.	34643333	1472784924795	1472784924899	CAPS_LOCK	20
66961	729289	I think FMV is probably less than fifty.	I think FMV is probably less than fifty.	34643336	1472784924955	1472784925083	I	73
66961	729289	I think FMV is probably less than fifty.	I think FMV is probably less than fifty.	34643338	1472784925195	1472784925243	CAPS_LOCK	20
66961	729289	I think FMV is probably less than fifty.	I think FMV is probably less than fifty.	34643342	1472784925723	1472784925819	 	32
66961	729289	I think FMV is probably less than fifty.	I think FMV is probably less than fifty.	34643345	1472784926155	1472784926267	t	84
66961	729289	I think FMV is probably less than fifty.	I think FMV is probably less than fifty.	34643348	1472784926227	1472784926347	h	72
66961	729289	I think FMV is probably less than fifty.	I think FMV is probably less than fifty.	34643396	1472784926323	1472784926459	i	73
66961	729289	I think FMV is probably less than fifty.	I think FMV is probably less than fifty.	34643400	1472784926515	1472784926643	n	78
66961	729289	I think FMV is probably less than fifty.	I think FMV is probably less than fifty.	34643403	1472784926627	1472784926795	k	75
66961	729289	I think FMV is probably less than fifty.	I think FMV is probably less than fifty.	34643408	1472784926739	1472784926827	 	32
66961	729289	I think FMV is probably less than fifty.	I think FMV is probably less than fifty.	34643413	1472784927580	1472784927707	CAPS_LOCK	20
66961	729289	I think FMV is probably less than fifty.	I think FMV is probably less than fifty.	34643415	1472784927821	1472784927899	F	70
66961	729289	I think FMV is probably less than fifty.	I think FMV is probably less than fifty.	34643416	1472784928043	1472784928131	M	77
66961	729289	I think FMV is probably less than fifty.	I think FMV is probably less than fifty.	34643471	1472784928435	1472784928555	C	67
66961	729289	I think FMV is probably less than fifty.	I think FMV is probably less than fifty.	34643472	1472784928987	1472784929059	BKSP	8
66961	729289	I think FMV is probably less than fifty.	I think FMV is probably less than fifty.	34643473	1472784929387	1472784929579	V	86
66961	729289	I think FMV is probably less than fifty.	I think FMV is probably less than fifty.	34643474	1472784929507	1472784929603	 	32
66961	729289	I think FMV is probably less than fifty.	I think FMV is probably less than fifty.	34643475	1472784929667	1472784929795	CAPS_LOCK	20
66961	729289	I think FMV is probably less than fifty.	I think FMV is probably less than fifty.	34643476	1472784930124	1472784930227	i	73
66961	729289	I think FMV is probably less than fifty.	I think FMV is probably less than fifty.	34643479	1472784930260	1472784930371	s	83
66961	729289	I think FMV is probably less than fifty.	I think FMV is probably less than fifty.	34643511	1472784930379	1472784930467	 	32
66961	729289	I think FMV is probably less than fifty.	I think FMV is probably less than fifty.	34643512	1472784931003	1472784931075	p	80
66961	729289	I think FMV is probably less than fifty.	I think FMV is probably less than fifty.	34643513	1472784931156	1472784931251	r	82
66961	729289	I think FMV is probably less than fifty.	I think FMV is probably less than fifty.	34643514	1472784931291	1472784931355	o	79
66961	729289	I think FMV is probably less than fifty.	I think FMV is probably less than fifty.	34643515	1472784931691	1472784931747	b	66
66961	729289	I think FMV is probably less than fifty.	I think FMV is probably less than fifty.	34643528	1472784931779	1472784931875	a	65
66961	729289	I think FMV is probably less than fifty.	I think FMV is probably less than fifty.	34643530	1472784932147	1472784932235	b	66
66961	729289	I think FMV is probably less than fifty.	I think FMV is probably less than fifty.	34643534	1472784932251	1472784932355	l	76
66961	729289	I think FMV is probably less than fifty.	I think FMV is probably less than fifty.	34643537	1472784932379	1472784932451	y	89
66961	729289	I think FMV is probably less than fifty.	I think FMV is probably less than fifty.	34643539	1472784932491	1472784932579	 	32
66961	729289	I think FMV is probably less than fifty.	I think FMV is probably less than fifty.	34643546	1472784933052	1472784933148	l	76
66961	729289	I think FMV is probably less than fifty.	I think FMV is probably less than fifty.	34643550	1472784933243	1472784933339	e	69
66961	729289	I think FMV is probably less than fifty.	I think FMV is probably less than fifty.	34643554	1472784933467	1472784933523	s	83
66961	729289	I think FMV is probably less than fifty.	I think FMV is probably less than fifty.	34643559	1472784933563	1472784933643	s	83
66961	729289	I think FMV is probably less than fifty.	I think FMV is probably less than fifty.	34643563	1472784933707	1472784933787	 	32
66961	729289	I think FMV is probably less than fifty.	I think FMV is probably less than fifty.	34643578	1472784934067	1472784934179	t	84
66961	729289	I think FMV is probably less than fifty.	I think FMV is probably less than fifty.	34643580	1472784934139	1472784934227	h	72
66961	729289	I think FMV is probably less than fifty.	I think FMV is probably less than fifty.	34643582	1472784934236	1472784934323	a	65
66961	729289	I think FMV is probably less than fifty.	I think FMV is probably less than fifty.	34643584	1472784934475	1472784934643	n	78
66961	729289	I think FMV is probably less than fifty.	I think FMV is probably less than fifty.	34643620	1472784934603	1472784934667	 	32
66961	729289	I think FMV is probably less than fifty.	I think FMV is probably less than fifty.	34643621	1472784935021	1472784935123	f	70
66961	729289	I think FMV is probably less than fifty.	I think FMV is probably less than fifty.	34643622	1472784935203	1472784935299	i	73
66961	729289	I think FMV is probably less than fifty.	I think FMV is probably less than fifty.	34643623	1472784935291	1472784935387	f	70
66961	729289	I think FMV is probably less than fifty.	I think FMV is probably less than fifty.	34643624	1472784935675	1472784935723	f	70
66961	729289	I think FMV is probably less than fifty.	I think FMV is probably less than fifty.	34643625	1472784936011	1472784936107	BKSP	8
66961	729289	I think FMV is probably less than fifty.	I think FMV is probably less than fifty.	34643626	1472784936115	1472784936195	t	84
66961	729289	I think FMV is probably less than fifty.	I think FMV is probably less than fifty.	34643670	1472784936651	1472784936731	t	84
66961	729289	I think FMV is probably less than fifty.	I think FMV is probably less than fifty.	34643676	1472784937083	1472784937155	BKSP	8
66961	729289	I think FMV is probably less than fifty.	I think FMV is probably less than fifty.	34643685	1472784937595	1472784937659	y	89
66961	729289	I think FMV is probably less than fifty.	I think FMV is probably less than fifty.	34643691	1472784937899	1472784937971	.	190
66961	729298	OK to make changes, change out original.	OK to make changes, change out original.	34643814	1472784940315	1472784940435	CAPS_LOCK	20
66961	729298	OK to make changes, change out original.	OK to make changes, change out original.	34643816	1472784940379	1472784940435	O	79
66961	729298	OK to make changes, change out original.	OK to make changes, change out original.	34643819	1472784940747	1472784940811	K	76
66961	729298	OK to make changes, change out original.	OK to make changes, change out original.	34643820	1472784941267	1472784941347	BKSP	8
66961	729298	OK to make changes, change out original.	OK to make changes, change out original.	34643821	1472784941379	1472784941435	BKSP	8
66961	729298	OK to make changes, change out original.	OK to make changes, change out original.	34643897	1472784941699	1472784941827	J	75
66961	729298	OK to make changes, change out original.	OK to make changes, change out original.	34643900	1472784941803	1472784941915	 	32
66961	729298	OK to make changes, change out original.	OK to make changes, change out original.	34643903	1472784942219	1472784942291	BKSP	8
66961	729298	OK to make changes, change out original.	OK to make changes, change out original.	34643905	1472784942355	1472784942427	BKSP	8
66961	729298	OK to make changes, change out original.	OK to make changes, change out original.	34643907	1472784942611	1472784942691	 	32
66961	729298	OK to make changes, change out original.	OK to make changes, change out original.	34643908	1472784943059	1472784943171	CAPS_LOCK	20
66961	729298	OK to make changes, change out original.	OK to make changes, change out original.	34643909	1472784943323	1472784943419	t	84
66961	729298	OK to make changes, change out original.	OK to make changes, change out original.	34643910	1472784943403	1472784943579	o	79
66961	729298	OK to make changes, change out original.	OK to make changes, change out original.	34643911	1472784943795	1472784943883	m	77
66961	729298	OK to make changes, change out original.	OK to make changes, change out original.	34643994	1472784944195	1472784944267	BKSP	8
66961	729298	OK to make changes, change out original.	OK to make changes, change out original.	34643997	1472784944371	1472784944451	 	32
66961	729298	OK to make changes, change out original.	OK to make changes, change out original.	34644002	1472784944587	1472784944651	k	75
66961	729298	OK to make changes, change out original.	OK to make changes, change out original.	34644005	1472784944643	1472784944747	a	65
66961	729298	OK to make changes, change out original.	OK to make changes, change out original.	34644007	1472784945131	1472784945203	BKSP	8
66961	729298	OK to make changes, change out original.	OK to make changes, change out original.	34644010	1472784945875	1472784945963	BKSP	8
66961	729298	OK to make changes, change out original.	OK to make changes, change out original.	34644012	1472784946179	1472784946259	m	77
66961	729298	OK to make changes, change out original.	OK to make changes, change out original.	34644014	1472784946275	1472784946379	a	65
66961	729298	OK to make changes, change out original.	OK to make changes, change out original.	34644041	1472784946403	1472784946475	k	75
66961	729298	OK to make changes, change out original.	OK to make changes, change out original.	34644047	1472784946563	1472784946651	e	69
66961	729298	OK to make changes, change out original.	OK to make changes, change out original.	34644052	1472784946731	1472784946803	 	32
66961	729298	OK to make changes, change out original.	OK to make changes, change out original.	34644054	1472784947163	1472784947307	c	67
66961	729298	OK to make changes, change out original.	OK to make changes, change out original.	34644056	1472784947307	1472784947355	h	72
66961	729298	OK to make changes, change out original.	OK to make changes, change out original.	34644084	1472784947358	1472784947459	a	65
66961	729298	OK to make changes, change out original.	OK to make changes, change out original.	34644086	1472784947571	1472784947643	n	78
66961	729298	OK to make changes, change out original.	OK to make changes, change out original.	34644090	1472784947795	1472784947875	g	71
66961	729298	OK to make changes, change out original.	OK to make changes, change out original.	34644092	1472784948043	1472784948171	e	69
66961	729298	OK to make changes, change out original.	OK to make changes, change out original.	34644093	1472784948275	1472784948363	s	83
66961	729298	OK to make changes, change out original.	OK to make changes, change out original.	34644118	1472784949043	1472784949211	,	188
66961	729298	OK to make changes, change out original.	OK to make changes, change out original.	34644119	1472784949163	1472784949299	 	32
66961	729298	OK to make changes, change out original.	OK to make changes, change out original.	34644120	1472784949499	1472784949619	c	67
66961	729298	OK to make changes, change out original.	OK to make changes, change out original.	34644121	1472784949763	1472784949811	a	65
66961	729298	OK to make changes, change out original.	OK to make changes, change out original.	34644122	1472784950163	1472784950243	BKSP	8
66961	729298	OK to make changes, change out original.	OK to make changes, change out original.	34644123	1472784950435	1472784950539	h	72
66961	729298	OK to make changes, change out original.	OK to make changes, change out original.	34644188	1472784950531	1472784950635	a	65
66961	729298	OK to make changes, change out original.	OK to make changes, change out original.	34644191	1472784950763	1472784950843	n	78
66961	729298	OK to make changes, change out original.	OK to make changes, change out original.	34644192	1472784951555	1472784951691	g	71
66961	729298	OK to make changes, change out original.	OK to make changes, change out original.	34644193	1472784951659	1472784951787	e	69
66961	729298	OK to make changes, change out original.	OK to make changes, change out original.	34644195	1472784951755	1472784951858	 	32
66961	729298	OK to make changes, change out original.	OK to make changes, change out original.	34644197	1472784952363	1472784952467	o	79
66961	729298	OK to make changes, change out original.	OK to make changes, change out original.	34644241	1472784952819	1472784952899	u	85
66961	729298	OK to make changes, change out original.	OK to make changes, change out original.	34644246	1472784952947	1472784953034	t	84
66961	729298	OK to make changes, change out original.	OK to make changes, change out original.	34644254	1472784952995	1472784953083	 	32
66961	729298	OK to make changes, change out original.	OK to make changes, change out original.	34644258	1472784953355	1472784953451	o	79
66961	729298	OK to make changes, change out original.	OK to make changes, change out original.	34644263	1472784953507	1472784953587	r	82
66961	729298	OK to make changes, change out original.	OK to make changes, change out original.	34644293	1472784953659	1472784953731	i	73
66961	729298	OK to make changes, change out original.	OK to make changes, change out original.	34644298	1472784954075	1472784954147	g	71
66961	729298	OK to make changes, change out original.	OK to make changes, change out original.	34644304	1472784954139	1472784954203	i	73
66961	729298	OK to make changes, change out original.	OK to make changes, change out original.	34644314	1472784954291	1472784954371	n	78
66961	729298	OK to make changes, change out original.	OK to make changes, change out original.	34644360	1472784954339	1472784954459	a	65
66961	729298	OK to make changes, change out original.	OK to make changes, change out original.	34644362	1472784954491	1472784954563	;	186
66961	729298	OK to make changes, change out original.	OK to make changes, change out original.	34644364	1472784955027	1472784955107	BKSP	8
66961	729298	OK to make changes, change out original.	OK to make changes, change out original.	34644366	1472784955459	1472784955539	l	76
66961	729298	OK to make changes, change out original.	OK to make changes, change out original.	34644369	1472784955555	1472784955635	.	190
66961	729310	Talk to you soon.	Talk to you soon.	34644495	1472784957563	1472784957699	CAPS_LOCK	20
66961	729310	Talk to you soon.	Talk to you soon.	34644498	1472784957795	1472784957923	T	84
66961	729310	Talk to you soon.	Talk to you soon.	34644502	1472784957875	1472784958043	CAPS_LOCK	20
66961	729310	Talk to you soon.	Talk to you soon.	34644503	1472784958115	1472784958195	l	76
66961	729310	Talk to you soon.	Talk to you soon.	34644504	1472784958307	1472784958387	k	75
66961	729310	Talk to you soon.	Talk to you soon.	34644507	1472784958907	1472784958980	BKSP	8
66961	729310	Talk to you soon.	Talk to you soon.	34644511	1472784959027	1472784959091	BKSP	8
66961	729310	Talk to you soon.	Talk to you soon.	34644514	1472784959267	1472784959379	a	65
66961	729310	Talk to you soon.	Talk to you soon.	34644532	1472784959308	1472784959385	l	76
66961	729310	Talk to you soon.	Talk to you soon.	34644533	1472784959659	1472784959795	k	75
66961	729310	Talk to you soon.	Talk to you soon.	34644535	1472784959828	1472784959931	 	32
66961	729310	Talk to you soon.	Talk to you soon.	34644539	1472784960019	1472784960115	t	84
66961	729310	Talk to you soon.	Talk to you soon.	34644544	1472784960123	1472784960275	o	79
66961	729310	Talk to you soon.	Talk to you soon.	34644550	1472784960283	1472784960411	 	32
66961	729310	Talk to you soon.	Talk to you soon.	34644579	1472784960675	1472784960803	y	89
66961	729310	Talk to you soon.	Talk to you soon.	34644582	1472784960764	1472784961011	o	79
66961	729310	Talk to you soon.	Talk to you soon.	34644585	1472784960924	1472784961027	u	85
66961	729310	Talk to you soon.	Talk to you soon.	34644589	1472784960987	1472784961115	 	32
66961	729310	Talk to you soon.	Talk to you soon.	34644592	1472784961203	1472784961259	s	83
66961	729310	Talk to you soon.	Talk to you soon.	34644618	1472784961307	1472784961387	o	79
66961	729310	Talk to you soon.	Talk to you soon.	34644621	1472784961403	1472784961483	o	79
66961	729310	Talk to you soon.	Talk to you soon.	34644624	1472784962179	1472784962259	n	78
66961	729310	Talk to you soon.	Talk to you soon.	34644625	1472784962627	1472784962691	.	190
66961	729316	Rio de Janeiro police freed him after a massive manhunt.	Rio de Janeiro police freed him after a massive manhunt	34644765	1472784964899	1472784965027	CAPS_LOCK	20
66961	729316	Rio de Janeiro police freed him after a massive manhunt.	Rio de Janeiro police freed him after a massive manhunt	34644767	1472784965099	1472784965187	R	82
66961	729316	Rio de Janeiro police freed him after a massive manhunt.	Rio de Janeiro police freed him after a massive manhunt	34644774	1472784965267	1472784965355	I	73
66961	729316	Rio de Janeiro police freed him after a massive manhunt.	Rio de Janeiro police freed him after a massive manhunt	34644778	1472784965571	1472784965675	O	79
66961	729316	Rio de Janeiro police freed him after a massive manhunt.	Rio de Janeiro police freed him after a massive manhunt	34644782	1472784966043	1472784966107	BKSP	8
66961	729316	Rio de Janeiro police freed him after a massive manhunt.	Rio de Janeiro police freed him after a massive manhunt	34644784	1472784966179	1472784966226	BKSP	8
66961	729316	Rio de Janeiro police freed him after a massive manhunt.	Rio de Janeiro police freed him after a massive manhunt	34644787	1472784966459	1472784966547	CAPS_LOCK	20
66961	729316	Rio de Janeiro police freed him after a massive manhunt.	Rio de Janeiro police freed him after a massive manhunt	34644789	1472784966955	1472784967107	i	73
66961	729316	Rio de Janeiro police freed him after a massive manhunt.	Rio de Janeiro police freed him after a massive manhunt	34644841	1472784967019	1472784967195	o	79
66961	729316	Rio de Janeiro police freed him after a massive manhunt.	Rio de Janeiro police freed him after a massive manhunt	34644842	1472784967179	1472784967266	 	32
66961	729316	Rio de Janeiro police freed him after a massive manhunt.	Rio de Janeiro police freed him after a massive manhunt	34644844	1472784967523	1472784967619	d	68
66961	729316	Rio de Janeiro police freed him after a massive manhunt.	Rio de Janeiro police freed him after a massive manhunt	34644846	1472784967675	1472784967771	e	69
66961	729316	Rio de Janeiro police freed him after a massive manhunt.	Rio de Janeiro police freed him after a massive manhunt	34644850	1472784967779	1472784967891	 	32
66961	729316	Rio de Janeiro police freed him after a massive manhunt.	Rio de Janeiro police freed him after a massive manhunt	34644854	1472784968043	1472784968155	CAPS_LOCK	20
66961	729316	Rio de Janeiro police freed him after a massive manhunt.	Rio de Janeiro police freed him after a massive manhunt	34644858	1472784968435	1472784968538	CAPS_LOCK	20
66961	729316	Rio de Janeiro police freed him after a massive manhunt.	Rio de Janeiro police freed him after a massive manhunt	34644862	1472784968771	1472784968851	BKSP	8
66961	729316	Rio de Janeiro police freed him after a massive manhunt.	Rio de Janeiro police freed him after a massive manhunt	34644866	1472784968932	1472784969035	CAPS_LOCK	20
66961	729316	Rio de Janeiro police freed him after a massive manhunt.	Rio de Janeiro police freed him after a massive manhunt	34644869	1472784969307	1472784969379	BKSP	8
66961	729316	Rio de Janeiro police freed him after a massive manhunt.	Rio de Janeiro police freed him after a massive manhunt	34644872	1472784969563	1472784969627	 	32
66961	729316	Rio de Janeiro police freed him after a massive manhunt.	Rio de Janeiro police freed him after a massive manhunt	34644928	1472784970219	1472784970357	E	69
66961	729316	Rio de Janeiro police freed him after a massive manhunt.	Rio de Janeiro police freed him after a massive manhunt	34644929	1472784970627	1472784970699	BKSP	8
66961	729316	Rio de Janeiro police freed him after a massive manhunt.	Rio de Janeiro police freed him after a massive manhunt	34644930	1472784970755	1472784970843	BKSP	8
66961	729316	Rio de Janeiro police freed him after a massive manhunt.	Rio de Janeiro police freed him after a massive manhunt	34644931	1472784971115	1472784971211	E	69
66961	729316	Rio de Janeiro police freed him after a massive manhunt.	Rio de Janeiro police freed him after a massive manhunt	34644932	1472784971451	1472784971536	BKSP	8
66961	729316	Rio de Janeiro police freed him after a massive manhunt.	Rio de Janeiro police freed him after a massive manhunt	34644933	1472784971707	1472784971820	CAPS_LOCK	20
66961	729316	Rio de Janeiro police freed him after a massive manhunt.	Rio de Janeiro police freed him after a massive manhunt	34644934	1472784971955	1472784972067	e	69
66961	729316	Rio de Janeiro police freed him after a massive manhunt.	Rio de Janeiro police freed him after a massive manhunt	34644935	1472784972179	1472784972291	 	32
66961	729316	Rio de Janeiro police freed him after a massive manhunt.	Rio de Janeiro police freed him after a massive manhunt	34644937	1472784972971	1472784973051	CAPS_LOCK	20
66961	729316	Rio de Janeiro police freed him after a massive manhunt.	Rio de Janeiro police freed him after a massive manhunt	34644940	1472784973067	1472784973123	J	74
66961	729316	Rio de Janeiro police freed him after a massive manhunt.	Rio de Janeiro police freed him after a massive manhunt	34644967	1472784973099	1472784973203	CAPS_LOCK	20
66961	729316	Rio de Janeiro police freed him after a massive manhunt.	Rio de Janeiro police freed him after a massive manhunt	34644969	1472784973371	1472784973483	a	65
66961	729316	Rio de Janeiro police freed him after a massive manhunt.	Rio de Janeiro police freed him after a massive manhunt	34644971	1472784973555	1472784973635	n	78
66961	729316	Rio de Janeiro police freed him after a massive manhunt.	Rio de Janeiro police freed him after a massive manhunt	34644972	1472784973811	1472784973891	e	69
66961	729316	Rio de Janeiro police freed him after a massive manhunt.	Rio de Janeiro police freed him after a massive manhunt	34644974	1472784974443	1472784974507	i	73
66961	729316	Rio de Janeiro police freed him after a massive manhunt.	Rio de Janeiro police freed him after a massive manhunt	34644976	1472784974643	1472784974723	r	82
66961	729316	Rio de Janeiro police freed him after a massive manhunt.	Rio de Janeiro police freed him after a massive manhunt	34645030	1472784974804	1472784974907	o	79
66961	729316	Rio de Janeiro police freed him after a massive manhunt.	Rio de Janeiro police freed him after a massive manhunt	34645031	1472784975027	1472784975107	 	32
66961	729316	Rio de Janeiro police freed him after a massive manhunt.	Rio de Janeiro police freed him after a massive manhunt	34645032	1472784975707	1472784975787	p	80
66961	729316	Rio de Janeiro police freed him after a massive manhunt.	Rio de Janeiro police freed him after a massive manhunt	34645033	1472784975867	1472784975939	o	79
66961	729316	Rio de Janeiro police freed him after a massive manhunt.	Rio de Janeiro police freed him after a massive manhunt	34645034	1472784976027	1472784976123	l	76
66961	729316	Rio de Janeiro police freed him after a massive manhunt.	Rio de Janeiro police freed him after a massive manhunt	34645114	1472784976787	1472784976859	i	73
66961	729316	Rio de Janeiro police freed him after a massive manhunt.	Rio de Janeiro police freed him after a massive manhunt	34645116	1472784976867	1472784977019	c	67
66961	729316	Rio de Janeiro police freed him after a massive manhunt.	Rio de Janeiro police freed him after a massive manhunt	34645120	1472784976979	1472784977091	e	69
66961	729316	Rio de Janeiro police freed him after a massive manhunt.	Rio de Janeiro police freed him after a massive manhunt	34645123	1472784977131	1472784977203	 	32
66961	729316	Rio de Janeiro police freed him after a massive manhunt.	Rio de Janeiro police freed him after a massive manhunt	34645127	1472784977667	1472784977739	f	70
66961	729316	Rio de Janeiro police freed him after a massive manhunt.	Rio de Janeiro police freed him after a massive manhunt	34645165	1472784977843	1472784977948	r	82
66961	729316	Rio de Janeiro police freed him after a massive manhunt.	Rio de Janeiro police freed him after a massive manhunt	34645167	1472784978091	1472784978115	e	69
66961	729316	Rio de Janeiro police freed him after a massive manhunt.	Rio de Janeiro police freed him after a massive manhunt	34645170	1472784978172	1472784978243	e	69
66961	729316	Rio de Janeiro police freed him after a massive manhunt.	Rio de Janeiro police freed him after a massive manhunt	34645173	1472784978452	1472784978532	d	68
66961	729316	Rio de Janeiro police freed him after a massive manhunt.	Rio de Janeiro police freed him after a massive manhunt	34645177	1472784978699	1472784978779	 	32
66961	729316	Rio de Janeiro police freed him after a massive manhunt.	Rio de Janeiro police freed him after a massive manhunt	34645231	1472784978923	1472784979035	h	72
66961	729316	Rio de Janeiro police freed him after a massive manhunt.	Rio de Janeiro police freed him after a massive manhunt	34645232	1472784979155	1472784979251	i	73
66961	729316	Rio de Janeiro police freed him after a massive manhunt.	Rio de Janeiro police freed him after a massive manhunt	34645233	1472784979707	1472784979859	,	188
66961	729316	Rio de Janeiro police freed him after a massive manhunt.	Rio de Janeiro police freed him after a massive manhunt	34645234	1472784979843	1472784979963	 	32
66961	729316	Rio de Janeiro police freed him after a massive manhunt.	Rio de Janeiro police freed him after a massive manhunt	34645238	1472784979987	1472784980091	a	65
66961	729316	Rio de Janeiro police freed him after a massive manhunt.	Rio de Janeiro police freed him after a massive manhunt	34645342	1472784980283	1472784980363	BKSP	8
66961	729316	Rio de Janeiro police freed him after a massive manhunt.	Rio de Janeiro police freed him after a massive manhunt	34645345	1472784980403	1472784980499	BKSP	8
66961	729316	Rio de Janeiro police freed him after a massive manhunt.	Rio de Janeiro police freed him after a massive manhunt	34645347	1472784980836	1472784980915	BKSP	8
66961	729316	Rio de Janeiro police freed him after a massive manhunt.	Rio de Janeiro police freed him after a massive manhunt	34645352	1472784981467	1472784981540	m	77
66961	729316	Rio de Janeiro police freed him after a massive manhunt.	Rio de Janeiro police freed him after a massive manhunt	34645357	1472784981499	1472784981627	 	32
66961	729316	Rio de Janeiro police freed him after a massive manhunt.	Rio de Janeiro police freed him after a massive manhunt	34645363	1472784981699	1472784981803	a	65
66961	729316	Rio de Janeiro police freed him after a massive manhunt.	Rio de Janeiro police freed him after a massive manhunt	34645367	1472784981947	1472784982051	f	70
66961	729316	Rio de Janeiro police freed him after a massive manhunt.	Rio de Janeiro police freed him after a massive manhunt	34645370	1472784982163	1472784982251	t	84
66961	729316	Rio de Janeiro police freed him after a massive manhunt.	Rio de Janeiro police freed him after a massive manhunt	34645395	1472784982235	1472784982379	e	69
66961	729316	Rio de Janeiro police freed him after a massive manhunt.	Rio de Janeiro police freed him after a massive manhunt	34645399	1472784982331	1472784982467	r	82
66961	729316	Rio de Janeiro police freed him after a massive manhunt.	Rio de Janeiro police freed him after a massive manhunt	34645402	1472784982411	1472784982531	 	32
66961	729316	Rio de Janeiro police freed him after a massive manhunt.	Rio de Janeiro police freed him after a massive manhunt	34645407	1472784982715	1472784982819	a	65
66961	729316	Rio de Janeiro police freed him after a massive manhunt.	Rio de Janeiro police freed him after a massive manhunt	34645411	1472784982827	1472784982907	 	32
66961	729316	Rio de Janeiro police freed him after a massive manhunt.	Rio de Janeiro police freed him after a massive manhunt	34645417	1472784983115	1472784983203	m	77
66961	729316	Rio de Janeiro police freed him after a massive manhunt.	Rio de Janeiro police freed him after a massive manhunt	34645449	1472784983212	1472784983299	a	65
66961	729316	Rio de Janeiro police freed him after a massive manhunt.	Rio de Janeiro police freed him after a massive manhunt	34645453	1472784983445	1472784983507	s	83
66961	729316	Rio de Janeiro police freed him after a massive manhunt.	Rio de Janeiro police freed him after a massive manhunt	34645456	1472784983572	1472784983635	s	83
66961	729316	Rio de Janeiro police freed him after a massive manhunt.	Rio de Janeiro police freed him after a massive manhunt	34645459	1472784983715	1472784983843	i	73
66961	729316	Rio de Janeiro police freed him after a massive manhunt.	Rio de Janeiro police freed him after a massive manhunt	34645466	1472784984115	1472784984211	v	86
66961	729316	Rio de Janeiro police freed him after a massive manhunt.	Rio de Janeiro police freed him after a massive manhunt	34645544	1472784984204	1472784984315	e	69
66961	729316	Rio de Janeiro police freed him after a massive manhunt.	Rio de Janeiro police freed him after a massive manhunt	34645546	1472784984299	1472784984395	 	32
66961	729316	Rio de Janeiro police freed him after a massive manhunt.	Rio de Janeiro police freed him after a massive manhunt	34645547	1472784985131	1472784985228	m	77
66961	729316	Rio de Janeiro police freed him after a massive manhunt.	Rio de Janeiro police freed him after a massive manhunt	34645551	1472784985379	1472784985435	n	78
66961	729316	Rio de Janeiro police freed him after a massive manhunt.	Rio de Janeiro police freed him after a massive manhunt	34645552	1472784985987	1472784986043	BKSP	8
66961	729316	Rio de Janeiro police freed him after a massive manhunt.	Rio de Janeiro police freed him after a massive manhunt	34645556	1472784986627	1472784986755	a	65
66961	729316	Rio de Janeiro police freed him after a massive manhunt.	Rio de Janeiro police freed him after a massive manhunt	34645636	1472784986710	1472784986843	n	78
66961	729316	Rio de Janeiro police freed him after a massive manhunt.	Rio de Janeiro police freed him after a massive manhunt	34645638	1472784986931	1472784987003	h	72
66961	729316	Rio de Janeiro police freed him after a massive manhunt.	Rio de Janeiro police freed him after a massive manhunt	34645640	1472784987099	1472784987235	u	85
66961	729316	Rio de Janeiro police freed him after a massive manhunt.	Rio de Janeiro police freed him after a massive manhunt	34645642	1472784987331	1472784987435	n	78
66961	729316	Rio de Janeiro police freed him after a massive manhunt.	Rio de Janeiro police freed him after a massive manhunt	34645646	1472784987435	1472784987515	t	84
66961	729339	Lynn, got to the office OK.	Lynn, got to the office OK.	34645769	1472784990499	1472784990619	CAPS_LOCK	20
66961	729339	Lynn, got to the office OK.	Lynn, got to the office OK.	34645770	1472784990627	1472784990715	L	76
66961	729339	Lynn, got to the office OK.	Lynn, got to the office OK.	34645772	1472784990947	1472784991099	CAPS_LOCK	20
66961	729339	Lynn, got to the office OK.	Lynn, got to the office OK.	34645775	1472784991107	1472784991163	y	89
66961	729339	Lynn, got to the office OK.	Lynn, got to the office OK.	34645780	1472784991459	1472784991531	n	78
66961	729339	Lynn, got to the office OK.	Lynn, got to the office OK.	34645786	1472784991571	1472784991627	n	78
66961	729339	Lynn, got to the office OK.	Lynn, got to the office OK.	34645791	1472784992299	1472784992459	,	188
66961	729339	Lynn, got to the office OK.	Lynn, got to the office OK.	34645811	1472784992443	1472784992531	 	32
66961	729339	Lynn, got to the office OK.	Lynn, got to the office OK.	34645814	1472784992803	1472784992938	g	71
66961	729339	Lynn, got to the office OK.	Lynn, got to the office OK.	34645818	1472784992891	1472784993050	o	79
66961	729339	Lynn, got to the office OK.	Lynn, got to the office OK.	34645823	1472784993067	1472784993171	t	84
66961	729339	Lynn, got to the office OK.	Lynn, got to the office OK.	34645829	1472784993115	1472784993178	 	32
66961	729339	Lynn, got to the office OK.	Lynn, got to the office OK.	34645833	1472784993459	1472784993619	o	79
66961	729339	Lynn, got to the office OK.	Lynn, got to the office OK.	34645884	1472784993859	1472784993947	BKSP	8
66961	729339	Lynn, got to the office OK.	Lynn, got to the office OK.	34645890	1472784993955	1472784994059	t	84
66961	729339	Lynn, got to the office OK.	Lynn, got to the office OK.	34645895	1472784994507	1472784994658	o	79
66961	729339	Lynn, got to the office OK.	Lynn, got to the office OK.	34645898	1472784994707	1472784994810	 	32
66961	729339	Lynn, got to the office OK.	Lynn, got to the office OK.	34645901	1472784994851	1472784994987	t	84
66961	729339	Lynn, got to the office OK.	Lynn, got to the office OK.	34645972	1472784994971	1472784995090	j	69
66961	729339	Lynn, got to the office OK.	Lynn, got to the office OK.	34645977	1472784995371	1472784995435	BKSP	8
66961	729339	Lynn, got to the office OK.	Lynn, got to the office OK.	34645983	1472784995482	1472784995562	BKSP	8
66961	729339	Lynn, got to the office OK.	Lynn, got to the office OK.	34645990	1472784996035	1472784996123	h	72
66961	729339	Lynn, got to the office OK.	Lynn, got to the office OK.	34645997	1472784996155	1472784996243	e	69
66961	729339	Lynn, got to the office OK.	Lynn, got to the office OK.	34646002	1472784996227	1472784996324	 	32
66961	729339	Lynn, got to the office OK.	Lynn, got to the office OK.	34646006	1472784997035	1472784997115	o	79
66961	729339	Lynn, got to the office OK.	Lynn, got to the office OK.	34646008	1472784997187	1472784997251	f	70
66961	729339	Lynn, got to the office OK.	Lynn, got to the office OK.	34646020	1472784997347	1472784997410	f	70
66961	729339	Lynn, got to the office OK.	Lynn, got to the office OK.	34646024	1472784997851	1472784997931	i	73
66961	729339	Lynn, got to the office OK.	Lynn, got to the office OK.	34646030	1472784997979	1472784998051	v	67
66961	729339	Lynn, got to the office OK.	Lynn, got to the office OK.	34646155	1472784998020	1472784998147	e	69
66961	729339	Lynn, got to the office OK.	Lynn, got to the office OK.	34646157	1472784998788	1472784998843	BKSP	8
66961	729339	Lynn, got to the office OK.	Lynn, got to the office OK.	34646163	1472784998899	1472784998963	BKSP	8
66961	729339	Lynn, got to the office OK.	Lynn, got to the office OK.	34646166	1472784999131	1472784999235	e	69
66961	729339	Lynn, got to the office OK.	Lynn, got to the office OK.	34646169	1472785000011	1472785000115	,	188
66961	729339	Lynn, got to the office OK.	Lynn, got to the office OK.	34646172	1472785000563	1472785000635	BKSP	8
66961	729339	Lynn, got to the office OK.	Lynn, got to the office OK.	34646174	1472785000907	1472785001003	 	32
66961	729339	Lynn, got to the office OK.	Lynn, got to the office OK.	34646175	1472785001171	1472785001314	CAPS_LOCK	20
66961	729339	Lynn, got to the office OK.	Lynn, got to the office OK.	34646176	1472785001363	1472785001418	O	79
66961	729339	Lynn, got to the office OK.	Lynn, got to the office OK.	34646178	1472785001611	1472785001691	K	75
66961	729339	Lynn, got to the office OK.	Lynn, got to the office OK.	34646182	1472785001931	1472785002018	.	190
66961	729350	I'm glad you liked it.	I'm glad you liked it.	34646319	1472785004123	1472785004202	I	73
66961	729350	I'm glad you liked it.	I'm glad you liked it.	34646321	1472785004243	1472785004378	CAPS_LOCK	20
66961	729350	I'm glad you liked it.	I'm glad you liked it.	34646323	1472785004939	1472785005019	'	222
66961	729350	I'm glad you liked it.	I'm glad you liked it.	34646325	1472785005171	1472785005315	m	77
66961	729350	I'm glad you liked it.	I'm glad you liked it.	34646327	1472785005267	1472785005378	 	32
66961	729350	I'm glad you liked it.	I'm glad you liked it.	34646328	1472785005563	1472785005691	g	71
66961	729350	I'm glad you liked it.	I'm glad you liked it.	34646344	1472785005675	1472785005779	l	76
66961	729350	I'm glad you liked it.	I'm glad you liked it.	34646346	1472785005819	1472785005922	a	65
66961	729350	I'm glad you liked it.	I'm glad you liked it.	34646348	1472785006442	1472785006579	d	68
66961	729350	I'm glad you liked it.	I'm glad you liked it.	34646350	1472785006611	1472785006666	 	32
66961	729350	I'm glad you liked it.	I'm glad you liked it.	34646352	1472785007218	1472785007314	y	89
66961	729350	I'm glad you liked it.	I'm glad you liked it.	34646362	1472785007283	1472785007515	o	79
66961	729350	I'm glad you liked it.	I'm glad you liked it.	34646363	1472785007443	1472785007603	u	85
66961	729350	I'm glad you liked it.	I'm glad you liked it.	34646364	1472785007555	1472785007659	 	32
66961	729350	I'm glad you liked it.	I'm glad you liked it.	34646365	1472785007762	1472785007859	l	76
66961	729350	I'm glad you liked it.	I'm glad you liked it.	34646366	1472785007938	1472785008011	i	73
66961	729350	I'm glad you liked it.	I'm glad you liked it.	34646367	1472785008075	1472785008163	k	75
66961	729350	I'm glad you liked it.	I'm glad you liked it.	34646414	1472785008155	1472785008250	e	69
66961	729350	I'm glad you liked it.	I'm glad you liked it.	34646416	1472785008347	1472785008443	s	83
66961	729350	I'm glad you liked it.	I'm glad you liked it.	34646417	1472785008507	1472785008579	 	32
66961	729350	I'm glad you liked it.	I'm glad you liked it.	34646419	1472785008763	1472785008835	BKSP	8
66961	729350	I'm glad you liked it.	I'm glad you liked it.	34646422	1472785008875	1472785008955	BKSP	8
66961	729350	I'm glad you liked it.	I'm glad you liked it.	34646425	1472785008939	1472785009059	d	68
66961	729350	I'm glad you liked it.	I'm glad you liked it.	34646429	1472785009067	1472785009146	 	32
66961	729350	I'm glad you liked it.	I'm glad you liked it.	34646431	1472785009595	1472785009667	i	73
66961	729350	I'm glad you liked it.	I'm glad you liked it.	34646445	1472785009699	1472785009779	t	84
66961	729350	I'm glad you liked it.	I'm glad you liked it.	34646450	1472785009995	1472785010075	.	190
66961	729361	Wang urged the international community not to forget the prisoners.	Wang urged the international community not to forget the prisoners.	34646624	1472785012267	1472785012410	CAPS_LOCK	20
66961	729361	Wang urged the international community not to forget the prisoners.	Wang urged the international community not to forget the prisoners.	34646627	1472785012619	1472785012715	W	87
66961	729361	Wang urged the international community not to forget the prisoners.	Wang urged the international community not to forget the prisoners.	34646630	1472785012763	1472785012818	CAPS_LOCK	20
66961	729361	Wang urged the international community not to forget the prisoners.	Wang urged the international community not to forget the prisoners.	34646633	1472785012971	1472785013027	a	65
66961	729361	Wang urged the international community not to forget the prisoners.	Wang urged the international community not to forget the prisoners.	34646637	1472785013475	1472785013562	n	78
66961	729361	Wang urged the international community not to forget the prisoners.	Wang urged the international community not to forget the prisoners.	34646642	1472785013627	1472785013699	g	71
66961	729361	Wang urged the international community not to forget the prisoners.	Wang urged the international community not to forget the prisoners.	34646645	1472785014075	1472785014147	 	32
66961	729361	Wang urged the international community not to forget the prisoners.	Wang urged the international community not to forget the prisoners.	34646681	1472785014563	1472785014642	u	85
66961	729361	Wang urged the international community not to forget the prisoners.	Wang urged the international community not to forget the prisoners.	34646685	1472785014714	1472785014819	r	82
66961	729361	Wang urged the international community not to forget the prisoners.	Wang urged the international community not to forget the prisoners.	34646689	1472785014971	1472785015082	g	71
66961	729361	Wang urged the international community not to forget the prisoners.	Wang urged the international community not to forget the prisoners.	34646695	1472785015091	1472785015219	e	69
66961	729361	Wang urged the international community not to forget the prisoners.	Wang urged the international community not to forget the prisoners.	34646697	1472785015307	1472785015419	d	68
66961	729361	Wang urged the international community not to forget the prisoners.	Wang urged the international community not to forget the prisoners.	34646706	1472785015423	1472785015523	 	32
66961	729361	Wang urged the international community not to forget the prisoners.	Wang urged the international community not to forget the prisoners.	34646709	1472785015595	1472785015722	t	84
66961	729361	Wang urged the international community not to forget the prisoners.	Wang urged the international community not to forget the prisoners.	34646713	1472785015707	1472785015803	h	72
66961	729361	Wang urged the international community not to forget the prisoners.	Wang urged the international community not to forget the prisoners.	34646718	1472785015771	1472785015867	e	69
66961	729361	Wang urged the international community not to forget the prisoners.	Wang urged the international community not to forget the prisoners.	34646749	1472785015859	1472785015931	 	32
66961	729361	Wang urged the international community not to forget the prisoners.	Wang urged the international community not to forget the prisoners.	34646750	1472785016099	1472785016211	i	73
66961	729361	Wang urged the international community not to forget the prisoners.	Wang urged the international community not to forget the prisoners.	34646752	1472785016275	1472785016355	n	78
66961	729361	Wang urged the international community not to forget the prisoners.	Wang urged the international community not to forget the prisoners.	34646755	1472785016459	1472785016562	t	84
66961	729361	Wang urged the international community not to forget the prisoners.	Wang urged the international community not to forget the prisoners.	34646758	1472785016555	1472785016739	e	69
66961	729361	Wang urged the international community not to forget the prisoners.	Wang urged the international community not to forget the prisoners.	34646761	1472785016787	1472785016890	r	82
66961	729361	Wang urged the international community not to forget the prisoners.	Wang urged the international community not to forget the prisoners.	34646785	1472785017083	1472785017171	n	78
66961	729361	Wang urged the international community not to forget the prisoners.	Wang urged the international community not to forget the prisoners.	34646787	1472785017195	1472785017299	a	65
66961	729361	Wang urged the international community not to forget the prisoners.	Wang urged the international community not to forget the prisoners.	34646789	1472785017667	1472785017754	t	84
66961	729361	Wang urged the international community not to forget the prisoners.	Wang urged the international community not to forget the prisoners.	34646790	1472785017779	1472785017922	i	73
66961	729361	Wang urged the international community not to forget the prisoners.	Wang urged the international community not to forget the prisoners.	34646822	1472785017875	1472785017986	o	79
66961	729361	Wang urged the international community not to forget the prisoners.	Wang urged the international community not to forget the prisoners.	34646826	1472785018051	1472785018171	n	78
66961	729361	Wang urged the international community not to forget the prisoners.	Wang urged the international community not to forget the prisoners.	34646831	1472785018259	1472785018362	a	65
66961	729361	Wang urged the international community not to forget the prisoners.	Wang urged the international community not to forget the prisoners.	34646837	1472785018378	1472785018563	l	76
66961	729361	Wang urged the international community not to forget the prisoners.	Wang urged the international community not to forget the prisoners.	34646842	1472785018531	1472785018650	 	32
66961	729361	Wang urged the international community not to forget the prisoners.	Wang urged the international community not to forget the prisoners.	34646846	1472785018858	1472785018962	c	67
66961	729361	Wang urged the international community not to forget the prisoners.	Wang urged the international community not to forget the prisoners.	34646863	1472785018966	1472785019042	o	79
66961	729361	Wang urged the international community not to forget the prisoners.	Wang urged the international community not to forget the prisoners.	34646866	1472785019251	1472785019323	m	77
66961	729361	Wang urged the international community not to forget the prisoners.	Wang urged the international community not to forget the prisoners.	34646870	1472785019379	1472785019451	m	77
66961	729361	Wang urged the international community not to forget the prisoners.	Wang urged the international community not to forget the prisoners.	34646873	1472785019562	1472785019635	u	85
66961	729361	Wang urged the international community not to forget the prisoners.	Wang urged the international community not to forget the prisoners.	34646876	1472785019699	1472785019787	n	78
66961	729361	Wang urged the international community not to forget the prisoners.	Wang urged the international community not to forget the prisoners.	34646920	1472785019866	1472785019954	i	73
66961	729361	Wang urged the international community not to forget the prisoners.	Wang urged the international community not to forget the prisoners.	34646924	1472785020027	1472785020123	t	84
66961	729361	Wang urged the international community not to forget the prisoners.	Wang urged the international community not to forget the prisoners.	34646928	1472785020147	1472785020274	y	89
66961	729361	Wang urged the international community not to forget the prisoners.	Wang urged the international community not to forget the prisoners.	34646933	1472785020267	1472785020386	 	32
66961	729361	Wang urged the international community not to forget the prisoners.	Wang urged the international community not to forget the prisoners.	34646939	1472785020659	1472785020746	n	78
66961	729361	Wang urged the international community not to forget the prisoners.	Wang urged the international community not to forget the prisoners.	34646962	1472785020803	1472785020954	o	79
66961	729361	Wang urged the international community not to forget the prisoners.	Wang urged the international community not to forget the prisoners.	34646964	1472785020971	1472785021090	t	84
66961	729361	Wang urged the international community not to forget the prisoners.	Wang urged the international community not to forget the prisoners.	34646967	1472785021019	1472785021106	 	32
66961	729361	Wang urged the international community not to forget the prisoners.	Wang urged the international community not to forget the prisoners.	34646970	1472785021563	1472785021642	t	84
66961	729361	Wang urged the international community not to forget the prisoners.	Wang urged the international community not to forget the prisoners.	34647017	1472785021611	1472785021815	o	79
66961	729361	Wang urged the international community not to forget the prisoners.	Wang urged the international community not to forget the prisoners.	34647019	1472785021756	1472785021835	 	32
66961	729361	Wang urged the international community not to forget the prisoners.	Wang urged the international community not to forget the prisoners.	34647022	1472785022115	1472785022227	f	70
66961	729361	Wang urged the international community not to forget the prisoners.	Wang urged the international community not to forget the prisoners.	34647026	1472785022315	1472785022419	o	79
66961	729361	Wang urged the international community not to forget the prisoners.	Wang urged the international community not to forget the prisoners.	34647030	1472785022451	1472785022522	r	82
66961	729361	Wang urged the international community not to forget the prisoners.	Wang urged the international community not to forget the prisoners.	34647033	1472785022626	1472785022707	g	71
66961	729361	Wang urged the international community not to forget the prisoners.	Wang urged the international community not to forget the prisoners.	34647079	1472785022763	1472785022818	e	69
66961	729361	Wang urged the international community not to forget the prisoners.	Wang urged the international community not to forget the prisoners.	34647083	1472785022827	1472785022915	r	82
66961	729361	Wang urged the international community not to forget the prisoners.	Wang urged the international community not to forget the prisoners.	34647086	1472785023659	1472785023747	BKSP	8
66961	729361	Wang urged the international community not to forget the prisoners.	Wang urged the international community not to forget the prisoners.	34647090	1472785023779	1472785023874	t	84
66961	729361	Wang urged the international community not to forget the prisoners.	Wang urged the international community not to forget the prisoners.	34647094	1472785023899	1472785023995	 	32
66961	729361	Wang urged the international community not to forget the prisoners.	Wang urged the international community not to forget the prisoners.	34647100	1472785024115	1472785024187	y	89
66961	729361	Wang urged the international community not to forget the prisoners.	Wang urged the international community not to forget the prisoners.	34647141	1472785024155	1472785024306	h	72
66961	729361	Wang urged the international community not to forget the prisoners.	Wang urged the international community not to forget the prisoners.	34647145	1472785024275	1472785024370	e	69
66961	729361	Wang urged the international community not to forget the prisoners.	Wang urged the international community not to forget the prisoners.	34647147	1472785024371	1472785024475	 	32
66961	729361	Wang urged the international community not to forget the prisoners.	Wang urged the international community not to forget the prisoners.	34647150	1472785024691	1472785024755	BKSP	8
66961	729361	Wang urged the international community not to forget the prisoners.	Wang urged the international community not to forget the prisoners.	34647153	1472785024819	1472785024883	BKSP	8
66961	729361	Wang urged the international community not to forget the prisoners.	Wang urged the international community not to forget the prisoners.	34647160	1472785024931	1472785025011	BKSP	8
66961	729361	Wang urged the international community not to forget the prisoners.	Wang urged the international community not to forget the prisoners.	34647165	1472785025059	1472785025147	BKSP	8
66961	729361	Wang urged the international community not to forget the prisoners.	Wang urged the international community not to forget the prisoners.	34647168	1472785025499	1472785025603	t	84
66961	729361	Wang urged the international community not to forget the prisoners.	Wang urged the international community not to forget the prisoners.	34647172	1472785025587	1472785025698	h	72
66961	729361	Wang urged the international community not to forget the prisoners.	Wang urged the international community not to forget the prisoners.	34647230	1472785025635	1472785025746	e	69
66961	729361	Wang urged the international community not to forget the prisoners.	Wang urged the international community not to forget the prisoners.	34647233	1472785025691	1472785025771	 	32
66961	729361	Wang urged the international community not to forget the prisoners.	Wang urged the international community not to forget the prisoners.	34647235	1472785026011	1472785026099	p	80
66961	729361	Wang urged the international community not to forget the prisoners.	Wang urged the international community not to forget the prisoners.	34647239	1472785026146	1472785026227	r	82
66961	729361	Wang urged the international community not to forget the prisoners.	Wang urged the international community not to forget the prisoners.	34647244	1472785026434	1472785026491	i	73
66961	729361	Wang urged the international community not to forget the prisoners.	Wang urged the international community not to forget the prisoners.	34647249	1472785026515	1472785026603	s	83
66961	729361	Wang urged the international community not to forget the prisoners.	Wang urged the international community not to forget the prisoners.	34647253	1472785026819	1472785026891	BKSP	8
66961	729361	Wang urged the international community not to forget the prisoners.	Wang urged the international community not to forget the prisoners.	34647258	1472785026955	1472785027003	BKSP	8
66961	729361	Wang urged the international community not to forget the prisoners.	Wang urged the international community not to forget the prisoners.	34647265	1472785027067	1472785027115	s	83
66961	729361	Wang urged the international community not to forget the prisoners.	Wang urged the international community not to forget the prisoners.	34647377	1472785028211	1472785028314	s	83
66961	729361	Wang urged the international community not to forget the prisoners.	Wang urged the international community not to forget the prisoners.	34647380	1472785028339	1472785028459	i	73
66961	729361	Wang urged the international community not to forget the prisoners.	Wang urged the international community not to forget the prisoners.	34647383	1472785028427	1472785028546	o	79
66961	729361	Wang urged the international community not to forget the prisoners.	Wang urged the international community not to forget the prisoners.	34647385	1472785028762	1472785028835	BKSP	8
66961	729361	Wang urged the international community not to forget the prisoners.	Wang urged the international community not to forget the prisoners.	34647388	1472785028891	1472785028970	BKSP	8
66961	729361	Wang urged the international community not to forget the prisoners.	Wang urged the international community not to forget the prisoners.	34647390	1472785029011	1472785029091	BKSP	8
66961	729361	Wang urged the international community not to forget the prisoners.	Wang urged the international community not to forget the prisoners.	34647393	1472785029139	1472785029179	BKSP	8
66961	729361	Wang urged the international community not to forget the prisoners.	Wang urged the international community not to forget the prisoners.	34647396	1472785029979	1472785030067	i	73
66961	729361	Wang urged the international community not to forget the prisoners.	Wang urged the international community not to forget the prisoners.	34647399	1472785030138	1472785030211	s	83
66961	729361	Wang urged the international community not to forget the prisoners.	Wang urged the international community not to forget the prisoners.	34647417	1472785030330	1472785030395	s	83
66961	729361	Wang urged the international community not to forget the prisoners.	Wang urged the international community not to forget the prisoners.	34647419	1472785030515	1472785030603	o	79
66961	729361	Wang urged the international community not to forget the prisoners.	Wang urged the international community not to forget the prisoners.	34647421	1472785030714	1472785030795	n	78
66961	729361	Wang urged the international community not to forget the prisoners.	Wang urged the international community not to forget the prisoners.	34647423	1472785030818	1472785030970	e	69
66961	729361	Wang urged the international community not to forget the prisoners.	Wang urged the international community not to forget the prisoners.	34647523	1472785030963	1472785031074	r	82
66961	729361	Wang urged the international community not to forget the prisoners.	Wang urged the international community not to forget the prisoners.	34647526	1472785031171	1472785031266	s	83
66961	729361	Wang urged the international community not to forget the prisoners.	Wang urged the international community not to forget the prisoners.	34647528	1472785031635	1472785031707	BKSP	8
66961	729361	Wang urged the international community not to forget the prisoners.	Wang urged the international community not to forget the prisoners.	34647531	1472785031763	1472785031851	BKSP	8
66961	729361	Wang urged the international community not to forget the prisoners.	Wang urged the international community not to forget the prisoners.	34647534	1472785031891	1472785031994	BKSP	8
66961	729361	Wang urged the international community not to forget the prisoners.	Wang urged the international community not to forget the prisoners.	34647537	1472785032051	1472785032131	BKSP	8
66961	729361	Wang urged the international community not to forget the prisoners.	Wang urged the international community not to forget the prisoners.	34647541	1472785032186	1472785032258	BKSP	8
66961	729361	Wang urged the international community not to forget the prisoners.	Wang urged the international community not to forget the prisoners.	34647545	1472785032306	1472785032386	BKSP	8
66961	729361	Wang urged the international community not to forget the prisoners.	Wang urged the international community not to forget the prisoners.	34647549	1472785032819	1472785032906	o	79
66961	729361	Wang urged the international community not to forget the prisoners.	Wang urged the international community not to forget the prisoners.	34647554	1472785033042	1472785033115	n	78
66961	729361	Wang urged the international community not to forget the prisoners.	Wang urged the international community not to forget the prisoners.	34647558	1472785033122	1472785033218	e	69
66961	729361	Wang urged the international community not to forget the prisoners.	Wang urged the international community not to forget the prisoners.	34647563	1472785033419	1472785033506	r	82
66961	729361	Wang urged the international community not to forget the prisoners.	Wang urged the international community not to forget the prisoners.	34647547	1472785033611	1472785033698	s	83
66961	729361	Wang urged the international community not to forget the prisoners.	Wang urged the international community not to forget the prisoners.	34647551	1472785033730	1472785033786	.	190
66961	729382	Can you call me at home?	Can you call me at home?	34647681	1472785035867	1472785035994	CAPS_LOCK	20
66961	729382	Can you call me at home?	Can you call me at home?	34647685	1472785036083	1472785036290	C	67
66961	729382	Can you call me at home?	Can you call me at home?	34647690	1472785036195	1472785036330	CAPS_LOCK	20
66961	729382	Can you call me at home?	Can you call me at home?	34647695	1472785036627	1472785036731	a	65
66961	729382	Can you call me at home?	Can you call me at home?	34647699	1472785036739	1472785036883	n	78
66961	729382	Can you call me at home?	Can you call me at home?	34647704	1472785036907	1472785037002	 	32
66961	729382	Can you call me at home?	Can you call me at home?	34647709	1472785037443	1472785037573	y	89
66961	729382	Can you call me at home?	Can you call me at home?	34647741	1472785037547	1472785037794	o	79
66961	729382	Can you call me at home?	Can you call me at home?	34647744	1472785037699	1472785037858	u	85
66961	729382	Can you call me at home?	Can you call me at home?	34647746	1472785037843	1472785037954	 	32
66961	729382	Can you call me at home?	Can you call me at home?	34647749	1472785038203	1472785038338	c	67
66961	729382	Can you call me at home?	Can you call me at home?	34647751	1472785038267	1472785038378	a	65
66961	729382	Can you call me at home?	Can you call me at home?	34647755	1472785038651	1472785038731	l	76
66961	729382	Can you call me at home?	Can you call me at home?	34647772	1472785038778	1472785038859	l	76
66961	729382	Can you call me at home?	Can you call me at home?	34647773	1472785038947	1472785039034	 	32
66961	729382	Can you call me at home?	Can you call me at home?	34647774	1472785039194	1472785039290	m	77
66961	729382	Can you call me at home?	Can you call me at home?	34647775	1472785039282	1472785039411	e	69
66961	729382	Can you call me at home?	Can you call me at home?	34647776	1472785039418	1472785039498	 	32
66961	729382	Can you call me at home?	Can you call me at home?	34647791	1472785039507	1472785039602	a	65
66961	729382	Can you call me at home?	Can you call me at home?	34647794	1472785039675	1472785039778	t	84
66961	729382	Can you call me at home?	Can you call me at home?	34647797	1472785039755	1472785039842	 	32
66961	729382	Can you call me at home?	Can you call me at home?	34647800	1472785040170	1472785040283	h	72
66961	729382	Can you call me at home?	Can you call me at home?	34647803	1472785040362	1472785040490	o	79
66961	729382	Can you call me at home?	Can you call me at home?	34647921	1472785040707	1472785040802	e	69
66961	729382	Can you call me at home?	Can you call me at home?	34647924	1472785041283	1472785041330	n	78
66961	729382	Can you call me at home?	Can you call me at home?	34647928	1472785041539	1472785041571	BKSP	8
66961	729382	Can you call me at home?	Can you call me at home?	34647933	1472785041698	1472785041755	BKSP	8
66961	729382	Can you call me at home?	Can you call me at home?	34647938	1472785042331	1472785042403	n	78
66961	729382	Can you call me at home?	Can you call me at home?	34647944	1472785042667	1472785042739	BKSP	8
66961	729382	Can you call me at home?	Can you call me at home?	34647948	1472785042891	1472785042963	m	77
66961	729382	Can you call me at home?	Can you call me at home?	34647951	1472785042971	1472785043066	e	69
66961	729382	Can you call me at home?	Can you call me at home?	34648027	1472785043363	1472785043626	CAPS_LOCK	20
66961	729382	Can you call me at home?	Can you call me at home?	34648030	1472785043770	1472785043827	/	191
66961	729382	Can you call me at home?	Can you call me at home?	34648037	1472785044554	1472785044627	BKSP	8
66961	729382	Can you call me at home?	Can you call me at home?	34648040	1472785044826	1472785045019	?	191
66961	729391	I wasn't as prepared as I will be this year.	I wasn't as prepared as I will be this year.	34648181	1472785047123	1472785047250	I	73
66961	729391	I wasn't as prepared as I will be this year.	I wasn't as prepared as I will be this year.	34648184	1472785047219	1472785047354	CAPS_LOCK	20
66961	729391	I wasn't as prepared as I will be this year.	I wasn't as prepared as I will be this year.	34648188	1472785047298	1472785047386	 	32
66961	729391	I wasn't as prepared as I will be this year.	I wasn't as prepared as I will be this year.	34648193	1472785047466	1472785047578	w	87
66961	729391	I wasn't as prepared as I will be this year.	I wasn't as prepared as I will be this year.	34648198	1472785047626	1472785047747	a	65
66961	729391	I wasn't as prepared as I will be this year.	I wasn't as prepared as I will be this year.	34648201	1472785047874	1472785047930	s	83
66961	729391	I wasn't as prepared as I will be this year.	I wasn't as prepared as I will be this year.	34648259	1472785048171	1472785048259	n	78
66961	729391	I wasn't as prepared as I will be this year.	I wasn't as prepared as I will be this year.	34648262	1472785048451	1472785048515	t	84
66961	729391	I wasn't as prepared as I will be this year.	I wasn't as prepared as I will be this year.	34648265	1472785048819	1472785048890	BKSP	8
66961	729391	I wasn't as prepared as I will be this year.	I wasn't as prepared as I will be this year.	34648268	1472785049283	1472785049371	'	222
66961	729391	I wasn't as prepared as I will be this year.	I wasn't as prepared as I will be this year.	34648270	1472785049547	1472785049595	t	84
66961	729391	I wasn't as prepared as I will be this year.	I wasn't as prepared as I will be this year.	34648272	1472785049619	1472785049715	 	32
66961	729391	I wasn't as prepared as I will be this year.	I wasn't as prepared as I will be this year.	34648337	1472785050034	1472785050131	a	65
66961	729391	I wasn't as prepared as I will be this year.	I wasn't as prepared as I will be this year.	34648339	1472785050146	1472785050250	s	83
66961	729391	I wasn't as prepared as I will be this year.	I wasn't as prepared as I will be this year.	34648341	1472785050219	1472785050323	 	32
66961	729391	I wasn't as prepared as I will be this year.	I wasn't as prepared as I will be this year.	34648343	1472785050803	1472785050875	p	80
66961	729391	I wasn't as prepared as I will be this year.	I wasn't as prepared as I will be this year.	34648345	1472785050938	1472785051050	r	82
66961	729391	I wasn't as prepared as I will be this year.	I wasn't as prepared as I will be this year.	34648385	1472785051019	1472785051138	e	69
66961	729391	I wasn't as prepared as I will be this year.	I wasn't as prepared as I will be this year.	34648388	1472785051299	1472785051387	p	80
66961	729391	I wasn't as prepared as I will be this year.	I wasn't as prepared as I will be this year.	34648392	1472785051523	1472785051667	a	65
66961	729391	I wasn't as prepared as I will be this year.	I wasn't as prepared as I will be this year.	34648396	1472785051707	1472785051826	r	82
66961	729391	I wasn't as prepared as I will be this year.	I wasn't as prepared as I will be this year.	34648402	1472785051803	1472785051930	e	69
66961	729391	I wasn't as prepared as I will be this year.	I wasn't as prepared as I will be this year.	34648407	1472785051986	1472785052090	d	68
66961	729391	I wasn't as prepared as I will be this year.	I wasn't as prepared as I will be this year.	34648434	1472785052099	1472785052179	 	32
66961	729391	I wasn't as prepared as I will be this year.	I wasn't as prepared as I will be this year.	34648436	1472785052187	1472785052282	a	65
66961	729391	I wasn't as prepared as I will be this year.	I wasn't as prepared as I will be this year.	34648439	1472785052403	1472785052506	s	83
66961	729391	I wasn't as prepared as I will be this year.	I wasn't as prepared as I will be this year.	34648441	1472785052555	1472785052643	 	32
66961	729391	I wasn't as prepared as I will be this year.	I wasn't as prepared as I will be this year.	34648443	1472785052715	1472785052900	i	73
66961	729391	I wasn't as prepared as I will be this year.	I wasn't as prepared as I will be this year.	34648560	1472785052875	1472785052994	 	32
66961	729391	I wasn't as prepared as I will be this year.	I wasn't as prepared as I will be this year.	34648565	1472785053179	1472785053282	l	76
66961	729391	I wasn't as prepared as I will be this year.	I wasn't as prepared as I will be this year.	34648570	1472785053530	1472785053602	BKSP	8
66961	729391	I wasn't as prepared as I will be this year.	I wasn't as prepared as I will be this year.	34648573	1472785053970	1472785054042	BKSP	8
66961	729391	I wasn't as prepared as I will be this year.	I wasn't as prepared as I will be this year.	34648575	1472785054090	1472785054171	BKSP	8
66961	729391	I wasn't as prepared as I will be this year.	I wasn't as prepared as I will be this year.	34648580	1472785054523	1472785054635	CAPS_LOCK	20
66961	729391	I wasn't as prepared as I will be this year.	I wasn't as prepared as I will be this year.	34648584	1472785054738	1472785054827	I	73
66961	729391	I wasn't as prepared as I will be this year.	I wasn't as prepared as I will be this year.	34648589	1472785054939	1472785055042	CAPS_LOCK	20
66961	729391	I wasn't as prepared as I will be this year.	I wasn't as prepared as I will be this year.	34648593	1472785055051	1472785055115	 	32
66961	729391	I wasn't as prepared as I will be this year.	I wasn't as prepared as I will be this year.	34648599	1472785055211	1472785055291	w	87
66961	729391	I wasn't as prepared as I will be this year.	I wasn't as prepared as I will be this year.	34648605	1472785055307	1472785055362	i	73
66961	729391	I wasn't as prepared as I will be this year.	I wasn't as prepared as I will be this year.	34648636	1472785055475	1472785055538	l	76
66961	729391	I wasn't as prepared as I will be this year.	I wasn't as prepared as I will be this year.	34648639	1472785055586	1472785055674	l	76
66961	729391	I wasn't as prepared as I will be this year.	I wasn't as prepared as I will be this year.	34648642	1472785056059	1472785056154	 	32
66961	729391	I wasn't as prepared as I will be this year.	I wasn't as prepared as I will be this year.	34648643	1472785056291	1472785056378	b	66
66961	729391	I wasn't as prepared as I will be this year.	I wasn't as prepared as I will be this year.	34648644	1472785056651	1472785056771	e	69
66961	729391	I wasn't as prepared as I will be this year.	I wasn't as prepared as I will be this year.	34648658	1472785056776	1472785056858	 	32
66961	729391	I wasn't as prepared as I will be this year.	I wasn't as prepared as I will be this year.	34648660	1472785056851	1472785056954	t	84
66961	729391	I wasn't as prepared as I will be this year.	I wasn't as prepared as I will be this year.	34648662	1472785056979	1472785057050	h	72
66961	729391	I wasn't as prepared as I will be this year.	I wasn't as prepared as I will be this year.	34648664	1472785057107	1472785057219	i	73
66961	729391	I wasn't as prepared as I will be this year.	I wasn't as prepared as I will be this year.	34648668	1472785057275	1472785057338	s	83
66961	729391	I wasn't as prepared as I will be this year.	I wasn't as prepared as I will be this year.	34648720	1472785057362	1472785057442	 	32
66961	729391	I wasn't as prepared as I will be this year.	I wasn't as prepared as I will be this year.	34648722	1472785057867	1472785057947	y	89
66961	729391	I wasn't as prepared as I will be this year.	I wasn't as prepared as I will be this year.	34648724	1472785058075	1472785058219	a	65
66961	729391	I wasn't as prepared as I will be this year.	I wasn't as prepared as I will be this year.	34648726	1472785058722	1472785058819	BKSP	8
66961	729391	I wasn't as prepared as I will be this year.	I wasn't as prepared as I will be this year.	34648727	1472785058843	1472785058979	e	69
66961	729391	I wasn't as prepared as I will be this year.	I wasn't as prepared as I will be this year.	34648745	1472785058939	1472785059115	a	65
66961	729391	I wasn't as prepared as I will be this year.	I wasn't as prepared as I will be this year.	34648747	1472785059179	1472785059274	r	82
66961	729403	It's a shame to have to miss one or the other.	It's a shame to have to miss one year or another,	34648858	1472785061539	1472785061651	CAPS_LOCK	20
66961	729403	It's a shame to have to miss one or the other.	It's a shame to have to miss one year or another,	34648864	1472785061683	1472785061779	I	73
66961	729403	It's a shame to have to miss one or the other.	It's a shame to have to miss one year or another,	34648870	1472785061755	1472785061867	CAPS_LOCK	20
66961	729403	It's a shame to have to miss one or the other.	It's a shame to have to miss one year or another,	34648875	1472785062147	1472785062243	t	84
66961	729403	It's a shame to have to miss one or the other.	It's a shame to have to miss one year or another,	34648881	1472785062467	1472785062554	'	222
66961	729403	It's a shame to have to miss one or the other.	It's a shame to have to miss one year or another,	34648887	1472785062579	1472785062643	s	83
66961	729403	It's a shame to have to miss one or the other.	It's a shame to have to miss one year or another,	34648893	1472785062835	1472785062922	 	32
66961	729403	It's a shame to have to miss one or the other.	It's a shame to have to miss one year or another,	34648913	1472785063147	1472785063259	a	65
66961	729403	It's a shame to have to miss one or the other.	It's a shame to have to miss one year or another,	34648919	1472785063266	1472785063346	 	32
66961	729403	It's a shame to have to miss one or the other.	It's a shame to have to miss one year or another,	34648926	1472785063458	1472785063554	s	83
66961	729403	It's a shame to have to miss one or the other.	It's a shame to have to miss one year or another,	34648932	1472785063587	1472785063658	h	72
66961	729403	It's a shame to have to miss one or the other.	It's a shame to have to miss one year or another,	34648937	1472785063690	1472785063810	a	65
66961	729403	It's a shame to have to miss one or the other.	It's a shame to have to miss one year or another,	34648943	1472785063843	1472785063970	m	77
66961	729403	It's a shame to have to miss one or the other.	It's a shame to have to miss one year or another,	34648945	1472785064002	1472785064090	e	69
66961	729403	It's a shame to have to miss one or the other.	It's a shame to have to miss one year or another,	34648947	1472785064098	1472785064187	 	32
66961	729403	It's a shame to have to miss one or the other.	It's a shame to have to miss one year or another,	34648948	1472785064283	1472785064395	t	84
66961	729403	It's a shame to have to miss one or the other.	It's a shame to have to miss one year or another,	34649005	1472785064331	1472785064507	o	79
66961	729403	It's a shame to have to miss one or the other.	It's a shame to have to miss one year or another,	34649006	1472785064459	1472785064555	 	32
66961	729403	It's a shame to have to miss one or the other.	It's a shame to have to miss one year or another,	34649008	1472785064715	1472785064819	a	65
66961	729403	It's a shame to have to miss one or the other.	It's a shame to have to miss one year or another,	34649012	1472785065043	1472785065146	v	67
66961	729403	It's a shame to have to miss one or the other.	It's a shame to have to miss one year or another,	34649016	1472785065354	1472785065418	BKSP	8
66961	729403	It's a shame to have to miss one or the other.	It's a shame to have to miss one year or another,	34649018	1472785065466	1472785065546	BKSP	8
66961	729403	It's a shame to have to miss one or the other.	It's a shame to have to miss one year or another,	34649021	1472785065579	1472785065659	BKSP	8
66961	729403	It's a shame to have to miss one or the other.	It's a shame to have to miss one year or another,	34649025	1472785066003	1472785066091	h	72
66961	729403	It's a shame to have to miss one or the other.	It's a shame to have to miss one year or another,	34649053	1472785066095	1472785066256	a	65
66961	729403	It's a shame to have to miss one or the other.	It's a shame to have to miss one year or another,	34649059	1472785066331	1472785066419	v	67
66961	729403	It's a shame to have to miss one or the other.	It's a shame to have to miss one year or another,	34649065	1472785066379	1472785066498	e	69
66961	729403	It's a shame to have to miss one or the other.	It's a shame to have to miss one year or another,	34649070	1472785066714	1472785066787	BKSP	8
66961	729403	It's a shame to have to miss one or the other.	It's a shame to have to miss one year or another,	34649074	1472785066858	1472785066930	BKSP	8
66961	729403	It's a shame to have to miss one or the other.	It's a shame to have to miss one year or another,	34649077	1472785066986	1472785067042	BKSP	8
66961	729403	It's a shame to have to miss one or the other.	It's a shame to have to miss one year or another,	34649079	1472785067218	1472785067314	e	69
66961	729403	It's a shame to have to miss one or the other.	It's a shame to have to miss one year or another,	34649095	1472785067554	1472785067634	BKSP	8
66961	729403	It's a shame to have to miss one or the other.	It's a shame to have to miss one year or another,	34649097	1472785067642	1472785067771	v	86
66961	729403	It's a shame to have to miss one or the other.	It's a shame to have to miss one year or another,	34649101	1472785067723	1472785067850	e	69
66961	729403	It's a shame to have to miss one or the other.	It's a shame to have to miss one year or another,	34649102	1472785067787	1472785067890	 	32
66961	729403	It's a shame to have to miss one or the other.	It's a shame to have to miss one year or another,	34649105	1472785067987	1472785068098	t	84
66961	729403	It's a shame to have to miss one or the other.	It's a shame to have to miss one year or another,	34649145	1472785068083	1472785068266	o	79
66961	729403	It's a shame to have to miss one or the other.	It's a shame to have to miss one year or another,	34649147	1472785068243	1472785068354	 	32
66961	729403	It's a shame to have to miss one or the other.	It's a shame to have to miss one year or another,	34649150	1472785069066	1472785069170	m	77
66961	729403	It's a shame to have to miss one or the other.	It's a shame to have to miss one year or another,	34649152	1472785069307	1472785069418	i	73
66961	729403	It's a shame to have to miss one or the other.	It's a shame to have to miss one year or another,	34649153	1472785069482	1472785069538	s	83
66961	729403	It's a shame to have to miss one or the other.	It's a shame to have to miss one year or another,	34649155	1472785069602	1472785069690	s	83
66961	729403	It's a shame to have to miss one or the other.	It's a shame to have to miss one year or another,	34649255	1472785069746	1472785069875	o	79
66961	729403	It's a shame to have to miss one or the other.	It's a shame to have to miss one year or another,	34649258	1472785070219	1472785070290	BKSP	8
66961	729403	It's a shame to have to miss one or the other.	It's a shame to have to miss one year or another,	34649260	1472785070363	1472785070451	 	32
66961	729403	It's a shame to have to miss one or the other.	It's a shame to have to miss one year or another,	34649263	1472785070602	1472785070683	i	79
66961	729403	It's a shame to have to miss one or the other.	It's a shame to have to miss one year or another,	34649265	1472785071098	1472785071171	BKSP	8
66961	729403	It's a shame to have to miss one or the other.	It's a shame to have to miss one year or another,	34649268	1472785071363	1472785071426	BKSP	8
66961	729403	It's a shame to have to miss one or the other.	It's a shame to have to miss one year or another,	34649271	1472785071858	1472785071946	o	79
66961	729403	It's a shame to have to miss one or the other.	It's a shame to have to miss one year or another,	34649304	1472785072050	1472785072198	n	78
66961	729403	It's a shame to have to miss one or the other.	It's a shame to have to miss one year or another,	34649305	1472785072171	1472785072266	 	69
66961	729403	It's a shame to have to miss one or the other.	It's a shame to have to miss one year or another,	34649306	1472785072635	1472785072723	y	89
66961	729403	It's a shame to have to miss one or the other.	It's a shame to have to miss one year or another,	34649307	1472785072875	1472785072938	e	69
66961	729403	It's a shame to have to miss one or the other.	It's a shame to have to miss one year or another,	34649340	1472785072970	1472785073115	a	65
66961	729403	It's a shame to have to miss one or the other.	It's a shame to have to miss one year or another,	34649342	1472785073178	1472785073274	r	82
66961	729403	It's a shame to have to miss one or the other.	It's a shame to have to miss one year or another,	34649344	1472785073275	1472785073378	 	32
66961	729403	It's a shame to have to miss one or the other.	It's a shame to have to miss one year or another,	34649346	1472785073418	1472785073538	o	79
66961	729403	It's a shame to have to miss one or the other.	It's a shame to have to miss one year or another,	34649350	1472785073587	1472785073667	r	82
66961	729403	It's a shame to have to miss one or the other.	It's a shame to have to miss one year or another,	34649373	1472785073671	1472785073738	 	32
66961	729403	It's a shame to have to miss one or the other.	It's a shame to have to miss one year or another,	34649377	1472785073786	1472785073890	a	65
66961	729403	It's a shame to have to miss one or the other.	It's a shame to have to miss one year or another,	34649385	1472785073915	1472785073987	n	78
66961	729403	It's a shame to have to miss one or the other.	It's a shame to have to miss one year or another,	34649390	1472785074051	1472785074155	o	79
66961	729403	It's a shame to have to miss one or the other.	It's a shame to have to miss one year or another,	34649394	1472785074219	1472785074306	t	84
66961	729403	It's a shame to have to miss one or the other.	It's a shame to have to miss one year or another,	34649440	1472785074346	1472785074434	h	72
66961	729403	It's a shame to have to miss one or the other.	It's a shame to have to miss one year or another,	34649442	1472785074442	1472785074578	e	69
66961	729403	It's a shame to have to miss one or the other.	It's a shame to have to miss one year or another,	34649446	1472785074539	1472785074658	r	82
66961	729403	It's a shame to have to miss one or the other.	It's a shame to have to miss one year or another,	34649447	1472785075019	1472785075170	,	188
66961	729416	The best-of-seven series moves to Indianapolis, Indiana.	The best-of-seven series moves to Indianapolis, Indiana	34649576	1472785077475	1472785077635	CAPS_LOCK	20
66961	729416	The best-of-seven series moves to Indianapolis, Indiana.	The best-of-seven series moves to Indianapolis, Indiana	34649581	1472785077682	1472785077802	T	84
66961	729416	The best-of-seven series moves to Indianapolis, Indiana.	The best-of-seven series moves to Indianapolis, Indiana	34649586	1472785077771	1472785077922	CAPS_LOCK	20
66961	729416	The best-of-seven series moves to Indianapolis, Indiana.	The best-of-seven series moves to Indianapolis, Indiana	34649590	1472785077842	1472785077962	h	72
66961	729416	The best-of-seven series moves to Indianapolis, Indiana.	The best-of-seven series moves to Indianapolis, Indiana	34649593	1472785078083	1472785078202	e	69
66961	729416	The best-of-seven series moves to Indianapolis, Indiana.	The best-of-seven series moves to Indianapolis, Indiana	34649596	1472785078242	1472785078298	 	32
66961	729416	The best-of-seven series moves to Indianapolis, Indiana.	The best-of-seven series moves to Indianapolis, Indiana	34649599	1472785078570	1472785078658	b	66
66961	729416	The best-of-seven series moves to Indianapolis, Indiana.	The best-of-seven series moves to Indianapolis, Indiana	34649663	1472785078650	1472785078715	e	69
66961	729416	The best-of-seven series moves to Indianapolis, Indiana.	The best-of-seven series moves to Indianapolis, Indiana	34649665	1472785078954	1472785079050	s	83
66961	729416	The best-of-seven series moves to Indianapolis, Indiana.	The best-of-seven series moves to Indianapolis, Indiana	34649666	1472785079186	1472785079298	t	84
66961	729416	The best-of-seven series moves to Indianapolis, Indiana.	The best-of-seven series moves to Indianapolis, Indiana	34649667	1472785080211	1472785080291	-	189
66961	729416	The best-of-seven series moves to Indianapolis, Indiana.	The best-of-seven series moves to Indianapolis, Indiana	34649669	1472785080482	1472785080554	o	79
66961	729416	The best-of-seven series moves to Indianapolis, Indiana.	The best-of-seven series moves to Indianapolis, Indiana	34649673	1472785080722	1472785080811	f	70
66961	729416	The best-of-seven series moves to Indianapolis, Indiana.	The best-of-seven series moves to Indianapolis, Indiana	34649744	1472785080819	1472785080883	 	32
66961	729416	The best-of-seven series moves to Indianapolis, Indiana.	The best-of-seven series moves to Indianapolis, Indiana	34649745	1472785081131	1472785081291	s	83
66961	729416	The best-of-seven series moves to Indianapolis, Indiana.	The best-of-seven series moves to Indianapolis, Indiana	34649746	1472785081275	1472785081411	e	69
66961	729416	The best-of-seven series moves to Indianapolis, Indiana.	The best-of-seven series moves to Indianapolis, Indiana	34649750	1472785081554	1472785081626	BKSP	8
66961	729416	The best-of-seven series moves to Indianapolis, Indiana.	The best-of-seven series moves to Indianapolis, Indiana	34649754	1472785081682	1472785081754	BKSP	8
66961	729416	The best-of-seven series moves to Indianapolis, Indiana.	The best-of-seven series moves to Indianapolis, Indiana	34649758	1472785081794	1472785081858	BKSP	8
66961	729416	The best-of-seven series moves to Indianapolis, Indiana.	The best-of-seven series moves to Indianapolis, Indiana	34649764	1472785082474	1472785082547	-	189
66961	729416	The best-of-seven series moves to Indianapolis, Indiana.	The best-of-seven series moves to Indianapolis, Indiana	34649770	1472785082634	1472785082787	s	83
66961	729416	The best-of-seven series moves to Indianapolis, Indiana.	The best-of-seven series moves to Indianapolis, Indiana	34649858	1472785082755	1472785082882	e	69
66961	729416	The best-of-seven series moves to Indianapolis, Indiana.	The best-of-seven series moves to Indianapolis, Indiana	34649860	1472785083042	1472785083114	v	86
66961	729416	The best-of-seven series moves to Indianapolis, Indiana.	The best-of-seven series moves to Indianapolis, Indiana	34649861	1472785083067	1472785083130	f	70
66961	729416	The best-of-seven series moves to Indianapolis, Indiana.	The best-of-seven series moves to Indianapolis, Indiana	34649862	1472785083106	1472785083202	e	69
66961	729416	The best-of-seven series moves to Indianapolis, Indiana.	The best-of-seven series moves to Indianapolis, Indiana	34649863	1472785083594	1472785083666	=	187
66961	729416	The best-of-seven series moves to Indianapolis, Indiana.	The best-of-seven series moves to Indianapolis, Indiana	34649865	1472785083874	1472785083986	BKSP	8
66961	729416	The best-of-seven series moves to Indianapolis, Indiana.	The best-of-seven series moves to Indianapolis, Indiana	34649868	1472785084034	1472785084107	BKSP	8
66961	729416	The best-of-seven series moves to Indianapolis, Indiana.	The best-of-seven series moves to Indianapolis, Indiana	34649870	1472785084162	1472785084242	BKSP	8
66961	729416	The best-of-seven series moves to Indianapolis, Indiana.	The best-of-seven series moves to Indianapolis, Indiana	34649872	1472785084306	1472785084458	v	86
66961	729416	The best-of-seven series moves to Indianapolis, Indiana.	The best-of-seven series moves to Indianapolis, Indiana	34649930	1472785084379	1472785084578	e	69
66961	729416	The best-of-seven series moves to Indianapolis, Indiana.	The best-of-seven series moves to Indianapolis, Indiana	34649934	1472785085058	1472785085139	BKSP	8
66961	729416	The best-of-seven series moves to Indianapolis, Indiana.	The best-of-seven series moves to Indianapolis, Indiana	34649938	1472785085195	1472785085275	BKSP	8
66961	729416	The best-of-seven series moves to Indianapolis, Indiana.	The best-of-seven series moves to Indianapolis, Indiana	34649940	1472785085682	1472785085794	e	69
66961	729416	The best-of-seven series moves to Indianapolis, Indiana.	The best-of-seven series moves to Indianapolis, Indiana	34649942	1472785085754	1472785085906	n	78
66961	729416	The best-of-seven series moves to Indianapolis, Indiana.	The best-of-seven series moves to Indianapolis, Indiana	34649943	1472785085874	1472785085978	 	32
66961	729416	The best-of-seven series moves to Indianapolis, Indiana.	The best-of-seven series moves to Indianapolis, Indiana	34649945	1472785086690	1472785086826	s	83
66961	729416	The best-of-seven series moves to Indianapolis, Indiana.	The best-of-seven series moves to Indianapolis, Indiana	34649948	1472785086906	1472785087018	e	69
66961	729416	The best-of-seven series moves to Indianapolis, Indiana.	The best-of-seven series moves to Indianapolis, Indiana	34649969	1472785087058	1472785087146	r	82
66961	729416	The best-of-seven series moves to Indianapolis, Indiana.	The best-of-seven series moves to Indianapolis, Indiana	34649972	1472785087330	1472785087410	i	73
66961	729416	The best-of-seven series moves to Indianapolis, Indiana.	The best-of-seven series moves to Indianapolis, Indiana	34649974	1472785087458	1472785087522	e	69
66961	729416	The best-of-seven series moves to Indianapolis, Indiana.	The best-of-seven series moves to Indianapolis, Indiana	34649976	1472785087650	1472785087754	s	83
66961	729416	The best-of-seven series moves to Indianapolis, Indiana.	The best-of-seven series moves to Indianapolis, Indiana	34649978	1472785087810	1472785087891	 	32
66961	729416	The best-of-seven series moves to Indianapolis, Indiana.	The best-of-seven series moves to Indianapolis, Indiana	34650071	1472785088034	1472785088154	m	77
66961	729416	The best-of-seven series moves to Indianapolis, Indiana.	The best-of-seven series moves to Indianapolis, Indiana	34650072	1472785088250	1472785088354	o	79
66961	729416	The best-of-seven series moves to Indianapolis, Indiana.	The best-of-seven series moves to Indianapolis, Indiana	34650073	1472785088426	1472785088578	c	67
66961	729416	The best-of-seven series moves to Indianapolis, Indiana.	The best-of-seven series moves to Indianapolis, Indiana	34650074	1472785088547	1472785088618	e	69
66961	729416	The best-of-seven series moves to Indianapolis, Indiana.	The best-of-seven series moves to Indianapolis, Indiana	34650075	1472785088914	1472785088962	BKSP	8
66961	729416	The best-of-seven series moves to Indianapolis, Indiana.	The best-of-seven series moves to Indianapolis, Indiana	34650078	1472785089034	1472785089106	BKSP	8
66961	729416	The best-of-seven series moves to Indianapolis, Indiana.	The best-of-seven series moves to Indianapolis, Indiana	34650081	1472785089162	1472785089258	BKSP	8
66961	729416	The best-of-seven series moves to Indianapolis, Indiana.	The best-of-seven series moves to Indianapolis, Indiana	34650084	1472785089858	1472785089938	o	79
66961	729416	The best-of-seven series moves to Indianapolis, Indiana.	The best-of-seven series moves to Indianapolis, Indiana	34650113	1472785089978	1472785090132	v	86
66961	729416	The best-of-seven series moves to Indianapolis, Indiana.	The best-of-seven series moves to Indianapolis, Indiana	34650116	1472785090090	1472785090218	e	69
66961	729416	The best-of-seven series moves to Indianapolis, Indiana.	The best-of-seven series moves to Indianapolis, Indiana	34650120	1472785090330	1472785090426	s	83
66961	729416	The best-of-seven series moves to Indianapolis, Indiana.	The best-of-seven series moves to Indianapolis, Indiana	34650124	1472785090490	1472785090581	 	32
66961	729416	The best-of-seven series moves to Indianapolis, Indiana.	The best-of-seven series moves to Indianapolis, Indiana	34650126	1472785090810	1472785090882	o	84
66961	729416	The best-of-seven series moves to Indianapolis, Indiana.	The best-of-seven series moves to Indianapolis, Indiana	34650246	1472785091346	1472785091427	 	32
66961	729416	The best-of-seven series moves to Indianapolis, Indiana.	The best-of-seven series moves to Indianapolis, Indiana	34650248	1472785091595	1472785091722	CAPS_LOCK	20
66961	729416	The best-of-seven series moves to Indianapolis, Indiana.	The best-of-seven series moves to Indianapolis, Indiana	34650249	1472785091771	1472785091804	I	73
66961	729416	The best-of-seven series moves to Indianapolis, Indiana.	The best-of-seven series moves to Indianapolis, Indiana	34650251	1472785092691	1472785092810	CAPS_LOCK	20
66961	729416	The best-of-seven series moves to Indianapolis, Indiana.	The best-of-seven series moves to Indianapolis, Indiana	34650252	1472785092979	1472785093050	n	78
66961	729416	The best-of-seven series moves to Indianapolis, Indiana.	The best-of-seven series moves to Indianapolis, Indiana	34650254	1472785093442	1472785093586	d	68
66961	729416	The best-of-seven series moves to Indianapolis, Indiana.	The best-of-seven series moves to Indianapolis, Indiana	34650255	1472785093874	1472785093962	i	73
66961	729416	The best-of-seven series moves to Indianapolis, Indiana.	The best-of-seven series moves to Indianapolis, Indiana	34650289	1472785093971	1472785094082	a	65
66961	729416	The best-of-seven series moves to Indianapolis, Indiana.	The best-of-seven series moves to Indianapolis, Indiana	34650292	1472785094122	1472785094194	n	78
66961	729416	The best-of-seven series moves to Indianapolis, Indiana.	The best-of-seven series moves to Indianapolis, Indiana	34650295	1472785094402	1472785094482	a	65
66961	729416	The best-of-seven series moves to Indianapolis, Indiana.	The best-of-seven series moves to Indianapolis, Indiana	34650298	1472785094642	1472785094714	p	80
66961	729416	The best-of-seven series moves to Indianapolis, Indiana.	The best-of-seven series moves to Indianapolis, Indiana	34650300	1472785094787	1472785094852	o	79
66961	729416	The best-of-seven series moves to Indianapolis, Indiana.	The best-of-seven series moves to Indianapolis, Indiana	34650379	1472785094922	1472785094994	l	76
66961	729416	The best-of-seven series moves to Indianapolis, Indiana.	The best-of-seven series moves to Indianapolis, Indiana	34650381	1472785095106	1472785095178	i	73
66961	729416	The best-of-seven series moves to Indianapolis, Indiana.	The best-of-seven series moves to Indianapolis, Indiana	34650384	1472785095298	1472785095386	s	83
66961	729416	The best-of-seven series moves to Indianapolis, Indiana.	The best-of-seven series moves to Indianapolis, Indiana	34650386	1472785095458	1472785095514	 	32
66961	729416	The best-of-seven series moves to Indianapolis, Indiana.	The best-of-seven series moves to Indianapolis, Indiana	34650388	1472785095914	1472785095986	BKSP	8
66961	729416	The best-of-seven series moves to Indianapolis, Indiana.	The best-of-seven series moves to Indianapolis, Indiana	34650392	1472785096338	1472785096466	,	188
66961	729416	The best-of-seven series moves to Indianapolis, Indiana.	The best-of-seven series moves to Indianapolis, Indiana	34650448	1472785096419	1472785096506	 	32
66961	729416	The best-of-seven series moves to Indianapolis, Indiana.	The best-of-seven series moves to Indianapolis, Indiana	34650449	1472785096651	1472785096746	CAPS_LOCK	20
66961	729416	The best-of-seven series moves to Indianapolis, Indiana.	The best-of-seven series moves to Indianapolis, Indiana	34650450	1472785096778	1472785096842	I	73
66961	729416	The best-of-seven series moves to Indianapolis, Indiana.	The best-of-seven series moves to Indianapolis, Indiana	34650451	1472785096867	1472785096954	CAPS_LOCK	20
66961	729416	The best-of-seven series moves to Indianapolis, Indiana.	The best-of-seven series moves to Indianapolis, Indiana	34650452	1472785096986	1472785097050	n	78
66961	729416	The best-of-seven series moves to Indianapolis, Indiana.	The best-of-seven series moves to Indianapolis, Indiana	34650454	1472785097267	1472785097330	d	68
66961	729416	The best-of-seven series moves to Indianapolis, Indiana.	The best-of-seven series moves to Indianapolis, Indiana	34650455	1472785097866	1472785097962	i	73
66961	729416	The best-of-seven series moves to Indianapolis, Indiana.	The best-of-seven series moves to Indianapolis, Indiana	34650457	1472785098018	1472785098098	a	65
66961	729416	The best-of-seven series moves to Indianapolis, Indiana.	The best-of-seven series moves to Indianapolis, Indiana	34650532	1472785099162	1472785099226	n	78
66961	729416	The best-of-seven series moves to Indianapolis, Indiana.	The best-of-seven series moves to Indianapolis, Indiana	34650537	1472785099227	1472785099322	a	65
66961	729440	On my way back.	On my way back.	34650667	1472785102092	1472785102227	CAPS_LOCK	20
66961	729440	On my way back.	On my way back.	34650670	1472785102154	1472785102235	O	79
66961	729440	On my way back.	On my way back.	34650675	1472785102420	1472785102556	N	78
66961	729440	On my way back.	On my way back.	34650679	1472785102523	1472785102610	 	32
66961	729440	On my way back.	On my way back.	34650684	1472785102739	1472785102842	M	77
66961	729440	On my way back.	On my way back.	34650689	1472785103051	1472785103106	=	187
66961	729440	On my way back.	On my way back.	34650760	1472785103194	1472785103218	BKSP	8
66961	729440	On my way back.	On my way back.	34650762	1472785103258	1472785103363	BKSP	8
66961	729440	On my way back.	On my way back.	34650766	1472785103403	1472785103482	BKSP	8
66961	729440	On my way back.	On my way back.	34650768	1472785103531	1472785103586	BKSP	8
66961	729440	On my way back.	On my way back.	34650771	1472785103907	1472785104026	CAPS_LOCK	20
66961	729440	On my way back.	On my way back.	34650775	1472785104298	1472785104427	n	78
66961	729440	On my way back.	On my way back.	34650779	1472785104402	1472785104498	 	32
66961	729440	On my way back.	On my way back.	34650783	1472785104610	1472785104706	m	77
66961	729440	On my way back.	On my way back.	34650786	1472785104794	1472785104882	y	89
66961	729440	On my way back.	On my way back.	34650788	1472785104890	1472785104986	 	32
66961	729440	On my way back.	On my way back.	34650814	1472785105146	1472785105196	w	87
66961	729440	On my way back.	On my way back.	34650816	1472785105218	1472785105331	a	65
66961	729440	On my way back.	On my way back.	34650820	1472785105354	1472785105466	y	89
66961	729440	On my way back.	On my way back.	34650824	1472785105435	1472785105538	 	32
66961	729440	On my way back.	On my way back.	34650829	1472785105987	1472785106075	b	66
66961	729440	On my way back.	On my way back.	34650851	1472785106082	1472785106186	a	65
66961	729440	On my way back.	On my way back.	34650853	1472785106290	1472785106394	c	67
66961	729440	On my way back.	On my way back.	34650856	1472785106386	1472785106466	k	75
66961	729446	Don't know how that happened.	Don't know how that happened.	34650997	1472785109363	1472785109514	CAPS_LOCK	20
66961	729446	Don't know how that happened.	Don't know how that happened.	34651000	1472785109682	1472785109834	D	68
66961	729446	Don't know how that happened.	Don't know how that happened.	34651002	1472785109787	1472785109906	CAPS_LOCK	20
66961	729446	Don't know how that happened.	Don't know how that happened.	34651006	1472785109946	1472785110002	o	79
66961	729446	Don't know how that happened.	Don't know how that happened.	34651009	1472785110586	1472785110650	n	78
66961	729446	Don't know how that happened.	Don't know how that happened.	34651013	1472785111194	1472785111293	'	222
66961	729446	Don't know how that happened.	Don't know how that happened.	34651068	1472785111266	1472785111378	t	84
66961	729446	Don't know how that happened.	Don't know how that happened.	34651072	1472785111386	1472785111491	 	32
66961	729446	Don't know how that happened.	Don't know how that happened.	34651076	1472785111770	1472785111898	k	75
66961	729446	Don't know how that happened.	Don't know how that happened.	34651080	1472785111938	1472785112050	n	78
66961	729446	Don't know how that happened.	Don't know how that happened.	34651085	1472785112115	1472785112230	o	79
66961	729446	Don't know how that happened.	Don't know how that happened.	34651142	1472785112203	1472785112282	w	87
66961	729446	Don't know how that happened.	Don't know how that happened.	34651148	1472785112314	1472785112394	 	32
66961	729446	Don't know how that happened.	Don't know how that happened.	34651152	1472785112666	1472785112747	w	87
66961	729446	Don't know how that happened.	Don't know how that happened.	34651159	1472785112754	1472785112826	h	72
66961	729446	Don't know how that happened.	Don't know how that happened.	34651164	1472785113098	1472785113162	BKSP	8
66961	729446	Don't know how that happened.	Don't know how that happened.	34651167	1472785113202	1472785113282	BKSP	8
66961	729446	Don't know how that happened.	Don't know how that happened.	34651169	1472785113570	1472785113682	h	72
66961	729446	Don't know how that happened.	Don't know how that happened.	34651171	1472785113722	1472785113834	o	79
66961	729446	Don't know how that happened.	Don't know how that happened.	34651176	1472785113986	1472785114098	w	87
66961	729446	Don't know how that happened.	Don't know how that happened.	34651178	1472785114058	1472785114138	 	32
66961	729446	Don't know how that happened.	Don't know how that happened.	34651180	1472785114186	1472785114282	t	84
66961	729446	Don't know how that happened.	Don't know how that happened.	34651181	1472785114267	1472785114370	h	72
66961	729446	Don't know how that happened.	Don't know how that happened.	34651223	1472785114354	1472785114450	a	65
66961	729446	Don't know how that happened.	Don't know how that happened.	34651226	1472785114458	1472785114578	t	84
66961	729446	Don't know how that happened.	Don't know how that happened.	34651227	1472785114546	1472785114642	 	32
66961	729446	Don't know how that happened.	Don't know how that happened.	34651228	1472785115082	1472785115154	h	72
66961	729446	Don't know how that happened.	Don't know how that happened.	34651229	1472785115162	1472785115250	a	65
66961	729446	Don't know how that happened.	Don't know how that happened.	34651230	1472785115338	1472785115410	p	80
66961	729446	Don't know how that happened.	Don't know how that happened.	34651241	1472785115458	1472785115514	p	80
66961	729446	Don't know how that happened.	Don't know how that happened.	34651243	1472785115530	1472785115642	e	69
66961	729446	Don't know how that happened.	Don't know how that happened.	34651247	1472785115690	1472785115770	n	78
66961	729446	Don't know how that happened.	Don't know how that happened.	34651251	1472785115794	1472785115858	e	69
66961	729446	Don't know how that happened.	Don't know how that happened.	34651253	1472785115914	1472785116010	d	68
