PARTICIPANT_ID	TEST_SECTION_ID	SENTENCE	USER_INPUT	KEYSTROKE_ID	PRESS_TIME	RELEASE_TIME	LETTER	KEYCODE
68787	750056	We know this is a big time at the speedway.	We know this is a big time at the speedway.	35636753	1472799160342	1472799160607	SHIFT	16
68787	750056	We know this is a big time at the speedway.	We know this is a big time at the speedway.	35636756	1472799160576	1472799160765	W	87
68787	750056	We know this is a big time at the speedway.	We know this is a big time at the speedway.	35636759	1472799160731	1472799160818	e	69
68787	750056	We know this is a big time at the speedway.	We know this is a big time at the speedway.	35636760	1472799160865	1472799161046	 	32
68787	750056	We know this is a big time at the speedway.	We know this is a big time at the speedway.	35636761	1472799161031	1472799161159	k	75
68787	750056	We know this is a big time at the speedway.	We know this is a big time at the speedway.	35636791	1472799161118	1472799161239	n	78
68787	750056	We know this is a big time at the speedway.	We know this is a big time at the speedway.	35636793	1472799161333	1472799161451	o	79
68787	750056	We know this is a big time at the speedway.	We know this is a big time at the speedway.	35636795	1472799161529	1472799161653	w	87
68787	750056	We know this is a big time at the speedway.	We know this is a big time at the speedway.	35636797	1472799161778	1472799161883	 	32
68787	750056	We know this is a big time at the speedway.	We know this is a big time at the speedway.	35636799	1472799162070	1472799162137	t	89
68787	750056	We know this is a big time at the speedway.	We know this is a big time at the speedway.	35636845	1472799162389	1472799162469	BKSP	8
68787	750056	We know this is a big time at the speedway.	We know this is a big time at the speedway.	35636848	1472799162593	1472799162715	t	84
68787	750056	We know this is a big time at the speedway.	We know this is a big time at the speedway.	35636852	1472799162902	1472799162939	BKSP	8
68787	750056	We know this is a big time at the speedway.	We know this is a big time at the speedway.	35636856	1472799162985	1472799163054	BKSP	8
68787	750056	We know this is a big time at the speedway.	We know this is a big time at the speedway.	35636859	1472799163132	1472799163203	t	84
68787	750056	We know this is a big time at the speedway.	We know this is a big time at the speedway.	35636863	1472799163250	1472799163469	h	72
68787	750056	We know this is a big time at the speedway.	We know this is a big time at the speedway.	35636866	1472799163397	1472799163515	o	79
68787	750056	We know this is a big time at the speedway.	We know this is a big time at the speedway.	35636869	1472799163609	1472799163713	s	83
68787	750056	We know this is a big time at the speedway.	We know this is a big time at the speedway.	35636914	1472799163954	1472799164018	BKSP	8
68787	750056	We know this is a big time at the speedway.	We know this is a big time at the speedway.	35636920	1472799164050	1472799164121	BKSP	8
68787	750056	We know this is a big time at the speedway.	We know this is a big time at the speedway.	35636922	1472799164573	1472799164668	i	73
68787	750056	We know this is a big time at the speedway.	We know this is a big time at the speedway.	35636924	1472799164715	1472799164816	s	83
68787	750056	We know this is a big time at the speedway.	We know this is a big time at the speedway.	35636926	1472799164816	1472799164963	 	32
68787	750056	We know this is a big time at the speedway.	We know this is a big time at the speedway.	35636927	1472799164963	1472799165082	i	73
68787	750056	We know this is a big time at the speedway.	We know this is a big time at the speedway.	35636928	1472799165129	1472799165248	s	83
68787	750056	We know this is a big time at the speedway.	We know this is a big time at the speedway.	35636949	1472799165297	1472799165353	 	32
68787	750056	We know this is a big time at the speedway.	We know this is a big time at the speedway.	35636954	1472799165400	1472799165469	a	65
68787	750056	We know this is a big time at the speedway.	We know this is a big time at the speedway.	35636957	1472799165516	1472799165568	 	32
68787	750056	We know this is a big time at the speedway.	We know this is a big time at the speedway.	35636960	1472799165849	1472799165908	b	66
68787	750056	We know this is a big time at the speedway.	We know this is a big time at the speedway.	35636962	1472799166017	1472799166131	i	73
68787	750056	We know this is a big time at the speedway.	We know this is a big time at the speedway.	35636976	1472799166209	1472799166286	g	71
68787	750056	We know this is a big time at the speedway.	We know this is a big time at the speedway.	35636979	1472799166301	1472799166431	 	32
68787	750056	We know this is a big time at the speedway.	We know this is a big time at the speedway.	35636981	1472799166399	1472799166500	t	84
68787	750056	We know this is a big time at the speedway.	We know this is a big time at the speedway.	35636983	1472799166500	1472799166584	i	73
68787	750056	We know this is a big time at the speedway.	We know this is a big time at the speedway.	35636985	1472799166678	1472799166786	m	77
68787	750056	We know this is a big time at the speedway.	We know this is a big time at the speedway.	35637031	1472799166823	1472799166900	e	69
68787	750056	We know this is a big time at the speedway.	We know this is a big time at the speedway.	35637033	1472799167009	1472799167102	 	32
68787	750056	We know this is a big time at the speedway.	We know this is a big time at the speedway.	35637035	1472799167133	1472799167246	a	65
68787	750056	We know this is a big time at the speedway.	We know this is a big time at the speedway.	35637037	1472799167436	1472799167488	 	32
68787	750056	We know this is a big time at the speedway.	We know this is a big time at the speedway.	35637039	1472799167784	1472799167869	BKSP	8
68787	750056	We know this is a big time at the speedway.	We know this is a big time at the speedway.	35637042	1472799167884	1472799167967	t	84
68787	750056	We know this is a big time at the speedway.	We know this is a big time at the speedway.	35637079	1472799167967	1472799168067	 	32
68787	750056	We know this is a big time at the speedway.	We know this is a big time at the speedway.	35637080	1472799168098	1472799168152	t	84
68787	750056	We know this is a big time at the speedway.	We know this is a big time at the speedway.	35637081	1472799168183	1472799168284	h	72
68787	750056	We know this is a big time at the speedway.	We know this is a big time at the speedway.	35637082	1472799168299	1472799168384	e	69
68787	750056	We know this is a big time at the speedway.	We know this is a big time at the speedway.	35637083	1472799168430	1472799168528	 	32
68787	750056	We know this is a big time at the speedway.	We know this is a big time at the speedway.	35637084	1472799168638	1472799168717	s	83
68787	750056	We know this is a big time at the speedway.	We know this is a big time at the speedway.	35637109	1472799168749	1472799168818	p	80
68787	750056	We know this is a big time at the speedway.	We know this is a big time at the speedway.	35637112	1472799168865	1472799168919	e	69
68787	750056	We know this is a big time at the speedway.	We know this is a big time at the speedway.	35637115	1472799168966	1472799169053	e	69
68787	750056	We know this is a big time at the speedway.	We know this is a big time at the speedway.	35637118	1472799169162	1472799169250	d	68
68787	750056	We know this is a big time at the speedway.	We know this is a big time at the speedway.	35637119	1472799169328	1472799169517	w	87
68787	750056	We know this is a big time at the speedway.	We know this is a big time at the speedway.	35637140	1472799169463	1472799169613	a	65
68787	750056	We know this is a big time at the speedway.	We know this is a big time at the speedway.	35637143	1472799169753	1472799169835	y	89
68787	750056	We know this is a big time at the speedway.	We know this is a big time at the speedway.	35637146	1472799169929	1472799170016	.	190
68787	750067	No, just Thursday and Friday of this week.	No, just Thursday and Friday of this week.	35637325	1472799172776	1472799172961	SHIFT	16
68787	750067	No, just Thursday and Friday of this week.	No, just Thursday and Friday of this week.	35637327	1472799172906	1472799172961	N	78
68787	750067	No, just Thursday and Friday of this week.	No, just Thursday and Friday of this week.	35637329	1472799173048	1472799173121	o	79
68787	750067	No, just Thursday and Friday of this week.	No, just Thursday and Friday of this week.	35637330	1472799173251	1472799173371	,	188
68787	750067	No, just Thursday and Friday of this week.	No, just Thursday and Friday of this week.	35637331	1472799173661	1472799173771	 	32
68787	750067	No, just Thursday and Friday of this week.	No, just Thursday and Friday of this week.	35637332	1472799173971	1472799174018	j	74
68787	750067	No, just Thursday and Friday of this week.	No, just Thursday and Friday of this week.	35637356	1472799174113	1472799174188	u	85
68787	750067	No, just Thursday and Friday of this week.	No, just Thursday and Friday of this week.	35637361	1472799174218	1472799174361	s	83
68787	750067	No, just Thursday and Friday of this week.	No, just Thursday and Friday of this week.	35637364	1472799174371	1472799174448	t	84
68787	750067	No, just Thursday and Friday of this week.	No, just Thursday and Friday of this week.	35637367	1472799174468	1472799174596	 	32
68787	750067	No, just Thursday and Friday of this week.	No, just Thursday and Friday of this week.	35637370	1472799174692	1472799174951	SHIFT	16
68787	750067	No, just Thursday and Friday of this week.	No, just Thursday and Friday of this week.	35637428	1472799174895	1472799174987	T	84
68787	750067	No, just Thursday and Friday of this week.	No, just Thursday and Friday of this week.	35637432	1472799174987	1472799175080	h	72
68787	750067	No, just Thursday and Friday of this week.	No, just Thursday and Friday of this week.	35637436	1472799175299	1472799175368	u	85
68787	750067	No, just Thursday and Friday of this week.	No, just Thursday and Friday of this week.	35637438	1472799175493	1472799175552	r	82
68787	750067	No, just Thursday and Friday of this week.	No, just Thursday and Friday of this week.	35637439	1472799176162	1472799176216	s	83
68787	750067	No, just Thursday and Friday of this week.	No, just Thursday and Friday of this week.	35637441	1472799176325	1472799176482	d	68
68787	750067	No, just Thursday and Friday of this week.	No, just Thursday and Friday of this week.	35637494	1472799176431	1472799176568	a	65
68787	750067	No, just Thursday and Friday of this week.	No, just Thursday and Friday of this week.	35637495	1472799177268	1472799177336	y	89
68787	750067	No, just Thursday and Friday of this week.	No, just Thursday and Friday of this week.	35637496	1472799177398	1472799177514	 	32
68787	750067	No, just Thursday and Friday of this week.	No, just Thursday and Friday of this week.	35637497	1472799177498	1472799177632	a	65
68787	750067	No, just Thursday and Friday of this week.	No, just Thursday and Friday of this week.	35637498	1472799177583	1472799177697	n	78
68787	750067	No, just Thursday and Friday of this week.	No, just Thursday and Friday of this week.	35637499	1472799177697	1472799177768	d	68
68787	750067	No, just Thursday and Friday of this week.	No, just Thursday and Friday of this week.	35637549	1472799177799	1472799177913	 	32
68787	750067	No, just Thursday and Friday of this week.	No, just Thursday and Friday of this week.	35637553	1472799177944	1472799178213	SHIFT	16
68787	750067	No, just Thursday and Friday of this week.	No, just Thursday and Friday of this week.	35637557	1472799178100	1472799178228	F	70
68787	750067	No, just Thursday and Friday of this week.	No, just Thursday and Friday of this week.	35637561	1472799178343	1472799178431	r	82
68787	750067	No, just Thursday and Friday of this week.	No, just Thursday and Friday of this week.	35637563	1472799178509	1472799178581	i	73
68787	750067	No, just Thursday and Friday of this week.	No, just Thursday and Friday of this week.	35637567	1472799178799	1472799178960	d	68
68787	750067	No, just Thursday and Friday of this week.	No, just Thursday and Friday of this week.	35637601	1472799178914	1472799179032	a	65
68787	750067	No, just Thursday and Friday of this week.	No, just Thursday and Friday of this week.	35637603	1472799179328	1472799179400	y	89
68787	750067	No, just Thursday and Friday of this week.	No, just Thursday and Friday of this week.	35637605	1472799179525	1472799179659	 	32
68787	750067	No, just Thursday and Friday of this week.	No, just Thursday and Friday of this week.	35637608	1472799179659	1472799179732	o	79
68787	750067	No, just Thursday and Friday of this week.	No, just Thursday and Friday of this week.	35637610	1472799179810	1472799179897	f	70
68787	750067	No, just Thursday and Friday of this week.	No, just Thursday and Friday of this week.	35637628	1472799179897	1472799180013	 	32
68787	750067	No, just Thursday and Friday of this week.	No, just Thursday and Friday of this week.	35637632	1472799180013	1472799180096	t	84
68787	750067	No, just Thursday and Friday of this week.	No, just Thursday and Friday of this week.	35637637	1472799180096	1472799180232	h	72
68787	750067	No, just Thursday and Friday of this week.	No, just Thursday and Friday of this week.	35637642	1472799180181	1472799180326	i	73
68787	750067	No, just Thursday and Friday of this week.	No, just Thursday and Friday of this week.	35637647	1472799180326	1472799180412	s	83
68787	750067	No, just Thursday and Friday of this week.	No, just Thursday and Friday of this week.	35637654	1472799180433	1472799180562	 	32
68787	750067	No, just Thursday and Friday of this week.	No, just Thursday and Friday of this week.	35637683	1472799180562	1472799180618	w	87
68787	750067	No, just Thursday and Friday of this week.	No, just Thursday and Friday of this week.	35637688	1472799180729	1472799180799	e	69
68787	750067	No, just Thursday and Friday of this week.	No, just Thursday and Friday of this week.	35637694	1472799180892	1472799180980	e	69
68787	750067	No, just Thursday and Friday of this week.	No, just Thursday and Friday of this week.	35637697	1472799181089	1472799181166	k	75
68787	750067	No, just Thursday and Friday of this week.	No, just Thursday and Friday of this week.	35637700	1472799181659	1472799181717	.	190
68787	750075	I was a bit rusty but I didn't want to miss the elections back home.	I was a bit rusty but I didn't want to miss the elections back home.	35637899	1472799182766	1472799182879	SHIFT	16
68787	750075	I was a bit rusty but I didn't want to miss the elections back home.	I was a bit rusty but I didn't want to miss the elections back home.	35637906	1472799186170	1472799186394	SHIFT	16
68787	750075	I was a bit rusty but I didn't want to miss the elections back home.	I was a bit rusty but I didn't want to miss the elections back home.	35637903	1472799186295	1472799186363	I	73
68787	750075	I was a bit rusty but I didn't want to miss the elections back home.	I was a bit rusty but I didn't want to miss the elections back home.	35637910	1472799186472	1472799186611	 	32
68787	750075	I was a bit rusty but I didn't want to miss the elections back home.	I was a bit rusty but I didn't want to miss the elections back home.	35637915	1472799186611	1472799186727	w	87
68787	750075	I was a bit rusty but I didn't want to miss the elections back home.	I was a bit rusty but I didn't want to miss the elections back home.	35637919	1472799186712	1472799186913	a	65
68787	750075	I was a bit rusty but I didn't want to miss the elections back home.	I was a bit rusty but I didn't want to miss the elections back home.	35637943	1472799186828	1472799186964	s	83
68787	750075	I was a bit rusty but I didn't want to miss the elections back home.	I was a bit rusty but I didn't want to miss the elections back home.	35637944	1472799187027	1472799187114	 	32
68787	750075	I was a bit rusty but I didn't want to miss the elections back home.	I was a bit rusty but I didn't want to miss the elections back home.	35637945	1472799187145	1472799187246	a	65
68787	750075	I was a bit rusty but I didn't want to miss the elections back home.	I was a bit rusty but I didn't want to miss the elections back home.	35637946	1472799187246	1472799187315	 	32
68787	750075	I was a bit rusty but I didn't want to miss the elections back home.	I was a bit rusty but I didn't want to miss the elections back home.	35637947	1472799187487	1472799187564	b	66
68787	750075	I was a bit rusty but I didn't want to miss the elections back home.	I was a bit rusty but I didn't want to miss the elections back home.	35637950	1472799187642	1472799187761	i	73
68787	750075	I was a bit rusty but I didn't want to miss the elections back home.	I was a bit rusty but I didn't want to miss the elections back home.	35637962	1472799187826	1472799187897	t	84
68787	750075	I was a bit rusty but I didn't want to miss the elections back home.	I was a bit rusty but I didn't want to miss the elections back home.	35637965	1472799187929	1472799188029	 	32
68787	750075	I was a bit rusty but I didn't want to miss the elections back home.	I was a bit rusty but I didn't want to miss the elections back home.	35637968	1472799188045	1472799188132	r	82
68787	750075	I was a bit rusty but I didn't want to miss the elections back home.	I was a bit rusty but I didn't want to miss the elections back home.	35637971	1472799188163	1472799188230	u	85
68787	750075	I was a bit rusty but I didn't want to miss the elections back home.	I was a bit rusty but I didn't want to miss the elections back home.	35637975	1472799188277	1472799188411	s	83
68787	750075	I was a bit rusty but I didn't want to miss the elections back home.	I was a bit rusty but I didn't want to miss the elections back home.	35638012	1472799188473	1472799188562	t	84
68787	750075	I was a bit rusty but I didn't want to miss the elections back home.	I was a bit rusty but I didn't want to miss the elections back home.	35638016	1472799188593	1472799188678	y	89
68787	750075	I was a bit rusty but I didn't want to miss the elections back home.	I was a bit rusty but I didn't want to miss the elections back home.	35638017	1472799189006	1472799189114	 	32
68787	750075	I was a bit rusty but I didn't want to miss the elections back home.	I was a bit rusty but I didn't want to miss the elections back home.	35638018	1472799189254	1472799189331	b	66
68787	750075	I was a bit rusty but I didn't want to miss the elections back home.	I was a bit rusty but I didn't want to miss the elections back home.	35638019	1472799189394	1472799189480	u	85
68787	750075	I was a bit rusty but I didn't want to miss the elections back home.	I was a bit rusty but I didn't want to miss the elections back home.	35638041	1472799189620	1472799189682	t	84
68787	750075	I was a bit rusty but I didn't want to miss the elections back home.	I was a bit rusty but I didn't want to miss the elections back home.	35638044	1472799189713	1472799189829	 	32
68787	750075	I was a bit rusty but I didn't want to miss the elections back home.	I was a bit rusty but I didn't want to miss the elections back home.	35638047	1472799189985	1472799190163	SHIFT	16
68787	750075	I was a bit rusty but I didn't want to miss the elections back home.	I was a bit rusty but I didn't want to miss the elections back home.	35638053	1472799190063	1472799190163	I	73
68787	750075	I was a bit rusty but I didn't want to miss the elections back home.	I was a bit rusty but I didn't want to miss the elections back home.	35638057	1472799190225	1472799190326	 	32
68787	750075	I was a bit rusty but I didn't want to miss the elections back home.	I was a bit rusty but I didn't want to miss the elections back home.	35638063	1472799190482	1472799190564	d	68
68787	750075	I was a bit rusty but I didn't want to miss the elections back home.	I was a bit rusty but I didn't want to miss the elections back home.	35638104	1472799190613	1472799190696	i	73
68787	750075	I was a bit rusty but I didn't want to miss the elections back home.	I was a bit rusty but I didn't want to miss the elections back home.	35638106	1472799190696	1472799190763	d	68
68787	750075	I was a bit rusty but I didn't want to miss the elections back home.	I was a bit rusty but I didn't want to miss the elections back home.	35638108	1472799190903	1472799190957	n	78
68787	750075	I was a bit rusty but I didn't want to miss the elections back home.	I was a bit rusty but I didn't want to miss the elections back home.	35638110	1472799191482	1472799191561	'	222
68787	750075	I was a bit rusty but I didn't want to miss the elections back home.	I was a bit rusty but I didn't want to miss the elections back home.	35638111	1472799191686	1472799191763	t	84
68787	750075	I was a bit rusty but I didn't want to miss the elections back home.	I was a bit rusty but I didn't want to miss the elections back home.	35638154	1472799192157	1472799192228	 	32
68787	750075	I was a bit rusty but I didn't want to miss the elections back home.	I was a bit rusty but I didn't want to miss the elections back home.	35638158	1472799192228	1472799192379	w	87
68787	750075	I was a bit rusty but I didn't want to miss the elections back home.	I was a bit rusty but I didn't want to miss the elections back home.	35638161	1472799192311	1472799192457	a	65
68787	750075	I was a bit rusty but I didn't want to miss the elections back home.	I was a bit rusty but I didn't want to miss the elections back home.	35638164	1472799192441	1472799192513	n	78
68787	750075	I was a bit rusty but I didn't want to miss the elections back home.	I was a bit rusty but I didn't want to miss the elections back home.	35638166	1472799192560	1472799192647	t	84
68787	750075	I was a bit rusty but I didn't want to miss the elections back home.	I was a bit rusty but I didn't want to miss the elections back home.	35638178	1472799192647	1472799192761	 	32
68787	750075	I was a bit rusty but I didn't want to miss the elections back home.	I was a bit rusty but I didn't want to miss the elections back home.	35638179	1472799192745	1472799192829	t	84
68787	750075	I was a bit rusty but I didn't want to miss the elections back home.	I was a bit rusty but I didn't want to miss the elections back home.	35638180	1472799192794	1472799192910	o	79
68787	750075	I was a bit rusty but I didn't want to miss the elections back home.	I was a bit rusty but I didn't want to miss the elections back home.	35638181	1472799192910	1472799193090	 	32
68787	750075	I was a bit rusty but I didn't want to miss the elections back home.	I was a bit rusty but I didn't want to miss the elections back home.	35638182	1472799193059	1472799193221	m	77
68787	750075	I was a bit rusty but I didn't want to miss the elections back home.	I was a bit rusty but I didn't want to miss the elections back home.	35638195	1472799193158	1472799193280	i	73
68787	750075	I was a bit rusty but I didn't want to miss the elections back home.	I was a bit rusty but I didn't want to miss the elections back home.	35638198	1472799193311	1472799193378	s	83
68787	750075	I was a bit rusty but I didn't want to miss the elections back home.	I was a bit rusty but I didn't want to miss the elections back home.	35638201	1472799193409	1472799193526	s	83
68787	750075	I was a bit rusty but I didn't want to miss the elections back home.	I was a bit rusty but I didn't want to miss the elections back home.	35638205	1472799193542	1472799193675	 	32
68787	750075	I was a bit rusty but I didn't want to miss the elections back home.	I was a bit rusty but I didn't want to miss the elections back home.	35638209	1472799193675	1472799193747	t	84
68787	750075	I was a bit rusty but I didn't want to miss the elections back home.	I was a bit rusty but I didn't want to miss the elections back home.	35638235	1472799193747	1472799193861	h	72
68787	750075	I was a bit rusty but I didn't want to miss the elections back home.	I was a bit rusty but I didn't want to miss the elections back home.	35638236	1472799193861	1472799193930	e	69
68787	750075	I was a bit rusty but I didn't want to miss the elections back home.	I was a bit rusty but I didn't want to miss the elections back home.	35638238	1472799193946	1472799194075	 	32
68787	750075	I was a bit rusty but I didn't want to miss the elections back home.	I was a bit rusty but I didn't want to miss the elections back home.	35638240	1472799194137	1472799194261	e	69
68787	750075	I was a bit rusty but I didn't want to miss the elections back home.	I was a bit rusty but I didn't want to miss the elections back home.	35638242	1472799194276	1472799194368	l	76
68787	750075	I was a bit rusty but I didn't want to miss the elections back home.	I was a bit rusty but I didn't want to miss the elections back home.	35638244	1472799194415	1472799194510	e	69
68787	750075	I was a bit rusty but I didn't want to miss the elections back home.	I was a bit rusty but I didn't want to miss the elections back home.	35638260	1472799194625	1472799194726	c	67
68787	750075	I was a bit rusty but I didn't want to miss the elections back home.	I was a bit rusty but I didn't want to miss the elections back home.	35638262	1472799194851	1472799194930	t	84
68787	750075	I was a bit rusty but I didn't want to miss the elections back home.	I was a bit rusty but I didn't want to miss the elections back home.	35638264	1472799194930	1472799195195	i	73
68787	750075	I was a bit rusty but I didn't want to miss the elections back home.	I was a bit rusty but I didn't want to miss the elections back home.	35638318	1472799195043	1472799195211	o	79
68787	750075	I was a bit rusty but I didn't want to miss the elections back home.	I was a bit rusty but I didn't want to miss the elections back home.	35638321	1472799195113	1472799195229	n	78
68787	750075	I was a bit rusty but I didn't want to miss the elections back home.	I was a bit rusty but I didn't want to miss the elections back home.	35638325	1472799195276	1472799195394	s	83
68787	750075	I was a bit rusty but I didn't want to miss the elections back home.	I was a bit rusty but I didn't want to miss the elections back home.	35638326	1472799195378	1472799195502	 	32
68787	750075	I was a bit rusty but I didn't want to miss the elections back home.	I was a bit rusty but I didn't want to miss the elections back home.	35638327	1472799195502	1472799195673	b	66
68787	750075	I was a bit rusty but I didn't want to miss the elections back home.	I was a bit rusty but I didn't want to miss the elections back home.	35638328	1472799196084	1472799196176	a	65
68787	750075	I was a bit rusty but I didn't want to miss the elections back home.	I was a bit rusty but I didn't want to miss the elections back home.	35638329	1472799196301	1472799196378	c	67
68787	750075	I was a bit rusty but I didn't want to miss the elections back home.	I was a bit rusty but I didn't want to miss the elections back home.	35638340	1472799196443	1472799196512	k	75
68787	750075	I was a bit rusty but I didn't want to miss the elections back home.	I was a bit rusty but I didn't want to miss the elections back home.	35638343	1472799196574	1472799196677	 	32
68787	750075	I was a bit rusty but I didn't want to miss the elections back home.	I was a bit rusty but I didn't want to miss the elections back home.	35638347	1472799196693	1472799196825	h	72
68787	750075	I was a bit rusty but I didn't want to miss the elections back home.	I was a bit rusty but I didn't want to miss the elections back home.	35638351	1472799196825	1472799196912	o	79
68787	750075	I was a bit rusty but I didn't want to miss the elections back home.	I was a bit rusty but I didn't want to miss the elections back home.	35638354	1472799196959	1472799197059	m	77
68787	750075	I was a bit rusty but I didn't want to miss the elections back home.	I was a bit rusty but I didn't want to miss the elections back home.	35638550	1472799197709	1472799197778	e	69
68787	750075	I was a bit rusty but I didn't want to miss the elections back home.	I was a bit rusty but I didn't want to miss the elections back home.	35638553	1472799200066	1472799200144	BKSP	8
68787	750075	I was a bit rusty but I didn't want to miss the elections back home.	I was a bit rusty but I didn't want to miss the elections back home.	35638556	1472799200773	1472799200814	/	191
68787	750075	I was a bit rusty but I didn't want to miss the elections back home.	I was a bit rusty but I didn't want to miss the elections back home.	35638558	1472799201599	1472799201662	BKSP	8
68787	750075	I was a bit rusty but I didn't want to miss the elections back home.	I was a bit rusty but I didn't want to miss the elections back home.	35638560	1472799201928	1472799201979	.	190
68787	750093	Thanks for keeping your eyes out there on our stuff!	Thanks for keeping your eyes out there on our stuff!	35638670	1472799204952	1472799205180	SHIFT	16
68787	750093	Thanks for keeping your eyes out there on our stuff!	Thanks for keeping your eyes out there on our stuff!	35638673	1472799205123	1472799205216	T	84
68787	750093	Thanks for keeping your eyes out there on our stuff!	Thanks for keeping your eyes out there on our stuff!	35638676	1472799205180	1472799205238	h	72
68787	750093	Thanks for keeping your eyes out there on our stuff!	Thanks for keeping your eyes out there on our stuff!	35638679	1472799205321	1472799205424	a	65
68787	750093	Thanks for keeping your eyes out there on our stuff!	Thanks for keeping your eyes out there on our stuff!	35638681	1472799205409	1472799205595	n	78
68787	750093	Thanks for keeping your eyes out there on our stuff!	Thanks for keeping your eyes out there on our stuff!	35638700	1472799205523	1472799205675	k	75
68787	750093	Thanks for keeping your eyes out there on our stuff!	Thanks for keeping your eyes out there on our stuff!	35638704	1472799205675	1472799205760	s	83
68787	750093	Thanks for keeping your eyes out there on our stuff!	Thanks for keeping your eyes out there on our stuff!	35638708	1472799205854	1472799205988	 	32
68787	750093	Thanks for keeping your eyes out there on our stuff!	Thanks for keeping your eyes out there on our stuff!	35638714	1472799206274	1472799206374	f	70
68787	750093	Thanks for keeping your eyes out there on our stuff!	Thanks for keeping your eyes out there on our stuff!	35638718	1472799206374	1472799206457	o	79
68787	750093	Thanks for keeping your eyes out there on our stuff!	Thanks for keeping your eyes out there on our stuff!	35638723	1472799206504	1472799206560	r	82
68787	750093	Thanks for keeping your eyes out there on our stuff!	Thanks for keeping your eyes out there on our stuff!	35638748	1472799206612	1472799206692	 	32
68787	750093	Thanks for keeping your eyes out there on our stuff!	Thanks for keeping your eyes out there on our stuff!	35638752	1472799206879	1472799206938	k	75
68787	750093	Thanks for keeping your eyes out there on our stuff!	Thanks for keeping your eyes out there on our stuff!	35638758	1472799206992	1472799207076	k	75
68787	750093	Thanks for keeping your eyes out there on our stuff!	Thanks for keeping your eyes out there on our stuff!	35638763	1472799207108	1472799207177	e	69
68787	750093	Thanks for keeping your eyes out there on our stuff!	Thanks for keeping your eyes out there on our stuff!	35638768	1472799207193	1472799207261	p	80
68787	750093	Thanks for keeping your eyes out there on our stuff!	Thanks for keeping your eyes out there on our stuff!	35638857	1472799207389	1472799207490	i	73
68787	750093	Thanks for keeping your eyes out there on our stuff!	Thanks for keeping your eyes out there on our stuff!	35638860	1472799207614	1472799207694	n	78
68787	750093	Thanks for keeping your eyes out there on our stuff!	Thanks for keeping your eyes out there on our stuff!	35638868	1472799207756	1472799207826	g	71
68787	750093	Thanks for keeping your eyes out there on our stuff!	Thanks for keeping your eyes out there on our stuff!	35638873	1472799208315	1472799208368	BKSP	8
68787	750093	Thanks for keeping your eyes out there on our stuff!	Thanks for keeping your eyes out there on our stuff!	35638876	1472799208409	1472799208463	BKSP	8
68787	750093	Thanks for keeping your eyes out there on our stuff!	Thanks for keeping your eyes out there on our stuff!	35638880	1472799208712	1472799208778	BKSP	8
68787	750093	Thanks for keeping your eyes out there on our stuff!	Thanks for keeping your eyes out there on our stuff!	35638883	1472799208825	1472799208876	BKSP	8
68787	750093	Thanks for keeping your eyes out there on our stuff!	Thanks for keeping your eyes out there on our stuff!	35638887	1472799208923	1472799209006	BKSP	8
68787	750093	Thanks for keeping your eyes out there on our stuff!	Thanks for keeping your eyes out there on our stuff!	35638893	1472799209022	1472799209078	BKSP	8
68787	750093	Thanks for keeping your eyes out there on our stuff!	Thanks for keeping your eyes out there on our stuff!	35638901	1472799209406	1472799209467	e	69
68787	750093	Thanks for keeping your eyes out there on our stuff!	Thanks for keeping your eyes out there on our stuff!	35638909	1472799209524	1472799209625	e	69
68787	750093	Thanks for keeping your eyes out there on our stuff!	Thanks for keeping your eyes out there on our stuff!	35638921	1472799209625	1472799209806	p	80
68787	750093	Thanks for keeping your eyes out there on our stuff!	Thanks for keeping your eyes out there on our stuff!	35638924	1472799209770	1472799209859	i	73
68787	750093	Thanks for keeping your eyes out there on our stuff!	Thanks for keeping your eyes out there on our stuff!	35638925	1472799209969	1472799210059	n	78
68787	750093	Thanks for keeping your eyes out there on our stuff!	Thanks for keeping your eyes out there on our stuff!	35638926	1472799210059	1472799210141	g	71
68787	750093	Thanks for keeping your eyes out there on our stuff!	Thanks for keeping your eyes out there on our stuff!	35638927	1472799210141	1472799210288	 	32
68787	750093	Thanks for keeping your eyes out there on our stuff!	Thanks for keeping your eyes out there on our stuff!	35638928	1472799210288	1472799210359	y	89
68787	750093	Thanks for keeping your eyes out there on our stuff!	Thanks for keeping your eyes out there on our stuff!	35638929	1472799210375	1472799210560	o	79
68787	750093	Thanks for keeping your eyes out there on our stuff!	Thanks for keeping your eyes out there on our stuff!	35638930	1472799210489	1472799210592	u	85
68787	750093	Thanks for keeping your eyes out there on our stuff!	Thanks for keeping your eyes out there on our stuff!	35638931	1472799210638	1472799210708	r	82
68787	750093	Thanks for keeping your eyes out there on our stuff!	Thanks for keeping your eyes out there on our stuff!	35638932	1472799210771	1472799210874	 	32
68787	750093	Thanks for keeping your eyes out there on our stuff!	Thanks for keeping your eyes out there on our stuff!	35638971	1472799210858	1472799210959	e	69
68787	750093	Thanks for keeping your eyes out there on our stuff!	Thanks for keeping your eyes out there on our stuff!	35638974	1472799211005	1472799211108	y	89
68787	750093	Thanks for keeping your eyes out there on our stuff!	Thanks for keeping your eyes out there on our stuff!	35638977	1472799211108	1472799211271	e	69
68787	750093	Thanks for keeping your eyes out there on our stuff!	Thanks for keeping your eyes out there on our stuff!	35638981	1472799211255	1472799211451	s	83
68787	750093	Thanks for keeping your eyes out there on our stuff!	Thanks for keeping your eyes out there on our stuff!	35638983	1472799211576	1472799211692	 	32
68787	750093	Thanks for keeping your eyes out there on our stuff!	Thanks for keeping your eyes out there on our stuff!	35638984	1472799211895	1472799211977	o	79
68787	750093	Thanks for keeping your eyes out there on our stuff!	Thanks for keeping your eyes out there on our stuff!	35639010	1472799212247	1472799212309	u	85
68787	750093	Thanks for keeping your eyes out there on our stuff!	Thanks for keeping your eyes out there on our stuff!	35639012	1472799212418	1472799212508	t	84
68787	750093	Thanks for keeping your eyes out there on our stuff!	Thanks for keeping your eyes out there on our stuff!	35639014	1472799212508	1472799212638	 	32
68787	750093	Thanks for keeping your eyes out there on our stuff!	Thanks for keeping your eyes out there on our stuff!	35639017	1472799212794	1472799212892	t	84
68787	750093	Thanks for keeping your eyes out there on our stuff!	Thanks for keeping your eyes out there on our stuff!	35639022	1472799212923	1472799213008	h	72
68787	750093	Thanks for keeping your eyes out there on our stuff!	Thanks for keeping your eyes out there on our stuff!	35639052	1472799212993	1472799213124	e	69
68787	750093	Thanks for keeping your eyes out there on our stuff!	Thanks for keeping your eyes out there on our stuff!	35639055	1472799213090	1472799213243	r	82
68787	750093	Thanks for keeping your eyes out there on our stuff!	Thanks for keeping your eyes out there on our stuff!	35639058	1472799213204	1472799213337	e	69
68787	750093	Thanks for keeping your eyes out there on our stuff!	Thanks for keeping your eyes out there on our stuff!	35639059	1472799213430	1472799213587	 	32
68787	750093	Thanks for keeping your eyes out there on our stuff!	Thanks for keeping your eyes out there on our stuff!	35639061	1472799213572	1472799213672	o	79
68787	750093	Thanks for keeping your eyes out there on our stuff!	Thanks for keeping your eyes out there on our stuff!	35639063	1472799213891	1472799213952	n	78
68787	750093	Thanks for keeping your eyes out there on our stuff!	Thanks for keeping your eyes out there on our stuff!	35639077	1472799214079	1472799214204	 	32
68787	750093	Thanks for keeping your eyes out there on our stuff!	Thanks for keeping your eyes out there on our stuff!	35639080	1472799214158	1472799214353	o	79
68787	750093	Thanks for keeping your eyes out there on our stuff!	Thanks for keeping your eyes out there on our stuff!	35639082	1472799214287	1472799214391	u	85
68787	750093	Thanks for keeping your eyes out there on our stuff!	Thanks for keeping your eyes out there on our stuff!	35639083	1472799214438	1472799214508	r	82
68787	750093	Thanks for keeping your eyes out there on our stuff!	Thanks for keeping your eyes out there on our stuff!	35639085	1472799214539	1472799214624	 	32
68787	750093	Thanks for keeping your eyes out there on our stuff!	Thanks for keeping your eyes out there on our stuff!	35639108	1472799214913	1472799215023	s	83
68787	750093	Thanks for keeping your eyes out there on our stuff!	Thanks for keeping your eyes out there on our stuff!	35639109	1472799215119	1472799215223	t	84
68787	750093	Thanks for keeping your eyes out there on our stuff!	Thanks for keeping your eyes out there on our stuff!	35639111	1472799215254	1472799215341	u	85
68787	750093	Thanks for keeping your eyes out there on our stuff!	Thanks for keeping your eyes out there on our stuff!	35639113	1472799215544	1472799215626	d	68
68787	750093	Thanks for keeping your eyes out there on our stuff!	Thanks for keeping your eyes out there on our stuff!	35639115	1472799215735	1472799215825	f	70
68787	750093	Thanks for keeping your eyes out there on our stuff!	Thanks for keeping your eyes out there on our stuff!	35639165	1472799216002	1472799216070	BKSP	8
68787	750093	Thanks for keeping your eyes out there on our stuff!	Thanks for keeping your eyes out there on our stuff!	35639166	1472799216171	1472799216210	BKSP	8
68787	750093	Thanks for keeping your eyes out there on our stuff!	Thanks for keeping your eyes out there on our stuff!	35639167	1472799216412	1472799216490	f	70
68787	750093	Thanks for keeping your eyes out there on our stuff!	Thanks for keeping your eyes out there on our stuff!	35639168	1472799216552	1472799216657	f	70
68787	750093	Thanks for keeping your eyes out there on our stuff!	Thanks for keeping your eyes out there on our stuff!	35639171	1472799216751	1472799217130	SHIFT	16
68787	750093	Thanks for keeping your eyes out there on our stuff!	Thanks for keeping your eyes out there on our stuff!	35639169	1472799216985	1472799217099	!	49
68787	750102	The injury is more serious than the Panthers first expected.	The injury is more serious than the Panthers first expected.	35639294	1472799220468	1472799220702	SHIFT	16
68787	750102	The injury is more serious than the Panthers first expected.	The injury is more serious than the Panthers first expected.	35639296	1472799220656	1472799220751	T	84
68787	750102	The injury is more serious than the Panthers first expected.	The injury is more serious than the Panthers first expected.	35639299	1472799220717	1472799220799	h	72
68787	750102	The injury is more serious than the Panthers first expected.	The injury is more serious than the Panthers first expected.	35639302	1472799220830	1472799220915	e	69
68787	750102	The injury is more serious than the Panthers first expected.	The injury is more serious than the Panthers first expected.	35639305	1472799220900	1472799221050	 	32
68787	750102	The injury is more serious than the Panthers first expected.	The injury is more serious than the Panthers first expected.	35639336	1472799221013	1472799221163	i	73
68787	750102	The injury is more serious than the Panthers first expected.	The injury is more serious than the Panthers first expected.	35639339	1472799221147	1472799221246	n	78
68787	750102	The injury is more serious than the Panthers first expected.	The injury is more serious than the Panthers first expected.	35639342	1472799221386	1472799221450	j	74
68787	750102	The injury is more serious than the Panthers first expected.	The injury is more serious than the Panthers first expected.	35639344	1472799221528	1472799221649	u	85
68787	750102	The injury is more serious than the Panthers first expected.	The injury is more serious than the Panthers first expected.	35639346	1472799221870	1472799221970	r	82
68787	750102	The injury is more serious than the Panthers first expected.	The injury is more serious than the Panthers first expected.	35639355	1472799221970	1472799222065	y	89
68787	750102	The injury is more serious than the Panthers first expected.	The injury is more serious than the Panthers first expected.	35639357	1472799222268	1472799222403	 	32
68787	750102	The injury is more serious than the Panthers first expected.	The injury is more serious than the Panthers first expected.	35639359	1472799222366	1472799222482	i	73
68787	750102	The injury is more serious than the Panthers first expected.	The injury is more serious than the Panthers first expected.	35639362	1472799222466	1472799222549	s	83
68787	750102	The injury is more serious than the Panthers first expected.	The injury is more serious than the Panthers first expected.	35639363	1472799222580	1472799222714	 	32
68787	750102	The injury is more serious than the Panthers first expected.	The injury is more serious than the Panthers first expected.	35639367	1472799222714	1472799222899	m	77
68787	750102	The injury is more serious than the Panthers first expected.	The injury is more serious than the Panthers first expected.	35639392	1472799222816	1472799222930	o	79
68787	750102	The injury is more serious than the Panthers first expected.	The injury is more serious than the Panthers first expected.	35639394	1472799222961	1472799223132	r	82
68787	750102	The injury is more serious than the Panthers first expected.	The injury is more serious than the Panthers first expected.	35639396	1472799223064	1472799223179	e	69
68787	750102	The injury is more serious than the Panthers first expected.	The injury is more serious than the Panthers first expected.	35639398	1472799223194	1472799223297	 	32
68787	750102	The injury is more serious than the Panthers first expected.	The injury is more serious than the Panthers first expected.	35639400	1472799223328	1472799223416	s	83
68787	750102	The injury is more serious than the Panthers first expected.	The injury is more serious than the Panthers first expected.	35639403	1472799223559	1472799223664	e	69
68787	750102	The injury is more serious than the Panthers first expected.	The injury is more serious than the Panthers first expected.	35639434	1472799223901	1472799223999	r	82
68787	750102	The injury is more serious than the Panthers first expected.	The injury is more serious than the Panthers first expected.	35639440	1472799224128	1472799224262	i	73
68787	750102	The injury is more serious than the Panthers first expected.	The injury is more serious than the Panthers first expected.	35639444	1472799224198	1472799224386	o	79
68787	750102	The injury is more serious than the Panthers first expected.	The injury is more serious than the Panthers first expected.	35639448	1472799224343	1472799224495	u	85
68787	750102	The injury is more serious than the Panthers first expected.	The injury is more serious than the Panthers first expected.	35639452	1472799224542	1472799224661	s	83
68787	750102	The injury is more serious than the Panthers first expected.	The injury is more serious than the Panthers first expected.	35639461	1472799224775	1472799224867	 	32
68787	750102	The injury is more serious than the Panthers first expected.	The injury is more serious than the Panthers first expected.	35639465	1472799224977	1472799225064	t	84
68787	750102	The injury is more serious than the Panthers first expected.	The injury is more serious than the Panthers first expected.	35639469	1472799225080	1472799225178	h	72
68787	750102	The injury is more serious than the Panthers first expected.	The injury is more serious than the Panthers first expected.	35639473	1472799225178	1472799225311	a	65
68787	750102	The injury is more serious than the Panthers first expected.	The injury is more serious than the Panthers first expected.	35639477	1472799225409	1472799225497	n	78
68787	750102	The injury is more serious than the Panthers first expected.	The injury is more serious than the Panthers first expected.	35639501	1472799225593	1472799225713	 	32
68787	750102	The injury is more serious than the Panthers first expected.	The injury is more serious than the Panthers first expected.	35639503	1472799225713	1472799225782	t	84
68787	750102	The injury is more serious than the Panthers first expected.	The injury is more serious than the Panthers first expected.	35639504	1472799225798	1472799225865	h	72
68787	750102	The injury is more serious than the Panthers first expected.	The injury is more serious than the Panthers first expected.	35639506	1472799226287	1472799226366	e	69
68787	750102	The injury is more serious than the Panthers first expected.	The injury is more serious than the Panthers first expected.	35639509	1472799226428	1472799226529	 	32
68787	750102	The injury is more serious than the Panthers first expected.	The injury is more serious than the Panthers first expected.	35639536	1472799226561	1472799226684	SHIFT	16
68787	750102	The injury is more serious than the Panthers first expected.	The injury is more serious than the Panthers first expected.	35639538	1472799226626	1472799226715	P	80
68787	750102	The injury is more serious than the Panthers first expected.	The injury is more serious than the Panthers first expected.	35639540	1472799226762	1472799226847	a	65
68787	750102	The injury is more serious than the Panthers first expected.	The injury is more serious than the Panthers first expected.	35639544	1472799226972	1472799227080	n	78
68787	750102	The injury is more serious than the Panthers first expected.	The injury is more serious than the Panthers first expected.	35639549	1472799227127	1472799227230	t	84
68787	750102	The injury is more serious than the Panthers first expected.	The injury is more serious than the Panthers first expected.	35639552	1472799227245	1472799227349	h	72
68787	750102	The injury is more serious than the Panthers first expected.	The injury is more serious than the Panthers first expected.	35639575	1472799227349	1472799227548	e	69
68787	750102	The injury is more serious than the Panthers first expected.	The injury is more serious than the Panthers first expected.	35639578	1472799227463	1472799227579	r	82
68787	750102	The injury is more serious than the Panthers first expected.	The injury is more serious than the Panthers first expected.	35639580	1472799227720	1472799227815	s	83
68787	750102	The injury is more serious than the Panthers first expected.	The injury is more serious than the Panthers first expected.	35639582	1472799227893	1472799227996	 	32
68787	750102	The injury is more serious than the Panthers first expected.	The injury is more serious than the Panthers first expected.	35639584	1472799228183	1472799228297	f	70
68787	750102	The injury is more serious than the Panthers first expected.	The injury is more serious than the Panthers first expected.	35639608	1472799228333	1472799228447	i	73
68787	750102	The injury is more serious than the Panthers first expected.	The injury is more serious than the Panthers first expected.	35639611	1472799228431	1472799228500	r	82
68787	750102	The injury is more serious than the Panthers first expected.	The injury is more serious than the Panthers first expected.	35639615	1472799228640	1472799228793	s	83
68787	750102	The injury is more serious than the Panthers first expected.	The injury is more serious than the Panthers first expected.	35639619	1472799228777	1472799228862	t	84
68787	750102	The injury is more serious than the Panthers first expected.	The injury is more serious than the Panthers first expected.	35639622	1472799228909	1472799229035	 	32
68787	750102	The injury is more serious than the Panthers first expected.	The injury is more serious than the Panthers first expected.	35639639	1472799229071	1472799229148	e	69
68787	750102	The injury is more serious than the Panthers first expected.	The injury is more serious than the Panthers first expected.	35639641	1472799229288	1472799229365	x	88
68787	750102	The injury is more serious than the Panthers first expected.	The injury is more serious than the Panthers first expected.	35639644	1472799229523	1472799229598	p	80
68787	750102	The injury is more serious than the Panthers first expected.	The injury is more serious than the Panthers first expected.	35639648	1472799229630	1472799229779	e	69
68787	750102	The injury is more serious than the Panthers first expected.	The injury is more serious than the Panthers first expected.	35639654	1472799229872	1472799229963	c	67
68787	750102	The injury is more serious than the Panthers first expected.	The injury is more serious than the Panthers first expected.	35639703	1472799230077	1472799230230	t	84
68787	750102	The injury is more serious than the Panthers first expected.	The injury is more serious than the Panthers first expected.	35639705	1472799230164	1472799230279	e	69
68787	750102	The injury is more serious than the Panthers first expected.	The injury is more serious than the Panthers first expected.	35639709	1472799230389	1472799230448	d	68
68787	750102	The injury is more serious than the Panthers first expected.	The injury is more serious than the Panthers first expected.	35639712	1472799230947	1472799231000	.	190
68787	750115	My husband and I are on a waiting list to give blood.	My husband and I are on a waiting list to give blood.	35639796	1472799233595	1472799233761	SHIFT	16
68787	750115	My husband and I are on a waiting list to give blood.	My husband and I are on a waiting list to give blood.	35639797	1472799233673	1472799233761	M	77
68787	750115	My husband and I are on a waiting list to give blood.	My husband and I are on a waiting list to give blood.	35639798	1472799233839	1472799233930	y	89
68787	750115	My husband and I are on a waiting list to give blood.	My husband and I are on a waiting list to give blood.	35639800	1472799234071	1472799234224	 	32
68787	750115	My husband and I are on a waiting list to give blood.	My husband and I are on a waiting list to give blood.	35639802	1472799234224	1472799234348	h	72
68787	750115	My husband and I are on a waiting list to give blood.	My husband and I are on a waiting list to give blood.	35639833	1472799234282	1472799234416	u	85
68787	750115	My husband and I are on a waiting list to give blood.	My husband and I are on a waiting list to give blood.	35639836	1472799234416	1472799234511	s	83
68787	750115	My husband and I are on a waiting list to give blood.	My husband and I are on a waiting list to give blood.	35639839	1472799234574	1472799234647	b	66
68787	750115	My husband and I are on a waiting list to give blood.	My husband and I are on a waiting list to give blood.	35639841	1472799234694	1472799234812	a	65
68787	750115	My husband and I are on a waiting list to give blood.	My husband and I are on a waiting list to give blood.	35639843	1472799234812	1472799234913	n	78
68787	750115	My husband and I are on a waiting list to give blood.	My husband and I are on a waiting list to give blood.	35639846	1472799235100	1472799235195	d	68
68787	750115	My husband and I are on a waiting list to give blood.	My husband and I are on a waiting list to give blood.	35639869	1472799235434	1472799235529	 	32
68787	750115	My husband and I are on a waiting list to give blood.	My husband and I are on a waiting list to give blood.	35639873	1472799235639	1472799235744	a	65
68787	750115	My husband and I are on a waiting list to give blood.	My husband and I are on a waiting list to give blood.	35639878	1472799235791	1472799235880	n	78
68787	750115	My husband and I are on a waiting list to give blood.	My husband and I are on a waiting list to give blood.	35639882	1472799236021	1472799236111	d	68
68787	750115	My husband and I are on a waiting list to give blood.	My husband and I are on a waiting list to give blood.	35639886	1472799236142	1472799236261	 	32
68787	750115	My husband and I are on a waiting list to give blood.	My husband and I are on a waiting list to give blood.	35639905	1472799236261	1472799236413	SHIFT	16
68787	750115	My husband and I are on a waiting list to give blood.	My husband and I are on a waiting list to give blood.	35639908	1472799236326	1472799236413	I	73
68787	750115	My husband and I are on a waiting list to give blood.	My husband and I are on a waiting list to give blood.	35639913	1472799236460	1472799236547	 	32
68787	750115	My husband and I are on a waiting list to give blood.	My husband and I are on a waiting list to give blood.	35639917	1472799236547	1472799236707	a	65
68787	750115	My husband and I are on a waiting list to give blood.	My husband and I are on a waiting list to give blood.	35639919	1472799236738	1472799236916	r	82
68787	750115	My husband and I are on a waiting list to give blood.	My husband and I are on a waiting list to give blood.	35639970	1472799236844	1472799236968	e	69
68787	750115	My husband and I are on a waiting list to give blood.	My husband and I are on a waiting list to give blood.	35639974	1472799237077	1472799237162	 	32
68787	750115	My husband and I are on a waiting list to give blood.	My husband and I are on a waiting list to give blood.	35639975	1472799237303	1472799237364	o	79
68787	750115	My husband and I are on a waiting list to give blood.	My husband and I are on a waiting list to give blood.	35639977	1472799237442	1472799237527	n	78
68787	750115	My husband and I are on a waiting list to give blood.	My husband and I are on a waiting list to give blood.	35639979	1472799237605	1472799237711	 	32
68787	750115	My husband and I are on a waiting list to give blood.	My husband and I are on a waiting list to give blood.	35639981	1472799237726	1472799237842	a	65
68787	750115	My husband and I are on a waiting list to give blood.	My husband and I are on a waiting list to give blood.	35640012	1472799237842	1472799237930	 	32
68787	750115	My husband and I are on a waiting list to give blood.	My husband and I are on a waiting list to give blood.	35640017	1472799238039	1472799238199	w	87
68787	750115	My husband and I are on a waiting list to give blood.	My husband and I are on a waiting list to give blood.	35640022	1472799238143	1472799238277	a	65
68787	750115	My husband and I are on a waiting list to give blood.	My husband and I are on a waiting list to give blood.	35640027	1472799238313	1472799238395	i	73
68787	750115	My husband and I are on a waiting list to give blood.	My husband and I are on a waiting list to give blood.	35640031	1472799238427	1472799238512	t	84
68787	750115	My husband and I are on a waiting list to give blood.	My husband and I are on a waiting list to give blood.	35640034	1472799238527	1472799238681	i	73
68787	750115	My husband and I are on a waiting list to give blood.	My husband and I are on a waiting list to give blood.	35640057	1472799238628	1472799238749	n	78
68787	750115	My husband and I are on a waiting list to give blood.	My husband and I are on a waiting list to give blood.	35640062	1472799238796	1472799238895	g	71
68787	750115	My husband and I are on a waiting list to give blood.	My husband and I are on a waiting list to give blood.	35640065	1472799238895	1472799239111	 	32
68787	750115	My husband and I are on a waiting list to give blood.	My husband and I are on a waiting list to give blood.	35640068	1472799239025	1472799239142	l	76
68787	750115	My husband and I are on a waiting list to give blood.	My husband and I are on a waiting list to give blood.	35640070	1472799239251	1472799239315	i	73
68787	750115	My husband and I are on a waiting list to give blood.	My husband and I are on a waiting list to give blood.	35640072	1472799239367	1472799239460	s	83
68787	750115	My husband and I are on a waiting list to give blood.	My husband and I are on a waiting list to give blood.	35640091	1472799239581	1472799239692	t	84
68787	750115	My husband and I are on a waiting list to give blood.	My husband and I are on a waiting list to give blood.	35640094	1472799239692	1472799239809	 	32
68787	750115	My husband and I are on a waiting list to give blood.	My husband and I are on a waiting list to give blood.	35640098	1472799239809	1472799239894	t	84
68787	750115	My husband and I are on a waiting list to give blood.	My husband and I are on a waiting list to give blood.	35640101	1472799239894	1472799239993	o	79
68787	750115	My husband and I are on a waiting list to give blood.	My husband and I are on a waiting list to give blood.	35640104	1472799240008	1472799240142	 	32
68787	750115	My husband and I are on a waiting list to give blood.	My husband and I are on a waiting list to give blood.	35640124	1472799240272	1472799240347	g	71
68787	750115	My husband and I are on a waiting list to give blood.	My husband and I are on a waiting list to give blood.	35640127	1472799240362	1472799240446	i	73
68787	750115	My husband and I are on a waiting list to give blood.	My husband and I are on a waiting list to give blood.	35640129	1472799240602	1472799240746	v	86
68787	750115	My husband and I are on a waiting list to give blood.	My husband and I are on a waiting list to give blood.	35640131	1472799240695	1472799240808	e	69
68787	750115	My husband and I are on a waiting list to give blood.	My husband and I are on a waiting list to give blood.	35640172	1472799240808	1472799240910	 	32
68787	750115	My husband and I are on a waiting list to give blood.	My husband and I are on a waiting list to give blood.	35640179	1472799240941	1472799241013	b	66
68787	750115	My husband and I are on a waiting list to give blood.	My husband and I are on a waiting list to give blood.	35640184	1472799241122	1472799241189	l	76
68787	750115	My husband and I are on a waiting list to give blood.	My husband and I are on a waiting list to give blood.	35640187	1472799241290	1472799241346	o	79
68787	750115	My husband and I are on a waiting list to give blood.	My husband and I are on a waiting list to give blood.	35640189	1472799241393	1472799241446	o	79
68787	750115	My husband and I are on a waiting list to give blood.	My husband and I are on a waiting list to give blood.	35640191	1472799241696	1472799241794	d	68
68787	750115	My husband and I are on a waiting list to give blood.	My husband and I are on a waiting list to give blood.	35640192	1472799241810	1472799241896	.	190
68787	750119	Wish me luck with Linda.	Wish me luck with Linda.	35640296	1472799244507	1472799244694	SHIFT	16
68787	750119	Wish me luck with Linda.	Wish me luck with Linda.	35640298	1472799244741	1472799244842	i	73
68787	750119	Wish me luck with Linda.	Wish me luck with Linda.	35640301	1472799245330	1472799245379	BKSP	8
68787	750119	Wish me luck with Linda.	Wish me luck with Linda.	35640303	1472799245457	1472799245612	SHIFT	16
68787	750119	Wish me luck with Linda.	Wish me luck with Linda.	35640305	1472799245535	1472799245659	W	87
68787	750119	Wish me luck with Linda.	Wish me luck with Linda.	35640307	1472799245690	1472799245777	i	73
68787	750119	Wish me luck with Linda.	Wish me luck with Linda.	35640310	1472799245809	1472799245895	s	83
68787	750119	Wish me luck with Linda.	Wish me luck with Linda.	35640313	1472799245973	1472799246043	h	72
68787	750119	Wish me luck with Linda.	Wish me luck with Linda.	35640325	1472799246108	1472799246224	 	32
68787	750119	Wish me luck with Linda.	Wish me luck with Linda.	35640326	1472799246224	1472799246342	m	77
68787	750119	Wish me luck with Linda.	Wish me luck with Linda.	35640328	1472799246374	1472799246462	e	69
68787	750119	Wish me luck with Linda.	Wish me luck with Linda.	35640331	1472799246493	1472799246697	 	32
68787	750119	Wish me luck with Linda.	Wish me luck with Linda.	35640391	1472799246656	1472799246809	l	76
68787	750119	Wish me luck with Linda.	Wish me luck with Linda.	35640394	1472799247043	1472799247161	u	85
68787	750119	Wish me luck with Linda.	Wish me luck with Linda.	35640397	1472799247254	1472799247328	c	67
68787	750119	Wish me luck with Linda.	Wish me luck with Linda.	35640399	1472799247375	1472799247443	h	72
68787	750119	Wish me luck with Linda.	Wish me luck with Linda.	35640401	1472799247770	1472799247845	BKSP	8
68787	750119	Wish me luck with Linda.	Wish me luck with Linda.	35640404	1472799247939	1472799248011	k	75
68787	750119	Wish me luck with Linda.	Wish me luck with Linda.	35640407	1472799248073	1472799248193	 	32
68787	750119	Wish me luck with Linda.	Wish me luck with Linda.	35640434	1472799248209	1472799248323	w	87
68787	750119	Wish me luck with Linda.	Wish me luck with Linda.	35640437	1472799248291	1472799248421	i	73
68787	750119	Wish me luck with Linda.	Wish me luck with Linda.	35640439	1472799248764	1472799248866	t	84
68787	750119	Wish me luck with Linda.	Wish me luck with Linda.	35640444	1472799248866	1472799248928	h	72
68787	750119	Wish me luck with Linda.	Wish me luck with Linda.	35640446	1472799249006	1472799249123	 	32
68787	750119	Wish me luck with Linda.	Wish me luck with Linda.	35640464	1472799249107	1472799249260	SHIFT	16
68787	750119	Wish me luck with Linda.	Wish me luck with Linda.	35640463	1472799249188	1472799249244	L	76
68787	750119	Wish me luck with Linda.	Wish me luck with Linda.	35640465	1472799249697	1472799249861	i	73
68787	750119	Wish me luck with Linda.	Wish me luck with Linda.	35640466	1472799249810	1472799249986	n	78
68787	750119	Wish me luck with Linda.	Wish me luck with Linda.	35640468	1472799249986	1472799250109	d	68
68787	750119	Wish me luck with Linda.	Wish me luck with Linda.	35640485	1472799250061	1472799250177	a	65
68787	750119	Wish me luck with Linda.	Wish me luck with Linda.	35640487	1472799250364	1472799250447	.	190
68787	750127	We are looking at military assistance.	We are looking at military assistance.	35640603	1472799252977	1472799253154	SHIFT	16
68787	750127	We are looking at military assistance.	We are looking at military assistance.	35640605	1472799253138	1472799253382	E	69
68787	750127	We are looking at military assistance.	We are looking at military assistance.	35640608	1472799253647	1472799253711	BKSP	8
68787	750127	We are looking at military assistance.	We are looking at military assistance.	35640612	1472799253929	1472799254155	SHIFT	16
68787	750127	We are looking at military assistance.	We are looking at military assistance.	35640615	1472799254116	1472799254290	W	87
68787	750127	We are looking at military assistance.	We are looking at military assistance.	35640618	1472799254254	1472799254372	e	69
68787	750127	We are looking at military assistance.	We are looking at military assistance.	35640621	1472799254497	1472799254608	 	32
68787	750127	We are looking at military assistance.	We are looking at military assistance.	35640623	1472799254608	1472799254737	a	65
68787	750127	We are looking at military assistance.	We are looking at military assistance.	35640640	1472799254706	1472799254878	r	82
68787	750127	We are looking at military assistance.	We are looking at military assistance.	35640645	1472799254807	1472799254909	e	69
68787	750127	We are looking at military assistance.	We are looking at military assistance.	35640648	1472799254878	1472799255020	 	32
68787	750127	We are looking at military assistance.	We are looking at military assistance.	35640651	1472799255005	1472799255092	l	76
68787	750127	We are looking at military assistance.	We are looking at military assistance.	35640655	1472799255217	1472799255294	o	79
68787	750127	We are looking at military assistance.	We are looking at military assistance.	35640659	1472799255626	1472799255709	k	75
68787	750127	We are looking at military assistance.	We are looking at military assistance.	35640765	1472799255823	1472799255955	i	73
68787	750127	We are looking at military assistance.	We are looking at military assistance.	35640768	1472799256392	1472799256445	BKSP	8
68787	750127	We are looking at military assistance.	We are looking at military assistance.	35640773	1472799256523	1472799256608	BKSP	8
68787	750127	We are looking at military assistance.	We are looking at military assistance.	35640778	1472799256748	1472799256810	i	73
68787	750127	We are looking at military assistance.	We are looking at military assistance.	35640781	1472799256940	1472799257025	k	75
68787	750127	We are looking at military assistance.	We are looking at military assistance.	35640787	1472799257103	1472799257222	i	73
68787	750127	We are looking at military assistance.	We are looking at military assistance.	35640792	1472799257456	1472799257510	BKSP	8
68787	750127	We are looking at military assistance.	We are looking at military assistance.	35640797	1472799257541	1472799257673	BKSP	8
68787	750127	We are looking at military assistance.	We are looking at military assistance.	35640802	1472799257719	1472799257776	BKSP	8
68787	750127	We are looking at military assistance.	We are looking at military assistance.	35640805	1472799258275	1472799258339	o	79
68787	750127	We are looking at military assistance.	We are looking at military assistance.	35640806	1472799258442	1472799258478	k	75
68787	750127	We are looking at military assistance.	We are looking at military assistance.	35640808	1472799258525	1472799258594	i	73
68787	750127	We are looking at military assistance.	We are looking at military assistance.	35640814	1472799258687	1472799258807	n	78
68787	750127	We are looking at military assistance.	We are looking at military assistance.	35640817	1472799258807	1472799258905	g	71
68787	750127	We are looking at military assistance.	We are looking at military assistance.	35640853	1472799258905	1472799258975	 	32
68787	750127	We are looking at military assistance.	We are looking at military assistance.	35640856	1472799259006	1472799259159	a	65
68787	750127	We are looking at military assistance.	We are looking at military assistance.	35640858	1472799259107	1472799259252	t	84
68787	750127	We are looking at military assistance.	We are looking at military assistance.	35640861	1472799259330	1472799259534	 	32
68787	750127	We are looking at military assistance.	We are looking at military assistance.	35640863	1472799259534	1472799259743	m	77
68787	750127	We are looking at military assistance.	We are looking at military assistance.	35640891	1472799259669	1472799259777	i	73
68787	750127	We are looking at military assistance.	We are looking at military assistance.	35640892	1472799259870	1472799259958	l	76
68787	750127	We are looking at military assistance.	We are looking at military assistance.	35640893	1472799260051	1472799260172	i	73
68787	750127	We are looking at military assistance.	We are looking at military assistance.	35640895	1472799260188	1472799260307	t	84
68787	750127	We are looking at military assistance.	We are looking at military assistance.	35640899	1472799260291	1472799260492	a	65
68787	750127	We are looking at military assistance.	We are looking at military assistance.	35640913	1472799260438	1472799260575	r	82
68787	750127	We are looking at military assistance.	We are looking at military assistance.	35640914	1472799260606	1472799260675	y	89
68787	750127	We are looking at military assistance.	We are looking at military assistance.	35640915	1472799260800	1472799260906	 	32
68787	750127	We are looking at military assistance.	We are looking at military assistance.	35640916	1472799260906	1472799261022	a	65
68787	750127	We are looking at military assistance.	We are looking at military assistance.	35640917	1472799261053	1472799261110	s	83
68787	750127	We are looking at military assistance.	We are looking at military assistance.	35640919	1472799261177	1472799261257	s	83
68787	750127	We are looking at military assistance.	We are looking at military assistance.	35640926	1472799261288	1472799261360	i	73
68787	750127	We are looking at military assistance.	We are looking at military assistance.	35640927	1472799261360	1472799261442	s	83
68787	750127	We are looking at military assistance.	We are looking at military assistance.	35640929	1472799261520	1472799261640	t	84
68787	750127	We are looking at military assistance.	We are looking at military assistance.	35640931	1472799261625	1472799261792	a	65
68787	750127	We are looking at military assistance.	We are looking at military assistance.	35640980	1472799261740	1472799261844	n	78
68787	750127	We are looking at military assistance.	We are looking at military assistance.	35640981	1472799261875	1472799262134	c	86
68787	750127	We are looking at military assistance.	We are looking at military assistance.	35640983	1472799262134	1472799262144	.	69
68787	750127	We are looking at military assistance.	We are looking at military assistance.	35640986	1472799262426	1472799262480	BKSP	8
68787	750127	We are looking at military assistance.	We are looking at military assistance.	35640989	1472799262620	1472799262666	BKSP	8
68787	750127	We are looking at military assistance.	We are looking at military assistance.	35640992	1472799262707	1472799262759	BKSP	8
68787	750127	We are looking at military assistance.	We are looking at military assistance.	35640996	1472799262821	1472799262892	BKSP	8
68787	750127	We are looking at military assistance.	We are looking at military assistance.	35640999	1472799263048	1472799263244	c	67
68787	750127	We are looking at military assistance.	We are looking at military assistance.	35641004	1472799263187	1472799263244	e	69
68787	750127	We are looking at military assistance.	We are looking at military assistance.	35641005	1472799263306	1472799263486	.	190
68787	750140	I spoke with Greg.	I spoke with Greg.	35641139	1472799266187	1472799266410	SHIFT	16
68787	750140	I spoke with Greg.	I spoke with Greg.	35641140	1472799266358	1472799266441	I	73
68787	750140	I spoke with Greg.	I spoke with Greg.	35641141	1472799266534	1472799266657	 	32
68787	750140	I spoke with Greg.	I spoke with Greg.	35641142	1472799266641	1472799266755	s	83
68787	750140	I spoke with Greg.	I spoke with Greg.	35641144	1472799266755	1472799266906	p	80
68787	750140	I spoke with Greg.	I spoke with Greg.	35641156	1472799266840	1472799266943	o	79
68787	750140	I spoke with Greg.	I spoke with Greg.	35641162	1472799267021	1472799267152	k	75
68787	750140	I spoke with Greg.	I spoke with Greg.	35641168	1472799267152	1472799267240	e	69
68787	750140	I spoke with Greg.	I spoke with Greg.	35641174	1472799267255	1472799267356	 	32
68787	750140	I spoke with Greg.	I spoke with Greg.	35641180	1472799267449	1472799267555	w	87
68787	750140	I spoke with Greg.	I spoke with Greg.	35641197	1472799267555	1472799267638	i	73
68787	750140	I spoke with Greg.	I spoke with Greg.	35641198	1472799267700	1472799267773	t	84
68787	750140	I spoke with Greg.	I spoke with Greg.	35641199	1472799267788	1472799267889	h	72
68787	750140	I spoke with Greg.	I spoke with Greg.	35641201	1472799267951	1472799268072	 	32
68787	750140	I spoke with Greg.	I spoke with Greg.	35641207	1472799268119	1472799268323	SHIFT	16
68787	750140	I spoke with Greg.	I spoke with Greg.	35641213	1472799268243	1472799268323	G	71
68787	750140	I spoke with Greg.	I spoke with Greg.	35641220	1472799268354	1472799268509	r	82
68787	750140	I spoke with Greg.	I spoke with Greg.	35641271	1472799268472	1472799268607	e	69
68787	750140	I spoke with Greg.	I spoke with Greg.	35641273	1472799268638	1472799268756	g	71
68787	750140	I spoke with Greg.	I spoke with Greg.	35641275	1472799268803	1472799268890	,	188
68787	750140	I spoke with Greg.	I spoke with Greg.	35641277	1472799269342	1472799269407	BKSP	8
68787	750140	I spoke with Greg.	I spoke with Greg.	35641280	1472799269688	1472799269772	.	190
68787	750144	Tiger Woods is set to answer your questions.	Tiger Woods is set to answer your questions.	35641433	1472799273154	1472799273589	SHIFT	16
68787	750144	Tiger Woods is set to answer your questions.	Tiger Woods is set to answer your questions.	35641436	1472799273517	1472799273589	R	84
68787	750144	Tiger Woods is set to answer your questions.	Tiger Woods is set to answer your questions.	35641438	1472799273605	1472799273687	i	73
68787	750144	Tiger Woods is set to answer your questions.	Tiger Woods is set to answer your questions.	35641440	1472799273968	1472799274042	BKSP	8
68787	750144	Tiger Woods is set to answer your questions.	Tiger Woods is set to answer your questions.	35641442	1472799274198	1472799274281	BKSP	8
68787	750144	Tiger Woods is set to answer your questions.	Tiger Woods is set to answer your questions.	35641444	1472799274650	1472799274723	i	73
68787	750144	Tiger Woods is set to answer your questions.	Tiger Woods is set to answer your questions.	35641446	1472799274847	1472799274906	g	71
68787	750144	Tiger Woods is set to answer your questions.	Tiger Woods is set to answer your questions.	35641469	1472799274901	1472799275120	e	69
68787	750144	Tiger Woods is set to answer your questions.	Tiger Woods is set to answer your questions.	35641471	1472799275035	1472799275136	r	82
68787	750144	Tiger Woods is set to answer your questions.	Tiger Woods is set to answer your questions.	35641473	1472799275151	1472799275269	 	32
68787	750144	Tiger Woods is set to answer your questions.	Tiger Woods is set to answer your questions.	35641475	1472799275301	1472799275354	w	87
68787	750144	Tiger Woods is set to answer your questions.	Tiger Woods is set to answer your questions.	35641477	1472799275575	1472799275639	BKSP	8
68787	750144	Tiger Woods is set to answer your questions.	Tiger Woods is set to answer your questions.	35641483	1472799275889	1472799275989	w	87
68787	750144	Tiger Woods is set to answer your questions.	Tiger Woods is set to answer your questions.	35641487	1472799276083	1472799276114	o	79
68787	750144	Tiger Woods is set to answer your questions.	Tiger Woods is set to answer your questions.	35641543	1472799276186	1472799276240	o	79
68787	750144	Tiger Woods is set to answer your questions.	Tiger Woods is set to answer your questions.	35641546	1472799276788	1472799276839	BKSP	8
68787	750144	Tiger Woods is set to answer your questions.	Tiger Woods is set to answer your questions.	35641552	1472799276886	1472799276937	BKSP	8
68787	750144	Tiger Woods is set to answer your questions.	Tiger Woods is set to answer your questions.	35641557	1472799276957	1472799277021	BKSP	8
68787	750144	Tiger Woods is set to answer your questions.	Tiger Woods is set to answer your questions.	35641562	1472799277099	1472799277104	BKSP	8
68787	750144	Tiger Woods is set to answer your questions.	Tiger Woods is set to answer your questions.	35641569	1472799277224	1472799277672	SHIFT	16
68787	750144	Tiger Woods is set to answer your questions.	Tiger Woods is set to answer your questions.	35641567	1472799277504	1472799277641	W	87
68787	750144	Tiger Woods is set to answer your questions.	Tiger Woods is set to answer your questions.	35641571	1472799278016	1472799278079	BKSP	8
68787	750144	Tiger Woods is set to answer your questions.	Tiger Woods is set to answer your questions.	35641572	1472799278220	1472799278326	 	32
68787	750144	Tiger Woods is set to answer your questions.	Tiger Woods is set to answer your questions.	35641573	1472799278341	1472799278559	SHIFT	16
68787	750144	Tiger Woods is set to answer your questions.	Tiger Woods is set to answer your questions.	35641574	1472799278435	1472799278575	W	87
68787	750144	Tiger Woods is set to answer your questions.	Tiger Woods is set to answer your questions.	35641575	1472799278606	1472799278662	o	79
68787	750144	Tiger Woods is set to answer your questions.	Tiger Woods is set to answer your questions.	35641579	1472799278792	1472799278893	o	79
68787	750144	Tiger Woods is set to answer your questions.	Tiger Woods is set to answer your questions.	35641581	1472799278955	1472799279191	d	68
68787	750144	Tiger Woods is set to answer your questions.	Tiger Woods is set to answer your questions.	35641583	1472799279077	1472799279238	s	83
68787	750144	Tiger Woods is set to answer your questions.	Tiger Woods is set to answer your questions.	35641585	1472799279316	1472799279473	 	32
68787	750144	Tiger Woods is set to answer your questions.	Tiger Woods is set to answer your questions.	35641588	1472799279473	1472799279560	i	73
68787	750144	Tiger Woods is set to answer your questions.	Tiger Woods is set to answer your questions.	35641602	1472799279560	1472799279661	s	83
68787	750144	Tiger Woods is set to answer your questions.	Tiger Woods is set to answer your questions.	35641604	1472799279693	1472799279776	 	32
68787	750144	Tiger Woods is set to answer your questions.	Tiger Woods is set to answer your questions.	35641606	1472799279776	1472799279907	a	65
68787	750144	Tiger Woods is set to answer your questions.	Tiger Woods is set to answer your questions.	35641608	1472799279892	1472799279978	 	32
68787	750144	Tiger Woods is set to answer your questions.	Tiger Woods is set to answer your questions.	35641610	1472799280025	1472799280111	s	83
68787	750144	Tiger Woods is set to answer your questions.	Tiger Woods is set to answer your questions.	35641660	1472799280241	1472799280344	e	69
68787	750144	Tiger Woods is set to answer your questions.	Tiger Woods is set to answer your questions.	35641663	1472799280484	1472799280530	BKSP	8
68787	750144	Tiger Woods is set to answer your questions.	Tiger Woods is set to answer your questions.	35641666	1472799280577	1472799280611	BKSP	8
68787	750144	Tiger Woods is set to answer your questions.	Tiger Woods is set to answer your questions.	35641668	1472799280646	1472799280697	BKSP	8
68787	750144	Tiger Woods is set to answer your questions.	Tiger Woods is set to answer your questions.	35641670	1472799280744	1472799280795	BKSP	8
68787	750144	Tiger Woods is set to answer your questions.	Tiger Woods is set to answer your questions.	35641672	1472799280858	1472799280897	BKSP	8
68787	750144	Tiger Woods is set to answer your questions.	Tiger Woods is set to answer your questions.	35641673	1472799281587	1472799281691	 	32
68787	750144	Tiger Woods is set to answer your questions.	Tiger Woods is set to answer your questions.	35641674	1472799281738	1472799281897	s	83
68787	750144	Tiger Woods is set to answer your questions.	Tiger Woods is set to answer your questions.	35641675	1472799281843	1472799282084	e	69
68787	750144	Tiger Woods is set to answer your questions.	Tiger Woods is set to answer your questions.	35641684	1472799282084	1472799282145	t	84
68787	750144	Tiger Woods is set to answer your questions.	Tiger Woods is set to answer your questions.	35641686	1472799282192	1472799282306	 	32
68787	750144	Tiger Woods is set to answer your questions.	Tiger Woods is set to answer your questions.	35641691	1472799282338	1472799282441	t	84
68787	750144	Tiger Woods is set to answer your questions.	Tiger Woods is set to answer your questions.	35641696	1472799282441	1472799282544	o	79
68787	750144	Tiger Woods is set to answer your questions.	Tiger Woods is set to answer your questions.	35641699	1472799282560	1472799282706	 	32
68787	750144	Tiger Woods is set to answer your questions.	Tiger Woods is set to answer your questions.	35641703	1472799282706	1472799282839	a	65
68787	750144	Tiger Woods is set to answer your questions.	Tiger Woods is set to answer your questions.	35641726	1472799282808	1472799282879	n	78
68787	750144	Tiger Woods is set to answer your questions.	Tiger Woods is set to answer your questions.	35641728	1472799282957	1472799283045	s	83
68787	750144	Tiger Woods is set to answer your questions.	Tiger Woods is set to answer your questions.	35641730	1472799283185	1472799283385	w	87
68787	750144	Tiger Woods is set to answer your questions.	Tiger Woods is set to answer your questions.	35641732	1472799283369	1472799283477	e	69
68787	750144	Tiger Woods is set to answer your questions.	Tiger Woods is set to answer your questions.	35641734	1472799283591	1472799283676	r	82
68787	750144	Tiger Woods is set to answer your questions.	Tiger Woods is set to answer your questions.	35641737	1472799283741	1472799283858	 	32
68787	750144	Tiger Woods is set to answer your questions.	Tiger Woods is set to answer your questions.	35641770	1472799284250	1472799284312	y	89
68787	750144	Tiger Woods is set to answer your questions.	Tiger Woods is set to answer your questions.	35641772	1472799284343	1472799284575	o	79
68787	750144	Tiger Woods is set to answer your questions.	Tiger Woods is set to answer your questions.	35641774	1472799284475	1472799284575	u	85
68787	750144	Tiger Woods is set to answer your questions.	Tiger Woods is set to answer your questions.	35641775	1472799284591	1472799284645	r	82
68787	750144	Tiger Woods is set to answer your questions.	Tiger Woods is set to answer your questions.	35641776	1472799284707	1472799284828	 	32
68787	750144	Tiger Woods is set to answer your questions.	Tiger Woods is set to answer your questions.	35641800	1472799284989	1472799285106	q	81
68787	750144	Tiger Woods is set to answer your questions.	Tiger Woods is set to answer your questions.	35641802	1472799285137	1472799285212	u	85
68787	750144	Tiger Woods is set to answer your questions.	Tiger Woods is set to answer your questions.	35641804	1472799285305	1472799285372	e	69
68787	750144	Tiger Woods is set to answer your questions.	Tiger Woods is set to answer your questions.	35641807	1472799285473	1472799285624	s	83
68787	750144	Tiger Woods is set to answer your questions.	Tiger Woods is set to answer your questions.	35641810	1472799285702	1472799285777	t	84
68787	750144	Tiger Woods is set to answer your questions.	Tiger Woods is set to answer your questions.	35641826	1472799285842	1472799286065	i	73
68787	750144	Tiger Woods is set to answer your questions.	Tiger Woods is set to answer your questions.	35641833	1472799285913	1472799286111	o	79
68787	750144	Tiger Woods is set to answer your questions.	Tiger Woods is set to answer your questions.	35641838	1472799286024	1472799286142	n	78
68787	750144	Tiger Woods is set to answer your questions.	Tiger Woods is set to answer your questions.	35641842	1472799286158	1472799286261	s	83
68787	750144	Tiger Woods is set to answer your questions.	Tiger Woods is set to answer your questions.	35641846	1472799286323	1472799286395	.	190
68787	750156	Treatment options consist of rest, an injection, or surgery.	Treatment options consist of rest, an injection, or surgery.	35641944	1472799288843	1472799289159	SHIFT	16
68787	750156	Treatment options consist of rest, an injection, or surgery.	Treatment options consist of rest, an injection, or surgery.	35641947	1472799289113	1472799289193	T	84
68787	750156	Treatment options consist of rest, an injection, or surgery.	Treatment options consist of rest, an injection, or surgery.	35641951	1472799289286	1472799289392	r	82
68787	750156	Treatment options consist of rest, an injection, or surgery.	Treatment options consist of rest, an injection, or surgery.	35641954	1472799289486	1472799289574	e	69
68787	750156	Treatment options consist of rest, an injection, or surgery.	Treatment options consist of rest, an injection, or surgery.	35641956	1472799289605	1472799289802	a	65
68787	750156	Treatment options consist of rest, an injection, or surgery.	Treatment options consist of rest, an injection, or surgery.	35641983	1472799289786	1472799289876	t	84
68787	750156	Treatment options consist of rest, an injection, or surgery.	Treatment options consist of rest, an injection, or surgery.	35641986	1472799289922	1472799289994	m	77
68787	750156	Treatment options consist of rest, an injection, or surgery.	Treatment options consist of rest, an injection, or surgery.	35641990	1472799289994	1472799290133	e	69
68787	750156	Treatment options consist of rest, an injection, or surgery.	Treatment options consist of rest, an injection, or surgery.	35641995	1472799290092	1472799290192	n	78
68787	750156	Treatment options consist of rest, an injection, or surgery.	Treatment options consist of rest, an injection, or surgery.	35641999	1472799290239	1472799290389	t	84
68787	750156	Treatment options consist of rest, an injection, or surgery.	Treatment options consist of rest, an injection, or surgery.	35642003	1472799290550	1472799290705	 	32
68787	750156	Treatment options consist of rest, an injection, or surgery.	Treatment options consist of rest, an injection, or surgery.	35642025	1472799290705	1472799290907	o	79
68787	750156	Treatment options consist of rest, an injection, or surgery.	Treatment options consist of rest, an injection, or surgery.	35642027	1472799290808	1472799290985	p	80
68787	750156	Treatment options consist of rest, an injection, or surgery.	Treatment options consist of rest, an injection, or surgery.	35642029	1472799291203	1472799291276	t	84
68787	750156	Treatment options consist of rest, an injection, or surgery.	Treatment options consist of rest, an injection, or surgery.	35642047	1472799291307	1472799291590	i	73
68787	750156	Treatment options consist of rest, an injection, or surgery.	Treatment options consist of rest, an injection, or surgery.	35642030	1472799291392	1472799291590	o	79
68787	750156	Treatment options consist of rest, an injection, or surgery.	Treatment options consist of rest, an injection, or surgery.	35642048	1472799291475	1472799291606	n	78
68787	750156	Treatment options consist of rest, an injection, or surgery.	Treatment options consist of rest, an injection, or surgery.	35642049	1472799291673	1472799291774	s	83
68787	750156	Treatment options consist of rest, an injection, or surgery.	Treatment options consist of rest, an injection, or surgery.	35642050	1472799291836	1472799291973	 	32
68787	750156	Treatment options consist of rest, an injection, or surgery.	Treatment options consist of rest, an injection, or surgery.	35642051	1472799291973	1472799292058	c	67
68787	750156	Treatment options consist of rest, an injection, or surgery.	Treatment options consist of rest, an injection, or surgery.	35642052	1472799292058	1472799292127	o	79
68787	750156	Treatment options consist of rest, an injection, or surgery.	Treatment options consist of rest, an injection, or surgery.	35642053	1472799292205	1472799292322	n	78
68787	750156	Treatment options consist of rest, an injection, or surgery.	Treatment options consist of rest, an injection, or surgery.	35642101	1472799292322	1472799292425	c	67
68787	750156	Treatment options consist of rest, an injection, or surgery.	Treatment options consist of rest, an injection, or surgery.	35642103	1472799292550	1472799292689	s	83
68787	750156	Treatment options consist of rest, an injection, or surgery.	Treatment options consist of rest, an injection, or surgery.	35642107	1472799293001	1472799293060	BKSP	8
68787	750156	Treatment options consist of rest, an injection, or surgery.	Treatment options consist of rest, an injection, or surgery.	35642112	1472799293138	1472799293209	BKSP	8
68787	750156	Treatment options consist of rest, an injection, or surgery.	Treatment options consist of rest, an injection, or surgery.	35642115	1472799293521	1472799293656	s	83
68787	750156	Treatment options consist of rest, an injection, or surgery.	Treatment options consist of rest, an injection, or surgery.	35642119	1472799293607	1472799293677	i	73
68787	750156	Treatment options consist of rest, an injection, or surgery.	Treatment options consist of rest, an injection, or surgery.	35642125	1472799294020	1472799294189	t	84
68787	750156	Treatment options consist of rest, an injection, or surgery.	Treatment options consist of rest, an injection, or surgery.	35642158	1472799294189	1472799294352	s	83
68787	750156	Treatment options consist of rest, an injection, or surgery.	Treatment options consist of rest, an injection, or surgery.	35642161	1472799294352	1472799294496	 	32
68787	750156	Treatment options consist of rest, an injection, or surgery.	Treatment options consist of rest, an injection, or surgery.	35642163	1472799294459	1472799294604	o	79
68787	750156	Treatment options consist of rest, an injection, or surgery.	Treatment options consist of rest, an injection, or surgery.	35642165	1472799294854	1472799294991	BKSP	8
68787	750156	Treatment options consist of rest, an injection, or surgery.	Treatment options consist of rest, an injection, or surgery.	35642167	1472799295040	1472799295092	BKSP	8
68787	750156	Treatment options consist of rest, an injection, or surgery.	Treatment options consist of rest, an injection, or surgery.	35642169	1472799295123	1472799295192	BKSP	8
68787	750156	Treatment options consist of rest, an injection, or surgery.	Treatment options consist of rest, an injection, or surgery.	35642170	1472799295223	1472799295294	BKSP	8
68787	750156	Treatment options consist of rest, an injection, or surgery.	Treatment options consist of rest, an injection, or surgery.	35642171	1472799295466	1472799295652	s	83
68787	750156	Treatment options consist of rest, an injection, or surgery.	Treatment options consist of rest, an injection, or surgery.	35642188	1472799295621	1472799295739	t	84
68787	750156	Treatment options consist of rest, an injection, or surgery.	Treatment options consist of rest, an injection, or surgery.	35642192	1472799295786	1472799295968	 	32
68787	750156	Treatment options consist of rest, an injection, or surgery.	Treatment options consist of rest, an injection, or surgery.	35642197	1472799295937	1472799296073	o	79
68787	750156	Treatment options consist of rest, an injection, or surgery.	Treatment options consist of rest, an injection, or surgery.	35642202	1472799296385	1472799296504	f	70
68787	750156	Treatment options consist of rest, an injection, or surgery.	Treatment options consist of rest, an injection, or surgery.	35642204	1472799296504	1472799296644	 	32
68787	750156	Treatment options consist of rest, an injection, or surgery.	Treatment options consist of rest, an injection, or surgery.	35642217	1472799296605	1472799296749	r	82
68787	750156	Treatment options consist of rest, an injection, or surgery.	Treatment options consist of rest, an injection, or surgery.	35642222	1472799296693	1472799296790	e	69
68787	750156	Treatment options consist of rest, an injection, or surgery.	Treatment options consist of rest, an injection, or surgery.	35642227	1472799296884	1472799297081	s	83
68787	750156	Treatment options consist of rest, an injection, or surgery.	Treatment options consist of rest, an injection, or surgery.	35642236	1472799297066	1472799297156	t	84
68787	750156	Treatment options consist of rest, an injection, or surgery.	Treatment options consist of rest, an injection, or surgery.	35642238	1472799297203	1472799297323	,	188
68787	750156	Treatment options consist of rest, an injection, or surgery.	Treatment options consist of rest, an injection, or surgery.	35642241	1472799297416	1472799297539	 	32
68787	750156	Treatment options consist of rest, an injection, or surgery.	Treatment options consist of rest, an injection, or surgery.	35642291	1472799297539	1472799297624	a	65
68787	750156	Treatment options consist of rest, an injection, or surgery.	Treatment options consist of rest, an injection, or surgery.	35642294	1472799297640	1472799297725	n	78
68787	750156	Treatment options consist of rest, an injection, or surgery.	Treatment options consist of rest, an injection, or surgery.	35642301	1472799297818	1472799297939	 	32
68787	750156	Treatment options consist of rest, an injection, or surgery.	Treatment options consist of rest, an injection, or surgery.	35642305	1472799299244	1472799299308	i	73
68787	750156	Treatment options consist of rest, an injection, or surgery.	Treatment options consist of rest, an injection, or surgery.	35642309	1472799299433	1472799299477	n	78
68787	750156	Treatment options consist of rest, an injection, or surgery.	Treatment options consist of rest, an injection, or surgery.	35642314	1472799299606	1472799299655	j	74
68787	750156	Treatment options consist of rest, an injection, or surgery.	Treatment options consist of rest, an injection, or surgery.	35642317	1472799299753	1472799299839	e	69
68787	750156	Treatment options consist of rest, an injection, or surgery.	Treatment options consist of rest, an injection, or surgery.	35642320	1472799299917	1472799299991	c	67
68787	750156	Treatment options consist of rest, an injection, or surgery.	Treatment options consist of rest, an injection, or surgery.	35642321	1472799300116	1472799300182	t	84
68787	750156	Treatment options consist of rest, an injection, or surgery.	Treatment options consist of rest, an injection, or surgery.	35642356	1472799300182	1472799300427	i	73
68787	750156	Treatment options consist of rest, an injection, or surgery.	Treatment options consist of rest, an injection, or surgery.	35642360	1472799300295	1472799300458	o	79
68787	750156	Treatment options consist of rest, an injection, or surgery.	Treatment options consist of rest, an injection, or surgery.	35642363	1472799300390	1472799300489	n	78
68787	750156	Treatment options consist of rest, an injection, or surgery.	Treatment options consist of rest, an injection, or surgery.	35642366	1472799300661	1472799300725	,	188
68787	750156	Treatment options consist of rest, an injection, or surgery.	Treatment options consist of rest, an injection, or surgery.	35642368	1472799300850	1472799300986	 	32
68787	750156	Treatment options consist of rest, an injection, or surgery.	Treatment options consist of rest, an injection, or surgery.	35642376	1472799300971	1472799301072	o	79
68787	750156	Treatment options consist of rest, an injection, or surgery.	Treatment options consist of rest, an injection, or surgery.	35642379	1472799301228	1472799301323	r	82
68787	750156	Treatment options consist of rest, an injection, or surgery.	Treatment options consist of rest, an injection, or surgery.	35642382	1472799301355	1472799301473	 	32
68787	750156	Treatment options consist of rest, an injection, or surgery.	Treatment options consist of rest, an injection, or surgery.	35642386	1472799301566	1472799301657	s	83
68787	750156	Treatment options consist of rest, an injection, or surgery.	Treatment options consist of rest, an injection, or surgery.	35642391	1472799301735	1472799301838	u	85
68787	750156	Treatment options consist of rest, an injection, or surgery.	Treatment options consist of rest, an injection, or surgery.	35642398	1472799301884	1472799301957	r	82
68787	750156	Treatment options consist of rest, an injection, or surgery.	Treatment options consist of rest, an injection, or surgery.	35642414	1472799302084	1472799302189	g	71
68787	750156	Treatment options consist of rest, an injection, or surgery.	Treatment options consist of rest, an injection, or surgery.	35642417	1472799302173	1472799302388	e	69
68787	750156	Treatment options consist of rest, an injection, or surgery.	Treatment options consist of rest, an injection, or surgery.	35642421	1472799302305	1472799302419	r	82
68787	750156	Treatment options consist of rest, an injection, or surgery.	Treatment options consist of rest, an injection, or surgery.	35642425	1472799302528	1472799302607	y	89
68787	750156	Treatment options consist of rest, an injection, or surgery.	Treatment options consist of rest, an injection, or surgery.	35642427	1472799302732	1472799302823	.	190
68787	750165	I can be there within the hour.	I can be there within the hour.	35642529	1472799305422	1472799305608	SHIFT	16
68787	750165	I can be there within the hour.	I can be there within the hour.	35642531	1472799305547	1472799305624	I	73
68787	750165	I can be there within the hour.	I can be there within the hour.	35642534	1472799305686	1472799305821	 	32
68787	750165	I can be there within the hour.	I can be there within the hour.	35642536	1472799305821	1472799305958	c	67
68787	750165	I can be there within the hour.	I can be there within the hour.	35642538	1472799305906	1472799306041	a	65
68787	750165	I can be there within the hour.	I can be there within the hour.	35642546	1472799306005	1472799306090	n	78
68787	750165	I can be there within the hour.	I can be there within the hour.	35642548	1472799306137	1472799306284	 	32
68787	750165	I can be there within the hour.	I can be there within the hour.	35642550	1472799306269	1472799306340	b	66
68787	750165	I can be there within the hour.	I can be there within the hour.	35642552	1472799306387	1472799306486	e	69
68787	750165	I can be there within the hour.	I can be there within the hour.	35642555	1472799306470	1472799306571	 	32
68787	750165	I can be there within the hour.	I can be there within the hour.	35642557	1472799306586	1472799306696	t	84
68787	750165	I can be there within the hour.	I can be there within the hour.	35642585	1472799306658	1472799306776	h	72
68787	750165	I can be there within the hour.	I can be there within the hour.	35642588	1472799306776	1472799306910	e	69
68787	750165	I can be there within the hour.	I can be there within the hour.	35642591	1472799306874	1472799307035	r	82
68787	750165	I can be there within the hour.	I can be there within the hour.	35642595	1472799307222	1472799307369	e	69
68787	750165	I can be there within the hour.	I can be there within the hour.	35642597	1472799307572	1472799307687	 	32
68787	750165	I can be there within the hour.	I can be there within the hour.	35642598	1472799307781	1472799307903	w	87
68787	750165	I can be there within the hour.	I can be there within the hour.	35642612	1472799307903	1472799307990	i	73
68787	750165	I can be there within the hour.	I can be there within the hour.	35642614	1472799308037	1472799308135	t	84
68787	750165	I can be there within the hour.	I can be there within the hour.	35642616	1472799308135	1472799308268	h	72
68787	750165	I can be there within the hour.	I can be there within the hour.	35642617	1472799308268	1472799308388	i	73
68787	750165	I can be there within the hour.	I can be there within the hour.	35642619	1472799308372	1472799308471	n	78
68787	750165	I can be there within the hour.	I can be there within the hour.	35642621	1472799308595	1472799308720	 	32
68787	750165	I can be there within the hour.	I can be there within the hour.	35642638	1472799308756	1472799308871	t	84
68787	750165	I can be there within the hour.	I can be there within the hour.	35642640	1472799308871	1472799308972	h	72
68787	750165	I can be there within the hour.	I can be there within the hour.	35642642	1472799308988	1472799309057	e	69
68787	750165	I can be there within the hour.	I can be there within the hour.	35642644	1472799309072	1472799309204	 	32
68787	750165	I can be there within the hour.	I can be there within the hour.	35642648	1472799309391	1472799309457	h	72
68787	750165	I can be there within the hour.	I can be there within the hour.	35642676	1472799309540	1472799309707	o	79
68787	750165	I can be there within the hour.	I can be there within the hour.	35642677	1472799309622	1472799309738	u	85
68787	750165	I can be there within the hour.	I can be there within the hour.	35642678	1472799309785	1472799309870	r	82
68787	750165	I can be there within the hour.	I can be there within the hour.	35642679	1472799309901	1472799309957	.	190
68787	750172	Police and the alleged bank robbers exchanged fire.	Police and the alleged bank robbers exchanged fires.	35642792	1472799312597	1472799312821	SHIFT	16
68787	750172	Police and the alleged bank robbers exchanged fire.	Police and the alleged bank robbers exchanged fires.	35642794	1472799312720	1472799312890	P	80
68787	750172	Police and the alleged bank robbers exchanged fire.	Police and the alleged bank robbers exchanged fires.	35642795	1472799312821	1472799312921	o	79
68787	750172	Police and the alleged bank robbers exchanged fire.	Police and the alleged bank robbers exchanged fires.	35642796	1472799312999	1472799313087	l	76
68787	750172	Police and the alleged bank robbers exchanged fire.	Police and the alleged bank robbers exchanged fires.	35642797	1472799313181	1472799313239	i	73
68787	750172	Police and the alleged bank robbers exchanged fire.	Police and the alleged bank robbers exchanged fires.	35642798	1472799313333	1472799313530	c	67
68787	750172	Police and the alleged bank robbers exchanged fire.	Police and the alleged bank robbers exchanged fires.	35642830	1472799313829	1472799313937	e	69
68787	750172	Police and the alleged bank robbers exchanged fire.	Police and the alleged bank robbers exchanged fires.	35642832	1472799314030	1472799314138	 	32
68787	750172	Police and the alleged bank robbers exchanged fire.	Police and the alleged bank robbers exchanged fires.	35642835	1472799314154	1472799314285	a	65
68787	750172	Police and the alleged bank robbers exchanged fire.	Police and the alleged bank robbers exchanged fires.	35642838	1472799314269	1472799314352	n	78
68787	750172	Police and the alleged bank robbers exchanged fire.	Police and the alleged bank robbers exchanged fires.	35642843	1472799314773	1472799314885	d	68
68787	750172	Police and the alleged bank robbers exchanged fire.	Police and the alleged bank robbers exchanged fires.	35642856	1472799314885	1472799315003	 	32
68787	750172	Police and the alleged bank robbers exchanged fire.	Police and the alleged bank robbers exchanged fires.	35642857	1472799315003	1472799315104	a	65
68787	750172	Police and the alleged bank robbers exchanged fire.	Police and the alleged bank robbers exchanged fires.	35642859	1472799315135	1472799315174	l	76
68787	750172	Police and the alleged bank robbers exchanged fire.	Police and the alleged bank robbers exchanged fires.	35642862	1472799315235	1472799315320	l	76
68787	750172	Police and the alleged bank robbers exchanged fire.	Police and the alleged bank robbers exchanged fires.	35642865	1472799315476	1472799315571	e	69
68787	750172	Police and the alleged bank robbers exchanged fire.	Police and the alleged bank robbers exchanged fires.	35642868	1472799315634	1472799315772	g	71
68787	750172	Police and the alleged bank robbers exchanged fire.	Police and the alleged bank robbers exchanged fires.	35642902	1472799315736	1472799315886	e	69
68787	750172	Police and the alleged bank robbers exchanged fire.	Police and the alleged bank robbers exchanged fires.	35642904	1472799315996	1472799316117	d	68
68787	750172	Police and the alleged bank robbers exchanged fire.	Police and the alleged bank robbers exchanged fires.	35642906	1472799316195	1472799316272	 	32
68787	750172	Police and the alleged bank robbers exchanged fire.	Police and the alleged bank robbers exchanged fires.	35642908	1472799316350	1472799316437	b	66
68787	750172	Police and the alleged bank robbers exchanged fire.	Police and the alleged bank robbers exchanged fires.	35642910	1472799316469	1472799316555	a	65
68787	750172	Police and the alleged bank robbers exchanged fire.	Police and the alleged bank robbers exchanged fires.	35642912	1472799316633	1472799316786	n	78
68787	750172	Police and the alleged bank robbers exchanged fire.	Police and the alleged bank robbers exchanged fires.	35642941	1472799316932	1472799317051	k	75
68787	750172	Police and the alleged bank robbers exchanged fire.	Police and the alleged bank robbers exchanged fires.	35642943	1472799317254	1472799317385	 	32
68787	750172	Police and the alleged bank robbers exchanged fire.	Police and the alleged bank robbers exchanged fires.	35642944	1472799317543	1472799317636	r	82
68787	750172	Police and the alleged bank robbers exchanged fire.	Police and the alleged bank robbers exchanged fires.	35642946	1472799317668	1472799317721	o	79
68787	750172	Police and the alleged bank robbers exchanged fire.	Police and the alleged bank robbers exchanged fires.	35642947	1472799317893	1472799317939	b	66
68787	750172	Police and the alleged bank robbers exchanged fire.	Police and the alleged bank robbers exchanged fires.	35642965	1472799317988	1472799318055	b	66
68787	750172	Police and the alleged bank robbers exchanged fire.	Police and the alleged bank robbers exchanged fires.	35642973	1472799318118	1472799318363	e	69
68787	750172	Police and the alleged bank robbers exchanged fire.	Police and the alleged bank robbers exchanged fires.	35642968	1472799318187	1472799318332	r	82
68787	750172	Police and the alleged bank robbers exchanged fire.	Police and the alleged bank robbers exchanged fires.	35642977	1472799318410	1472799318534	s	83
68787	750172	Police and the alleged bank robbers exchanged fire.	Police and the alleged bank robbers exchanged fires.	35642981	1472799318628	1472799318720	 	32
68787	750172	Police and the alleged bank robbers exchanged fire.	Police and the alleged bank robbers exchanged fires.	35642999	1472799318752	1472799318837	e	69
68787	750172	Police and the alleged bank robbers exchanged fire.	Police and the alleged bank robbers exchanged fires.	35643000	1472799319149	1472799319268	x	88
68787	750172	Police and the alleged bank robbers exchanged fire.	Police and the alleged bank robbers exchanged fires.	35643001	1472799319346	1472799319467	c	67
68787	750172	Police and the alleged bank robbers exchanged fire.	Police and the alleged bank robbers exchanged fires.	35643002	1472799319519	1472799319619	h	72
68787	750172	Police and the alleged bank robbers exchanged fire.	Police and the alleged bank robbers exchanged fires.	35643005	1472799319682	1472799319816	a	65
68787	750172	Police and the alleged bank robbers exchanged fire.	Police and the alleged bank robbers exchanged fires.	35643030	1472799319816	1472799319888	n	78
68787	750172	Police and the alleged bank robbers exchanged fire.	Police and the alleged bank robbers exchanged fires.	35643032	1472799319997	1472799320087	g	71
68787	750172	Police and the alleged bank robbers exchanged fire.	Police and the alleged bank robbers exchanged fires.	35643034	1472799320118	1472799320172	e	69
68787	750172	Police and the alleged bank robbers exchanged fire.	Police and the alleged bank robbers exchanged fires.	35643037	1472799320266	1472799320355	d	68
68787	750172	Police and the alleged bank robbers exchanged fire.	Police and the alleged bank robbers exchanged fires.	35643039	1472799320371	1472799320515	 	32
68787	750172	Police and the alleged bank robbers exchanged fire.	Police and the alleged bank robbers exchanged fires.	35643042	1472799320515	1472799320585	f	70
68787	750172	Police and the alleged bank robbers exchanged fire.	Police and the alleged bank robbers exchanged fires.	35643155	1472799320619	1472799320704	i	73
68787	750172	Police and the alleged bank robbers exchanged fire.	Police and the alleged bank robbers exchanged fires.	35643157	1472799320735	1472799320887	r	82
68787	750172	Police and the alleged bank robbers exchanged fire.	Police and the alleged bank robbers exchanged fires.	35643160	1472799320818	1472799320934	e	69
68787	750172	Police and the alleged bank robbers exchanged fire.	Police and the alleged bank robbers exchanged fires.	35643163	1472799320934	1472799321021	.	190
68787	750172	Police and the alleged bank robbers exchanged fire.	Police and the alleged bank robbers exchanged fires.	35643166	1472799321728	1472799322951	BKSP	8
68787	750172	Police and the alleged bank robbers exchanged fire.	Police and the alleged bank robbers exchanged fires.	35643169	1472799323583	1472799324356	BKSP	8
68787	750172	Police and the alleged bank robbers exchanged fire.	Police and the alleged bank robbers exchanged fires.	35643173	1472799324676	1472799324727	BKSP	8
68787	750172	Police and the alleged bank robbers exchanged fire.	Police and the alleged bank robbers exchanged fires.	35643176	1472799324799	1472799324886	BKSP	8
68787	750172	Police and the alleged bank robbers exchanged fire.	Police and the alleged bank robbers exchanged fires.	35643178	1472799325029	1472799325119	t	84
68787	750172	Police and the alleged bank robbers exchanged fire.	Police and the alleged bank robbers exchanged fires.	35643194	1472799325168	1472799325251	h	72
68787	750172	Police and the alleged bank robbers exchanged fire.	Police and the alleged bank robbers exchanged fires.	35643195	1472799325610	1472799325686	e	69
68787	750172	Police and the alleged bank robbers exchanged fire.	Police and the alleged bank robbers exchanged fires.	35643196	1472799325738	1472799325837	 	32
68787	750172	Police and the alleged bank robbers exchanged fire.	Police and the alleged bank robbers exchanged fires.	35643197	1472799325868	1472799325984	a	65
68787	750172	Police and the alleged bank robbers exchanged fire.	Police and the alleged bank robbers exchanged fires.	35643198	1472799326031	1472799326072	l	76
68787	750172	Police and the alleged bank robbers exchanged fire.	Police and the alleged bank robbers exchanged fires.	35643216	1472799326121	1472799326201	l	76
68787	750172	Police and the alleged bank robbers exchanged fire.	Police and the alleged bank robbers exchanged fires.	35643220	1472799326263	1472799326353	e	69
68787	750172	Police and the alleged bank robbers exchanged fire.	Police and the alleged bank robbers exchanged fires.	35643223	1472799326603	1472799326685	g	71
68787	750172	Police and the alleged bank robbers exchanged fire.	Police and the alleged bank robbers exchanged fires.	35643227	1472799326716	1472799326802	e	69
68787	750172	Police and the alleged bank robbers exchanged fire.	Police and the alleged bank robbers exchanged fires.	35643230	1472799326926	1472799326988	d	68
68787	750172	Police and the alleged bank robbers exchanged fire.	Police and the alleged bank robbers exchanged fires.	35643243	1472799327071	1472799327138	 	32
68787	750172	Police and the alleged bank robbers exchanged fire.	Police and the alleged bank robbers exchanged fires.	35643244	1472799327263	1472799327368	b	66
68787	750172	Police and the alleged bank robbers exchanged fire.	Police and the alleged bank robbers exchanged fires.	35643245	1472799327415	1472799327486	a	65
68787	750172	Police and the alleged bank robbers exchanged fire.	Police and the alleged bank robbers exchanged fires.	35643247	1472799327533	1472799327721	n	78
68787	750172	Police and the alleged bank robbers exchanged fire.	Police and the alleged bank robbers exchanged fires.	35643269	1472799327665	1472799327788	k	75
68787	750172	Police and the alleged bank robbers exchanged fire.	Police and the alleged bank robbers exchanged fires.	35643272	1472799327866	1472799327991	 	32
68787	750172	Police and the alleged bank robbers exchanged fire.	Police and the alleged bank robbers exchanged fires.	35643274	1472799328006	1472799328099	r	82
68787	750172	Police and the alleged bank robbers exchanged fire.	Police and the alleged bank robbers exchanged fires.	35643277	1472799328099	1472799328154	o	79
68787	750172	Police and the alleged bank robbers exchanged fire.	Police and the alleged bank robbers exchanged fires.	35643280	1472799328294	1472799328340	b	66
68787	750172	Police and the alleged bank robbers exchanged fire.	Police and the alleged bank robbers exchanged fires.	35643283	1472799328399	1472799328484	b	66
68787	750172	Police and the alleged bank robbers exchanged fire.	Police and the alleged bank robbers exchanged fires.	35643311	1472799328521	1472799328717	e	69
68787	750172	Police and the alleged bank robbers exchanged fire.	Police and the alleged bank robbers exchanged fires.	35643314	1472799328616	1472799328748	r	82
68787	750172	Police and the alleged bank robbers exchanged fire.	Police and the alleged bank robbers exchanged fires.	35643316	1472799328826	1472799328966	s	83
68787	750172	Police and the alleged bank robbers exchanged fire.	Police and the alleged bank robbers exchanged fires.	35643318	1472799329122	1472799329201	 	32
68787	750172	Police and the alleged bank robbers exchanged fire.	Police and the alleged bank robbers exchanged fires.	35643320	1472799329263	1472799329320	e	69
68787	750172	Police and the alleged bank robbers exchanged fire.	Police and the alleged bank robbers exchanged fires.	35643350	1472799329681	1472799329751	x	88
68787	750172	Police and the alleged bank robbers exchanged fire.	Police and the alleged bank robbers exchanged fires.	35643353	1472799330001	1472799330116	c	67
68787	750172	Police and the alleged bank robbers exchanged fire.	Police and the alleged bank robbers exchanged fires.	35643358	1472799330290	1472799330370	h	72
68787	750172	Police and the alleged bank robbers exchanged fire.	Police and the alleged bank robbers exchanged fires.	35643362	1472799330604	1472799330686	a	65
68787	750172	Police and the alleged bank robbers exchanged fire.	Police and the alleged bank robbers exchanged fires.	35643364	1472799330717	1472799330800	n	78
68787	750172	Police and the alleged bank robbers exchanged fire.	Police and the alleged bank robbers exchanged fires.	35643394	1472799330880	1472799331037	g	71
68787	750172	Police and the alleged bank robbers exchanged fire.	Police and the alleged bank robbers exchanged fires.	35643396	1472799330983	1472799331068	e	69
68787	750172	Police and the alleged bank robbers exchanged fire.	Police and the alleged bank robbers exchanged fires.	35643399	1472799331177	1472799331237	d	68
68787	750172	Police and the alleged bank robbers exchanged fire.	Police and the alleged bank robbers exchanged fires.	35643402	1472799331283	1472799331415	 	32
68787	750172	Police and the alleged bank robbers exchanged fire.	Police and the alleged bank robbers exchanged fires.	35643405	1472799331555	1472799331650	f	70
68787	750172	Police and the alleged bank robbers exchanged fire.	Police and the alleged bank robbers exchanged fires.	35643411	1472799331687	1472799331782	i	73
68787	750172	Police and the alleged bank robbers exchanged fire.	Police and the alleged bank robbers exchanged fires.	35643415	1472799331798	1472799331983	r	82
68787	750172	Police and the alleged bank robbers exchanged fire.	Police and the alleged bank robbers exchanged fires.	35643418	1472799331870	1472799332068	e	69
68787	750172	Police and the alleged bank robbers exchanged fire.	Police and the alleged bank robbers exchanged fires.	35643422	1472799332014	1472799332172	s	83
68787	750172	Police and the alleged bank robbers exchanged fire.	Police and the alleged bank robbers exchanged fires.	35643430	1472799332130	1472799332202	.	190
68787	750187	I'll call you in the morning.	I'll call you in the morning.	35643571	1472799335437	1472799335593	SHIFT	16
68787	750187	I'll call you in the morning.	I'll call you in the morning.	35643574	1472799335578	1472799335631	I	73
68787	750187	I'll call you in the morning.	I'll call you in the morning.	35643576	1472799335859	1472799335933	'	222
68787	750187	I'll call you in the morning.	I'll call you in the morning.	35643578	1472799336140	1472799336199	l	76
68787	750187	I'll call you in the morning.	I'll call you in the morning.	35643580	1472799336262	1472799336334	l	76
68787	750187	I'll call you in the morning.	I'll call you in the morning.	35643581	1472799336412	1472799336535	 	32
68787	750187	I'll call you in the morning.	I'll call you in the morning.	35643593	1472799336468	1472799336633	c	67
68787	750187	I'll call you in the morning.	I'll call you in the morning.	35643595	1472799336566	1472799336695	a	65
68787	750187	I'll call you in the morning.	I'll call you in the morning.	35643597	1472799336695	1472799336734	l	76
68787	750187	I'll call you in the morning.	I'll call you in the morning.	35643598	1472799336796	1472799336882	l	76
68787	750187	I'll call you in the morning.	I'll call you in the morning.	35643599	1472799336928	1472799337079	 	32
68787	750187	I'll call you in the morning.	I'll call you in the morning.	35643600	1472799337464	1472799337543	y	89
68787	750187	I'll call you in the morning.	I'll call you in the morning.	35643606	1472799337559	1472799337760	o	79
68787	750187	I'll call you in the morning.	I'll call you in the morning.	35643607	1472799337688	1472799337760	u	85
68787	750187	I'll call you in the morning.	I'll call you in the morning.	35643608	1472799337807	1472799337939	 	32
68787	750187	I'll call you in the morning.	I'll call you in the morning.	35643609	1472799337923	1472799338055	i	73
68787	750187	I'll call you in the morning.	I'll call you in the morning.	35643611	1472799338024	1472799338095	n	78
68787	750187	I'll call you in the morning.	I'll call you in the morning.	35643613	1472799338157	1472799338283	 	32
68787	750187	I'll call you in the morning.	I'll call you in the morning.	35643616	1472799338242	1472799338324	t	84
68787	750187	I'll call you in the morning.	I'll call you in the morning.	35643620	1472799338371	1472799338475	h	72
68787	750187	I'll call you in the morning.	I'll call you in the morning.	35643624	1472799338475	1472799338542	e	69
68787	750187	I'll call you in the morning.	I'll call you in the morning.	35643629	1472799338557	1472799338773	 	32
68787	750187	I'll call you in the morning.	I'll call you in the morning.	35643642	1472799338642	1472799338799	m	77
68787	750187	I'll call you in the morning.	I'll call you in the morning.	35643645	1472799338758	1472799338846	o	79
68787	750187	I'll call you in the morning.	I'll call you in the morning.	35643647	1472799338877	1472799338959	r	82
68787	750187	I'll call you in the morning.	I'll call you in the morning.	35643649	1472799338990	1472799339113	n	78
68787	750187	I'll call you in the morning.	I'll call you in the morning.	35643651	1472799339077	1472799339261	i	73
68787	750187	I'll call you in the morning.	I'll call you in the morning.	35643655	1472799339191	1472799339313	n	78
68787	750187	I'll call you in the morning.	I'll call you in the morning.	35643707	1472799339297	1472799339376	g	71
68787	750187	I'll call you in the morning.	I'll call you in the morning.	35643708	1472799339459	1472799339542	s	83
68787	750187	I'll call you in the morning.	I'll call you in the morning.	35643709	1472799339635	1472799339710	.	190
68787	750187	I'll call you in the morning.	I'll call you in the morning.	35643710	1472799340163	1472799340219	BKSP	8
68787	750187	I'll call you in the morning.	I'll call you in the morning.	35643711	1472799340304	1472799340392	BKSP	8
68787	750187	I'll call you in the morning.	I'll call you in the morning.	35643712	1472799340532	1472799340548	BKSP	8
68787	750187	I'll call you in the morning.	I'll call you in the morning.	35643713	1472799341501	1472799341554	g	71
68787	750187	I'll call you in the morning.	I'll call you in the morning.	35643715	1472799341575	1472799341644	.	190
68787	750194	I am unavailable for the 1PM meeting.	I am unavailable for the 1PM meeting.	35643794	1472799344354	1472799344509	SHIFT	16
68787	750194	I am unavailable for the 1PM meeting.	I am unavailable for the 1PM meeting.	35643795	1472799344447	1472799344540	I	73
68787	750194	I am unavailable for the 1PM meeting.	I am unavailable for the 1PM meeting.	35643796	1472799344587	1472799344733	 	32
68787	750194	I am unavailable for the 1PM meeting.	I am unavailable for the 1PM meeting.	35643797	1472799344690	1472799344790	a	65
68787	750194	I am unavailable for the 1PM meeting.	I am unavailable for the 1PM meeting.	35643798	1472799344821	1472799345002	m	77
68787	750194	I am unavailable for the 1PM meeting.	I am unavailable for the 1PM meeting.	35643824	1472799344987	1472799345196	 	32
68787	750194	I am unavailable for the 1PM meeting.	I am unavailable for the 1PM meeting.	35643825	1472799345153	1472799345304	u	85
68787	750194	I am unavailable for the 1PM meeting.	I am unavailable for the 1PM meeting.	35643826	1472799345288	1472799345358	n	78
68787	750194	I am unavailable for the 1PM meeting.	I am unavailable for the 1PM meeting.	35643827	1472799345421	1472799345522	a	65
68787	750194	I am unavailable for the 1PM meeting.	I am unavailable for the 1PM meeting.	35643828	1472799346013	1472799346188	v	86
68787	750194	I am unavailable for the 1PM meeting.	I am unavailable for the 1PM meeting.	35643851	1472799346139	1472799346260	a	65
68787	750194	I am unavailable for the 1PM meeting.	I am unavailable for the 1PM meeting.	35643852	1472799346307	1472799346374	l	76
68787	750194	I am unavailable for the 1PM meeting.	I am unavailable for the 1PM meeting.	35643853	1472799346623	1472799346677	BKSP	8
68787	750194	I am unavailable for the 1PM meeting.	I am unavailable for the 1PM meeting.	35643854	1472799346755	1472799346826	i	73
68787	750194	I am unavailable for the 1PM meeting.	I am unavailable for the 1PM meeting.	35643856	1472799346920	1472799346990	l	76
68787	750194	I am unavailable for the 1PM meeting.	I am unavailable for the 1PM meeting.	35643860	1472799347005	1472799347124	a	65
68787	750194	I am unavailable for the 1PM meeting.	I am unavailable for the 1PM meeting.	35643864	1472799347155	1472799347216	b	66
68787	750194	I am unavailable for the 1PM meeting.	I am unavailable for the 1PM meeting.	35643892	1472799347327	1472799347407	l	76
68787	750194	I am unavailable for the 1PM meeting.	I am unavailable for the 1PM meeting.	35643894	1472799347485	1472799347574	e	69
68787	750194	I am unavailable for the 1PM meeting.	I am unavailable for the 1PM meeting.	35643895	1472799347606	1472799347782	 	32
68787	750194	I am unavailable for the 1PM meeting.	I am unavailable for the 1PM meeting.	35643897	1472799348172	1472799348255	f	70
68787	750194	I am unavailable for the 1PM meeting.	I am unavailable for the 1PM meeting.	35643899	1472799348270	1472799348371	o	79
68787	750194	I am unavailable for the 1PM meeting.	I am unavailable for the 1PM meeting.	35643917	1472799348371	1472799348457	r	82
68787	750194	I am unavailable for the 1PM meeting.	I am unavailable for the 1PM meeting.	35643920	1472799348504	1472799348607	 	32
68787	750194	I am unavailable for the 1PM meeting.	I am unavailable for the 1PM meeting.	35643924	1472799348607	1472799348674	t	84
68787	750194	I am unavailable for the 1PM meeting.	I am unavailable for the 1PM meeting.	35643926	1472799348690	1472799348788	h	72
68787	750194	I am unavailable for the 1PM meeting.	I am unavailable for the 1PM meeting.	35643930	1472799348819	1472799348922	e	69
68787	750194	I am unavailable for the 1PM meeting.	I am unavailable for the 1PM meeting.	35643954	1472799348922	1472799349039	 	32
68787	750194	I am unavailable for the 1PM meeting.	I am unavailable for the 1PM meeting.	35643956	1472799349262	1472799349341	1	49
68787	750194	I am unavailable for the 1PM meeting.	I am unavailable for the 1PM meeting.	35643958	1472799349419	1472799349553	p	80
68787	750194	I am unavailable for the 1PM meeting.	I am unavailable for the 1PM meeting.	35643960	1472799349912	1472799349989	BKSP	8
68787	750194	I am unavailable for the 1PM meeting.	I am unavailable for the 1PM meeting.	35644025	1472799350036	1472799350450	SHIFT	16
68787	750194	I am unavailable for the 1PM meeting.	I am unavailable for the 1PM meeting.	35643964	1472799350130	1472799350191	O	80
68787	750194	I am unavailable for the 1PM meeting.	I am unavailable for the 1PM meeting.	35643965	1472799350254	1472799350339	M	77
68787	750194	I am unavailable for the 1PM meeting.	I am unavailable for the 1PM meeting.	35644026	1472799350684	1472799350726	BKSP	8
68787	750194	I am unavailable for the 1PM meeting.	I am unavailable for the 1PM meeting.	35644027	1472799350788	1472799350824	BKSP	8
68787	750194	I am unavailable for the 1PM meeting.	I am unavailable for the 1PM meeting.	35644029	1472799350933	1472799351204	SHIFT	16
68787	750194	I am unavailable for the 1PM meeting.	I am unavailable for the 1PM meeting.	35644028	1472799351043	1472799351110	M	77
68787	750194	I am unavailable for the 1PM meeting.	I am unavailable for the 1PM meeting.	35644030	1472799351235	1472799351355	 	32
68787	750194	I am unavailable for the 1PM meeting.	I am unavailable for the 1PM meeting.	35644031	1472799351542	1472799351606	m	77
68787	750194	I am unavailable for the 1PM meeting.	I am unavailable for the 1PM meeting.	35644032	1472799351653	1472799351709	e	69
68787	750194	I am unavailable for the 1PM meeting.	I am unavailable for the 1PM meeting.	35644033	1472799351787	1472799351934	e	69
68787	750194	I am unavailable for the 1PM meeting.	I am unavailable for the 1PM meeting.	35644073	1472799351934	1472799352024	t	84
68787	750194	I am unavailable for the 1PM meeting.	I am unavailable for the 1PM meeting.	35644076	1472799351976	1472799352125	i	73
68787	750194	I am unavailable for the 1PM meeting.	I am unavailable for the 1PM meeting.	35644080	1472799352087	1472799352188	n	78
68787	750194	I am unavailable for the 1PM meeting.	I am unavailable for the 1PM meeting.	35644082	1472799352188	1472799352257	g	71
68787	750194	I am unavailable for the 1PM meeting.	I am unavailable for the 1PM meeting.	35644086	1472799352335	1472799352396	.	190
