PARTICIPANT_ID	TEST_SECTION_ID	SENTENCE	USER_INPUT	KEYSTROKE_ID	PRESS_TIME	RELEASE_TIME	LETTER	KEYCODE
70159	764469	The contract is a bit complicated.	The contract is a bit complicated.	36326439	1472823129701	1472823129841	SHIFT	16
70159	764469	The contract is a bit complicated.	The contract is a bit complicated.	36326441	1472823129809	1472823129906	NA	84
70159	764469	The contract is a bit complicated.	The contract is a bit complicated.	36326445	1472823130032	1472823130080	NA	72
70159	764469	The contract is a bit complicated.	The contract is a bit complicated.	36326449	1472823130097	1472823130193	NA	69
70159	764469	The contract is a bit complicated.	The contract is a bit complicated.	36326451	1472823130168	1472823130264	NA	32
70159	764469	The contract is a bit complicated.	The contract is a bit complicated.	36326453	1472823130392	1472823130483	NA	67
70159	764469	The contract is a bit complicated.	The contract is a bit complicated.	36326477	1472823130504	1472823130569	NA	79
70159	764469	The contract is a bit complicated.	The contract is a bit complicated.	36326480	1472823130704	1472823130752	NA	78
70159	764469	The contract is a bit complicated.	The contract is a bit complicated.	36326482	1472823130985	1472823131083	NA	84
70159	764469	The contract is a bit complicated.	The contract is a bit complicated.	36326484	1472823131168	1472823131240	NA	82
70159	764469	The contract is a bit complicated.	The contract is a bit complicated.	36326487	1472823131365	1472823131441	NA	65
70159	764469	The contract is a bit complicated.	The contract is a bit complicated.	36326520	1472823131585	1472823131665	NA	67
70159	764469	The contract is a bit complicated.	The contract is a bit complicated.	36326523	1472823131791	1472823131856	NA	84
70159	764469	The contract is a bit complicated.	The contract is a bit complicated.	36326528	1472823132072	1472823132210	NA	32
70159	764469	The contract is a bit complicated.	The contract is a bit complicated.	36326533	1472823132257	1472823132366	NA	73
70159	764469	The contract is a bit complicated.	The contract is a bit complicated.	36326540	1472823132416	1472823132544	NA	83
70159	764469	The contract is a bit complicated.	The contract is a bit complicated.	36326565	1472823132508	1472823132629	NA	32
70159	764469	The contract is a bit complicated.	The contract is a bit complicated.	36326568	1472823132680	1472823132792	NA	65
70159	764469	The contract is a bit complicated.	The contract is a bit complicated.	36326571	1472823132752	1472823132864	NA	32
70159	764469	The contract is a bit complicated.	The contract is a bit complicated.	36326576	1472823132971	1472823133040	NA	66
70159	764469	The contract is a bit complicated.	The contract is a bit complicated.	36326579	1472823133096	1472823133152	NA	73
70159	764469	The contract is a bit complicated.	The contract is a bit complicated.	36326583	1472823133192	1472823133296	NA	84
70159	764469	The contract is a bit complicated.	The contract is a bit complicated.	36326598	1472823133272	1472823133352	NA	32
70159	764469	The contract is a bit complicated.	The contract is a bit complicated.	36326601	1472823133465	1472823133544	NA	67
70159	764469	The contract is a bit complicated.	The contract is a bit complicated.	36326603	1472823133529	1472823133592	NA	79
70159	764469	The contract is a bit complicated.	The contract is a bit complicated.	36326608	1472823133697	1472823133784	NA	77
70159	764469	The contract is a bit complicated.	The contract is a bit complicated.	36326611	1472823133864	1472823133968	NA	80
70159	764469	The contract is a bit complicated.	The contract is a bit complicated.	36326614	1472823134040	1472823134104	NA	76
70159	764469	The contract is a bit complicated.	The contract is a bit complicated.	36326632	1472823134216	1472823134280	NA	73
70159	764469	The contract is a bit complicated.	The contract is a bit complicated.	36326635	1472823134304	1472823134352	NA	67
70159	764469	The contract is a bit complicated.	The contract is a bit complicated.	36326637	1472823134456	1472823134528	NA	65
70159	764469	The contract is a bit complicated.	The contract is a bit complicated.	36326641	1472823134641	1472823134754	NA	84
70159	764469	The contract is a bit complicated.	The contract is a bit complicated.	36326643	1472823134809	1472823134880	NA	69
70159	764469	The contract is a bit complicated.	The contract is a bit complicated.	36326653	1472823134952	1472823135056	NA	68
70159	764469	The contract is a bit complicated.	The contract is a bit complicated.	36326656	1472823135144	1472823135218	NA	190
70159	764474	Out of office but have people working on info.	Out of the office but have people working on info.	36326808	1472823140497	1472823140696	SHIFT	16
70159	764474	Out of office but have people working on info.	Out of the office but have people working on info.	36326809	1472823140656	1472823140728	NA	79
70159	764474	Out of office but have people working on info.	Out of the office but have people working on info.	36326810	1472823140896	1472823140952	NA	85
70159	764474	Out of office but have people working on info.	Out of the office but have people working on info.	36326811	1472823140992	1472823141097	NA	84
70159	764474	Out of office but have people working on info.	Out of the office but have people working on info.	36326812	1472823141081	1472823141168	NA	32
70159	764474	Out of office but have people working on info.	Out of the office but have people working on info.	36326814	1472823141208	1472823141280	NA	79
70159	764474	Out of office but have people working on info.	Out of the office but have people working on info.	36326827	1472823141296	1472823141392	NA	70
70159	764474	Out of office but have people working on info.	Out of the office but have people working on info.	36326831	1472823141393	1472823141464	NA	32
70159	764474	Out of office but have people working on info.	Out of the office but have people working on info.	36326833	1472823141520	1472823141616	NA	84
70159	764474	Out of office but have people working on info.	Out of the office but have people working on info.	36326835	1472823141632	1472823141704	NA	72
70159	764474	Out of office but have people working on info.	Out of the office but have people working on info.	36326837	1472823141729	1472823141840	NA	69
70159	764474	Out of office but have people working on info.	Out of the office but have people working on info.	36326847	1472823141808	1472823141920	NA	32
70159	764474	Out of office but have people working on info.	Out of the office but have people working on info.	36326848	1472823141952	1472823142032	NA	79
70159	764474	Out of office but have people working on info.	Out of the office but have people working on info.	36326849	1472823142064	1472823142120	NA	70
70159	764474	Out of office but have people working on info.	Out of the office but have people working on info.	36326850	1472823142209	1472823142296	NA	70
70159	764474	Out of office but have people working on info.	Out of the office but have people working on info.	36326851	1472823142320	1472823142384	NA	73
70159	764474	Out of office but have people working on info.	Out of the office but have people working on info.	36326852	1472823142408	1472823142496	NA	67
70159	764474	Out of office but have people working on info.	Out of the office but have people working on info.	36326869	1472823142632	1472823142720	NA	69
70159	764474	Out of office but have people working on info.	Out of the office but have people working on info.	36326870	1472823142808	1472823142920	NA	32
70159	764474	Out of office but have people working on info.	Out of the office but have people working on info.	36326871	1472823143104	1472823143208	NA	66
70159	764474	Out of office but have people working on info.	Out of the office but have people working on info.	36326872	1472823143328	1472823143392	NA	85
70159	764474	Out of office but have people working on info.	Out of the office but have people working on info.	36326873	1472823143432	1472823143504	NA	84
70159	764474	Out of office but have people working on info.	Out of the office but have people working on info.	36326874	1472823143528	1472823143593	NA	32
70159	764474	Out of office but have people working on info.	Out of the office but have people working on info.	36326875	1472823143616	1472823143696	NA	72
70159	764474	Out of office but have people working on info.	Out of the office but have people working on info.	36326876	1472823143728	1472823143817	NA	65
70159	764474	Out of office but have people working on info.	Out of the office but have people working on info.	36326877	1472823143865	1472823143928	NA	86
70159	764474	Out of office but have people working on info.	Out of the office but have people working on info.	36326878	1472823143984	1472823144112	NA	69
70159	764474	Out of office but have people working on info.	Out of the office but have people working on info.	36326882	1472823144096	1472823144168	NA	32
70159	764474	Out of office but have people working on info.	Out of the office but have people working on info.	36326885	1472823144296	1472823144408	NA	80
70159	764474	Out of office but have people working on info.	Out of the office but have people working on info.	36326888	1472823144504	1472823144568	NA	69
70159	764474	Out of office but have people working on info.	Out of the office but have people working on info.	36326890	1472823144584	1472823144656	NA	79
70159	764474	Out of office but have people working on info.	Out of the office but have people working on info.	36326892	1472823144744	1472823144816	NA	80
70159	764474	Out of office but have people working on info.	Out of the office but have people working on info.	36326894	1472823144904	1472823144992	NA	76
70159	764474	Out of office but have people working on info.	Out of the office but have people working on info.	36326895	1472823145008	1472823145072	NA	69
70159	764474	Out of office but have people working on info.	Out of the office but have people working on info.	36326896	1472823145056	1472823145152	NA	32
70159	764474	Out of office but have people working on info.	Out of the office but have people working on info.	36326897	1472823145216	1472823145344	NA	87
70159	764474	Out of office but have people working on info.	Out of the office but have people working on info.	36326898	1472823145328	1472823145416	NA	79
70159	764474	Out of office but have people working on info.	Out of the office but have people working on info.	36326899	1472823145464	1472823145552	NA	82
70159	764474	Out of office but have people working on info.	Out of the office but have people working on info.	36326913	1472823145592	1472823145664	NA	75
70159	764474	Out of office but have people working on info.	Out of the office but have people working on info.	36326915	1472823145784	1472823145840	NA	73
70159	764474	Out of office but have people working on info.	Out of the office but have people working on info.	36326918	1472823145954	1472823146032	NA	78
70159	764474	Out of office but have people working on info.	Out of the office but have people working on info.	36326921	1472823146048	1472823146120	NA	71
70159	764474	Out of office but have people working on info.	Out of the office but have people working on info.	36326925	1472823146136	1472823146192	NA	32
70159	764474	Out of office but have people working on info.	Out of the office but have people working on info.	36326941	1472823146208	1472823146280	NA	79
70159	764474	Out of office but have people working on info.	Out of the office but have people working on info.	36326942	1472823146408	1472823146480	NA	78
70159	764474	Out of office but have people working on info.	Out of the office but have people working on info.	36326943	1472823146464	1472823146569	NA	32
70159	764474	Out of office but have people working on info.	Out of the office but have people working on info.	36326944	1472823146704	1472823146767	NA	73
70159	764474	Out of office but have people working on info.	Out of the office but have people working on info.	36326945	1472823146880	1472823146944	NA	78
70159	764474	Out of office but have people working on info.	Out of the office but have people working on info.	36326952	1472823146992	1472823147064	NA	70
70159	764474	Out of office but have people working on info.	Out of the office but have people working on info.	36326954	1472823147104	1472823147184	NA	79
70159	764474	Out of office but have people working on info.	Out of the office but have people working on info.	36326958	1472823147416	1472823147464	NA	190
70159	764481	It looks like there are three new demand charges.	It looks like there are three new demand charges.	36327064	1472823150616	1472823151344	SHIFT	16
70159	764481	It looks like there are three new demand charges.	It looks like there are three new demand charges.	36327066	1472823151304	1472823151384	NA	73
70159	764481	It looks like there are three new demand charges.	It looks like there are three new demand charges.	36327068	1472823151416	1472823151520	NA	84
70159	764481	It looks like there are three new demand charges.	It looks like there are three new demand charges.	36327071	1472823151496	1472823151592	NA	32
70159	764481	It looks like there are three new demand charges.	It looks like there are three new demand charges.	36327075	1472823151680	1472823151768	NA	76
70159	764481	It looks like there are three new demand charges.	It looks like there are three new demand charges.	36327078	1472823151904	1472823151968	NA	79
70159	764481	It looks like there are three new demand charges.	It looks like there are three new demand charges.	36327091	1472823152040	1472823152104	NA	79
70159	764481	It looks like there are three new demand charges.	It looks like there are three new demand charges.	36327093	1472823152216	1472823152280	NA	75
70159	764481	It looks like there are three new demand charges.	It looks like there are three new demand charges.	36327095	1472823152304	1472823152432	NA	83
70159	764481	It looks like there are three new demand charges.	It looks like there are three new demand charges.	36327097	1472823152416	1472823152496	NA	32
70159	764481	It looks like there are three new demand charges.	It looks like there are three new demand charges.	36327099	1472823152528	1472823152592	NA	76
70159	764481	It looks like there are three new demand charges.	It looks like there are three new demand charges.	36327108	1472823152696	1472823152768	NA	73
70159	764481	It looks like there are three new demand charges.	It looks like there are three new demand charges.	36327110	1472823152864	1472823152944	NA	75
70159	764481	It looks like there are three new demand charges.	It looks like there are three new demand charges.	36327113	1472823152928	1472823153024	NA	69
70159	764481	It looks like there are three new demand charges.	It looks like there are three new demand charges.	36327116	1472823153009	1472823153123	NA	32
70159	764481	It looks like there are three new demand charges.	It looks like there are three new demand charges.	36327121	1472823153104	1472823153208	NA	84
70159	764481	It looks like there are three new demand charges.	It looks like there are three new demand charges.	36327124	1472823153168	1472823153256	NA	72
70159	764481	It looks like there are three new demand charges.	It looks like there are three new demand charges.	36327128	1472823153272	1472823153408	NA	69
70159	764481	It looks like there are three new demand charges.	It looks like there are three new demand charges.	36327131	1472823153344	1472823153496	NA	82
70159	764481	It looks like there are three new demand charges.	It looks like there are three new demand charges.	36327134	1472823153480	1472823153608	NA	69
70159	764481	It looks like there are three new demand charges.	It looks like there are three new demand charges.	36327147	1472823153584	1472823153720	NA	32
70159	764481	It looks like there are three new demand charges.	It looks like there are three new demand charges.	36327150	1472823153736	1472823153816	NA	65
70159	764481	It looks like there are three new demand charges.	It looks like there are three new demand charges.	36327152	1472823153928	1472823154040	NA	82
70159	764481	It looks like there are three new demand charges.	It looks like there are three new demand charges.	36327154	1472823154120	1472823154216	NA	69
70159	764481	It looks like there are three new demand charges.	It looks like there are three new demand charges.	36327156	1472823154192	1472823154296	NA	32
70159	764481	It looks like there are three new demand charges.	It looks like there are three new demand charges.	36327158	1472823154328	1472823154456	NA	65
70159	764481	It looks like there are three new demand charges.	It looks like there are three new demand charges.	36327180	1472823154744	1472823154840		8
70159	764481	It looks like there are three new demand charges.	It looks like there are three new demand charges.	36327182	1472823155096	1472823155248	NA	84
70159	764481	It looks like there are three new demand charges.	It looks like there are three new demand charges.	36327185	1472823155232	1472823155304	NA	72
70159	764481	It looks like there are three new demand charges.	It looks like there are three new demand charges.	36327187	1472823155352	1472823155456	NA	82
70159	764481	It looks like there are three new demand charges.	It looks like there are three new demand charges.	36327189	1472823155528	1472823155616	NA	69
70159	764481	It looks like there are three new demand charges.	It looks like there are three new demand charges.	36327213	1472823155680	1472823155792	NA	69
70159	764481	It looks like there are three new demand charges.	It looks like there are three new demand charges.	36327218	1472823155832	1472823155968	NA	32
70159	764481	It looks like there are three new demand charges.	It looks like there are three new demand charges.	36327221	1472823156256	1472823156352	NA	78
70159	764481	It looks like there are three new demand charges.	It looks like there are three new demand charges.	36327224	1472823156328	1472823156432	NA	69
70159	764481	It looks like there are three new demand charges.	It looks like there are three new demand charges.	36327227	1472823156496	1472823156616	NA	87
70159	764481	It looks like there are three new demand charges.	It looks like there are three new demand charges.	36327234	1472823156592	1472823156704	NA	32
70159	764481	It looks like there are three new demand charges.	It looks like there are three new demand charges.	36327235	1472823156864	1472823156968	NA	68
70159	764481	It looks like there are three new demand charges.	It looks like there are three new demand charges.	36327236	1472823157080	1472823157168	NA	69
70159	764481	It looks like there are three new demand charges.	It looks like there are three new demand charges.	36327237	1472823157208	1472823157296	NA	77
70159	764481	It looks like there are three new demand charges.	It looks like there are three new demand charges.	36327238	1472823157344	1472823157416	NA	65
70159	764481	It looks like there are three new demand charges.	It looks like there are three new demand charges.	36327239	1472823157456	1472823157520	NA	78
70159	764481	It looks like there are three new demand charges.	It looks like there are three new demand charges.	36327260	1472823157568	1472823157640	NA	68
70159	764481	It looks like there are three new demand charges.	It looks like there are three new demand charges.	36327261	1472823157728	1472823157816	NA	32
70159	764481	It looks like there are three new demand charges.	It looks like there are three new demand charges.	36327262	1472823158184	1472823158264	NA	67
70159	764481	It looks like there are three new demand charges.	It looks like there are three new demand charges.	36327263	1472823158280	1472823158328	NA	72
70159	764481	It looks like there are three new demand charges.	It looks like there are three new demand charges.	36327264	1472823158392	1472823158432	NA	65
70159	764481	It looks like there are three new demand charges.	It looks like there are three new demand charges.	36327276	1472823158520	1472823158608	NA	82
70159	764481	It looks like there are three new demand charges.	It looks like there are three new demand charges.	36327278	1472823158696	1472823158769	NA	71
70159	764481	It looks like there are three new demand charges.	It looks like there are three new demand charges.	36327279	1472823158856	1472823158944	NA	69
70159	764481	It looks like there are three new demand charges.	It looks like there are three new demand charges.	36327280	1472823159080	1472823159184	NA	83
70159	764481	It looks like there are three new demand charges.	It looks like there are three new demand charges.	36327281	1472823159216	1472823159320	NA	190
70159	764489	The Azerbaijani enclave Nagorno was torn by further fighting.	The Azerbaijani enclave Nagorno was torn by further fighting.	36327459	1472823166256	1472823166415	SHIFT	16
70159	764489	The Azerbaijani enclave Nagorno was torn by further fighting.	The Azerbaijani enclave Nagorno was torn by further fighting.	36327462	1472823166367	1472823166431	NA	84
70159	764489	The Azerbaijani enclave Nagorno was torn by further fighting.	The Azerbaijani enclave Nagorno was torn by further fighting.	36327463	1472823166551	1472823166631	NA	72
70159	764489	The Azerbaijani enclave Nagorno was torn by further fighting.	The Azerbaijani enclave Nagorno was torn by further fighting.	36327466	1472823166743	1472823166880	NA	69
70159	764489	The Azerbaijani enclave Nagorno was torn by further fighting.	The Azerbaijani enclave Nagorno was torn by further fighting.	36327467	1472823166832	1472823166984	NA	32
70159	764489	The Azerbaijani enclave Nagorno was torn by further fighting.	The Azerbaijani enclave Nagorno was torn by further fighting.	36327470	1472823167168	1472823167384	SHIFT	16
70159	764489	The Azerbaijani enclave Nagorno was torn by further fighting.	The Azerbaijani enclave Nagorno was torn by further fighting.	36327497	1472823167296	1472823167400	NA	65
70159	764489	The Azerbaijani enclave Nagorno was torn by further fighting.	The Azerbaijani enclave Nagorno was torn by further fighting.	36327499	1472823167608	1472823167720	NA	90
70159	764489	The Azerbaijani enclave Nagorno was torn by further fighting.	The Azerbaijani enclave Nagorno was torn by further fighting.	36327501	1472823167920	1472823168096	NA	69
70159	764489	The Azerbaijani enclave Nagorno was torn by further fighting.	The Azerbaijani enclave Nagorno was torn by further fighting.	36327506	1472823168032	1472823168144	NA	82
70159	764489	The Azerbaijani enclave Nagorno was torn by further fighting.	The Azerbaijani enclave Nagorno was torn by further fighting.	36327510	1472823168616	1472823168680	NA	66
70159	764489	The Azerbaijani enclave Nagorno was torn by further fighting.	The Azerbaijani enclave Nagorno was torn by further fighting.	36327514	1472823168728	1472823168808	NA	65
70159	764489	The Azerbaijani enclave Nagorno was torn by further fighting.	The Azerbaijani enclave Nagorno was torn by further fighting.	36327545	1472823169544	1472823169608	NA	73
70159	764489	The Azerbaijani enclave Nagorno was torn by further fighting.	The Azerbaijani enclave Nagorno was torn by further fighting.	36327547	1472823170752	1472823170792	NA	74
70159	764489	The Azerbaijani enclave Nagorno was torn by further fighting.	The Azerbaijani enclave Nagorno was torn by further fighting.	36327549	1472823170832	1472823170904	NA	65
70159	764489	The Azerbaijani enclave Nagorno was torn by further fighting.	The Azerbaijani enclave Nagorno was torn by further fighting.	36327551	1472823170952	1472823171096	NA	78
70159	764489	The Azerbaijani enclave Nagorno was torn by further fighting.	The Azerbaijani enclave Nagorno was torn by further fighting.	36327565	1472823171056	1472823171152	NA	73
70159	764489	The Azerbaijani enclave Nagorno was torn by further fighting.	The Azerbaijani enclave Nagorno was torn by further fighting.	36327567	1472823171439	1472823171544	NA	32
70159	764489	The Azerbaijani enclave Nagorno was torn by further fighting.	The Azerbaijani enclave Nagorno was torn by further fighting.	36327569	1472823171656	1472823171767	NA	69
70159	764489	The Azerbaijani enclave Nagorno was torn by further fighting.	The Azerbaijani enclave Nagorno was torn by further fighting.	36327571	1472823171855	1472823171920	NA	78
70159	764489	The Azerbaijani enclave Nagorno was torn by further fighting.	The Azerbaijani enclave Nagorno was torn by further fighting.	36327573	1472823172191	1472823172263	NA	67
70159	764489	The Azerbaijani enclave Nagorno was torn by further fighting.	The Azerbaijani enclave Nagorno was torn by further fighting.	36327575	1472823172304	1472823172368	NA	76
70159	764489	The Azerbaijani enclave Nagorno was torn by further fighting.	The Azerbaijani enclave Nagorno was torn by further fighting.	36327600	1472823172408	1472823172504	NA	65
70159	764489	The Azerbaijani enclave Nagorno was torn by further fighting.	The Azerbaijani enclave Nagorno was torn by further fighting.	36327602	1472823172751	1472823172831	NA	86
70159	764489	The Azerbaijani enclave Nagorno was torn by further fighting.	The Azerbaijani enclave Nagorno was torn by further fighting.	36327604	1472823172944	1472823173040	NA	69
70159	764489	The Azerbaijani enclave Nagorno was torn by further fighting.	The Azerbaijani enclave Nagorno was torn by further fighting.	36327605	1472823173120	1472823173208	NA	32
70159	764489	The Azerbaijani enclave Nagorno was torn by further fighting.	The Azerbaijani enclave Nagorno was torn by further fighting.	36327606	1472823173264	1472823173456	SHIFT	16
70159	764489	The Azerbaijani enclave Nagorno was torn by further fighting.	The Azerbaijani enclave Nagorno was torn by further fighting.	36327666	1472823173391	1472823173471	NA	78
70159	764489	The Azerbaijani enclave Nagorno was torn by further fighting.	The Azerbaijani enclave Nagorno was torn by further fighting.	36327667	1472823174552	1472823174632	NA	65
70159	764489	The Azerbaijani enclave Nagorno was torn by further fighting.	The Azerbaijani enclave Nagorno was torn by further fighting.	36327668	1472823174864	1472823174952	NA	71
70159	764489	The Azerbaijani enclave Nagorno was torn by further fighting.	The Azerbaijani enclave Nagorno was torn by further fighting.	36327669	1472823175032	1472823175096	NA	79
70159	764489	The Azerbaijani enclave Nagorno was torn by further fighting.	The Azerbaijani enclave Nagorno was torn by further fighting.	36327670	1472823175816	1472823175896	NA	82
70159	764489	The Azerbaijani enclave Nagorno was torn by further fighting.	The Azerbaijani enclave Nagorno was torn by further fighting.	36327671	1472823176152	1472823176297	NA	78
70159	764489	The Azerbaijani enclave Nagorno was torn by further fighting.	The Azerbaijani enclave Nagorno was torn by further fighting.	36327691	1472823176239	1472823176385	NA	79
70159	764489	The Azerbaijani enclave Nagorno was torn by further fighting.	The Azerbaijani enclave Nagorno was torn by further fighting.	36327693	1472823176504	1472823176631	NA	32
70159	764489	The Azerbaijani enclave Nagorno was torn by further fighting.	The Azerbaijani enclave Nagorno was torn by further fighting.	36327695	1472823176768	1472823176863	NA	87
70159	764489	The Azerbaijani enclave Nagorno was torn by further fighting.	The Azerbaijani enclave Nagorno was torn by further fighting.	36327698	1472823176968	1472823177056	NA	65
70159	764489	The Azerbaijani enclave Nagorno was torn by further fighting.	The Azerbaijani enclave Nagorno was torn by further fighting.	36327701	1472823177144	1472823177248	NA	83
70159	764489	The Azerbaijani enclave Nagorno was torn by further fighting.	The Azerbaijani enclave Nagorno was torn by further fighting.	36327716	1472823177232	1472823177319	NA	32
70159	764489	The Azerbaijani enclave Nagorno was torn by further fighting.	The Azerbaijani enclave Nagorno was torn by further fighting.	36327717	1472823177392	1472823177503	NA	84
70159	764489	The Azerbaijani enclave Nagorno was torn by further fighting.	The Azerbaijani enclave Nagorno was torn by further fighting.	36327718	1472823177519	1472823177592	NA	79
70159	764489	The Azerbaijani enclave Nagorno was torn by further fighting.	The Azerbaijani enclave Nagorno was torn by further fighting.	36327720	1472823177727	1472823177808	NA	82
70159	764489	The Azerbaijani enclave Nagorno was torn by further fighting.	The Azerbaijani enclave Nagorno was torn by further fighting.	36327722	1472823177904	1472823177983	NA	78
70159	764489	The Azerbaijani enclave Nagorno was torn by further fighting.	The Azerbaijani enclave Nagorno was torn by further fighting.	36327725	1472823178080	1472823178191	NA	32
70159	764489	The Azerbaijani enclave Nagorno was torn by further fighting.	The Azerbaijani enclave Nagorno was torn by further fighting.	36327748	1472823178352	1472823178431	NA	65
70159	764489	The Azerbaijani enclave Nagorno was torn by further fighting.	The Azerbaijani enclave Nagorno was torn by further fighting.	36327751	1472823178864	1472823178984		8
70159	764489	The Azerbaijani enclave Nagorno was torn by further fighting.	The Azerbaijani enclave Nagorno was torn by further fighting.	36327755	1472823179215	1472823179319	NA	66
70159	764489	The Azerbaijani enclave Nagorno was torn by further fighting.	The Azerbaijani enclave Nagorno was torn by further fighting.	36327759	1472823179608	1472823179655	NA	89
70159	764489	The Azerbaijani enclave Nagorno was torn by further fighting.	The Azerbaijani enclave Nagorno was torn by further fighting.	36327761	1472823179768	1472823179832	NA	32
70159	764489	The Azerbaijani enclave Nagorno was torn by further fighting.	The Azerbaijani enclave Nagorno was torn by further fighting.	36327772	1472823180016	1472823180127	NA	70
70159	764489	The Azerbaijani enclave Nagorno was torn by further fighting.	The Azerbaijani enclave Nagorno was torn by further fighting.	36327773	1472823180167	1472823180263	NA	85
70159	764489	The Azerbaijani enclave Nagorno was torn by further fighting.	The Azerbaijani enclave Nagorno was torn by further fighting.	36327774	1472823180320	1472823180408	NA	82
70159	764489	The Azerbaijani enclave Nagorno was torn by further fighting.	The Azerbaijani enclave Nagorno was torn by further fighting.	36327775	1472823180584	1472823180703	NA	84
70159	764489	The Azerbaijani enclave Nagorno was torn by further fighting.	The Azerbaijani enclave Nagorno was torn by further fighting.	36327777	1472823180727	1472823180807	NA	72
70159	764489	The Azerbaijani enclave Nagorno was torn by further fighting.	The Azerbaijani enclave Nagorno was torn by further fighting.	36327797	1472823180855	1472823181015	NA	69
70159	764489	The Azerbaijani enclave Nagorno was torn by further fighting.	The Azerbaijani enclave Nagorno was torn by further fighting.	36327798	1472823180968	1472823181104	NA	82
70159	764489	The Azerbaijani enclave Nagorno was torn by further fighting.	The Azerbaijani enclave Nagorno was torn by further fighting.	36327799	1472823181119	1472823181239	NA	32
70159	764489	The Azerbaijani enclave Nagorno was torn by further fighting.	The Azerbaijani enclave Nagorno was torn by further fighting.	36327800	1472823181584	1472823181679	NA	70
70159	764489	The Azerbaijani enclave Nagorno was torn by further fighting.	The Azerbaijani enclave Nagorno was torn by further fighting.	36327801	1472823181719	1472823181808	NA	73
70159	764489	The Azerbaijani enclave Nagorno was torn by further fighting.	The Azerbaijani enclave Nagorno was torn by further fighting.	36327818	1472823181928	1472823182031	NA	71
70159	764489	The Azerbaijani enclave Nagorno was torn by further fighting.	The Azerbaijani enclave Nagorno was torn by further fighting.	36327821	1472823182047	1472823182119	NA	72
70159	764489	The Azerbaijani enclave Nagorno was torn by further fighting.	The Azerbaijani enclave Nagorno was torn by further fighting.	36327824	1472823182151	1472823182232	NA	84
70159	764489	The Azerbaijani enclave Nagorno was torn by further fighting.	The Azerbaijani enclave Nagorno was torn by further fighting.	36327827	1472823182255	1472823182319	NA	73
70159	764489	The Azerbaijani enclave Nagorno was torn by further fighting.	The Azerbaijani enclave Nagorno was torn by further fighting.	36327830	1472823182432	1472823182496	NA	78
70159	764489	The Azerbaijani enclave Nagorno was torn by further fighting.	The Azerbaijani enclave Nagorno was torn by further fighting.	36327835	1472823182512	1472823182568	NA	71
70159	764489	The Azerbaijani enclave Nagorno was torn by further fighting.	The Azerbaijani enclave Nagorno was torn by further fighting.	36327837	1472823182695	1472823182839	NA	190
70159	764504	he Fed will continue to have oversight over 38 US banks.	he Fed will continue to have oversight over 38 US banks.	36327962	1472823188440	1472823188528	NA	72
70159	764504	he Fed will continue to have oversight over 38 US banks.	he Fed will continue to have oversight over 38 US banks.	36327964	1472823188680	1472823188784	NA	69
70159	764504	he Fed will continue to have oversight over 38 US banks.	he Fed will continue to have oversight over 38 US banks.	36327965	1472823188767	1472823188864	NA	32
70159	764504	he Fed will continue to have oversight over 38 US banks.	he Fed will continue to have oversight over 38 US banks.	36327966	1472823188944	1472823189152	SHIFT	16
70159	764504	he Fed will continue to have oversight over 38 US banks.	he Fed will continue to have oversight over 38 US banks.	36327967	1472823189095	1472823189168	NA	70
70159	764504	he Fed will continue to have oversight over 38 US banks.	he Fed will continue to have oversight over 38 US banks.	36327968	1472823189432	1472823189519	NA	69
70159	764504	he Fed will continue to have oversight over 38 US banks.	he Fed will continue to have oversight over 38 US banks.	36327978	1472823189616	1472823189728	NA	68
70159	764504	he Fed will continue to have oversight over 38 US banks.	he Fed will continue to have oversight over 38 US banks.	36327980	1472823189703	1472823189808	NA	32
70159	764504	he Fed will continue to have oversight over 38 US banks.	he Fed will continue to have oversight over 38 US banks.	36327983	1472823189880	1472823189967	NA	87
70159	764504	he Fed will continue to have oversight over 38 US banks.	he Fed will continue to have oversight over 38 US banks.	36327986	1472823189991	1472823190063	NA	73
70159	764504	he Fed will continue to have oversight over 38 US banks.	he Fed will continue to have oversight over 38 US banks.	36327989	1472823190240	1472823190296	NA	76
70159	764504	he Fed will continue to have oversight over 38 US banks.	he Fed will continue to have oversight over 38 US banks.	36328025	1472823190384	1472823190440	NA	76
70159	764504	he Fed will continue to have oversight over 38 US banks.	he Fed will continue to have oversight over 38 US banks.	36328026	1472823190480	1472823190584	NA	32
70159	764504	he Fed will continue to have oversight over 38 US banks.	he Fed will continue to have oversight over 38 US banks.	36328027	1472823191040	1472823191128	NA	67
70159	764504	he Fed will continue to have oversight over 38 US banks.	he Fed will continue to have oversight over 38 US banks.	36328028	1472823191143	1472823191232	NA	79
70159	764504	he Fed will continue to have oversight over 38 US banks.	he Fed will continue to have oversight over 38 US banks.	36328029	1472823191344	1472823191416	NA	78
70159	764504	he Fed will continue to have oversight over 38 US banks.	he Fed will continue to have oversight over 38 US banks.	36328043	1472823191456	1472823191527	NA	84
70159	764504	he Fed will continue to have oversight over 38 US banks.	he Fed will continue to have oversight over 38 US banks.	36328048	1472823191567	1472823191639	NA	73
70159	764504	he Fed will continue to have oversight over 38 US banks.	he Fed will continue to have oversight over 38 US banks.	36328052	1472823191791	1472823191927	NA	78
70159	764504	he Fed will continue to have oversight over 38 US banks.	he Fed will continue to have oversight over 38 US banks.	36328056	1472823191944	1472823192040	NA	85
70159	764504	he Fed will continue to have oversight over 38 US banks.	he Fed will continue to have oversight over 38 US banks.	36328060	1472823192056	1472823192171	NA	69
70159	764504	he Fed will continue to have oversight over 38 US banks.	he Fed will continue to have oversight over 38 US banks.	36328078	1472823192151	1472823192263	NA	32
70159	764504	he Fed will continue to have oversight over 38 US banks.	he Fed will continue to have oversight over 38 US banks.	36328080	1472823192320	1472823192415	NA	84
70159	764504	he Fed will continue to have oversight over 38 US banks.	he Fed will continue to have oversight over 38 US banks.	36328082	1472823192432	1472823192519	NA	79
70159	764504	he Fed will continue to have oversight over 38 US banks.	he Fed will continue to have oversight over 38 US banks.	36328084	1472823192543	1472823192631	NA	32
70159	764504	he Fed will continue to have oversight over 38 US banks.	he Fed will continue to have oversight over 38 US banks.	36328086	1472823192728	1472823192815	NA	72
70159	764504	he Fed will continue to have oversight over 38 US banks.	he Fed will continue to have oversight over 38 US banks.	36328088	1472823192920	1472823192991	NA	65
70159	764504	he Fed will continue to have oversight over 38 US banks.	he Fed will continue to have oversight over 38 US banks.	36328141	1472823193801	1472823193839	NA	86
70159	764504	he Fed will continue to have oversight over 38 US banks.	he Fed will continue to have oversight over 38 US banks.	36328143	1472823193879	1472823194015	NA	69
70159	764504	he Fed will continue to have oversight over 38 US banks.	he Fed will continue to have oversight over 38 US banks.	36328146	1472823193992	1472823194120	NA	32
70159	764504	he Fed will continue to have oversight over 38 US banks.	he Fed will continue to have oversight over 38 US banks.	36328149	1472823194543	1472823194584	NA	79
70159	764504	he Fed will continue to have oversight over 38 US banks.	he Fed will continue to have oversight over 38 US banks.	36328152	1472823194744	1472823194831	NA	86
70159	764504	he Fed will continue to have oversight over 38 US banks.	he Fed will continue to have oversight over 38 US banks.	36328183	1472823194943	1472823195104	NA	69
70159	764504	he Fed will continue to have oversight over 38 US banks.	he Fed will continue to have oversight over 38 US banks.	36328185	1472823195016	1472823195143	NA	82
70159	764504	he Fed will continue to have oversight over 38 US banks.	he Fed will continue to have oversight over 38 US banks.	36328186	1472823195728	1472823195856	NA	83
70159	764504	he Fed will continue to have oversight over 38 US banks.	he Fed will continue to have oversight over 38 US banks.	36328187	1472823195872	1472823195951	NA	73
70159	764504	he Fed will continue to have oversight over 38 US banks.	he Fed will continue to have oversight over 38 US banks.	36328188	1472823195991	1472823196095	NA	71
70159	764504	he Fed will continue to have oversight over 38 US banks.	he Fed will continue to have oversight over 38 US banks.	36328200	1472823196127	1472823196207	NA	72
70159	764504	he Fed will continue to have oversight over 38 US banks.	he Fed will continue to have oversight over 38 US banks.	36328203	1472823196263	1472823196344	NA	84
70159	764504	he Fed will continue to have oversight over 38 US banks.	he Fed will continue to have oversight over 38 US banks.	36328207	1472823196415	1472823196495	NA	32
70159	764504	he Fed will continue to have oversight over 38 US banks.	he Fed will continue to have oversight over 38 US banks.	36328210	1472823196639	1472823196743	NA	79
70159	764504	he Fed will continue to have oversight over 38 US banks.	he Fed will continue to have oversight over 38 US banks.	36328214	1472823196759	1472823196855	NA	86
70159	764504	he Fed will continue to have oversight over 38 US banks.	he Fed will continue to have oversight over 38 US banks.	36328254	1472823196983	1472823197144	NA	69
70159	764504	he Fed will continue to have oversight over 38 US banks.	he Fed will continue to have oversight over 38 US banks.	36328255	1472823197080	1472823197224	NA	82
70159	764504	he Fed will continue to have oversight over 38 US banks.	he Fed will continue to have oversight over 38 US banks.	36328256	1472823197208	1472823197327	NA	32
70159	764504	he Fed will continue to have oversight over 38 US banks.	he Fed will continue to have oversight over 38 US banks.	36328258	1472823198015	1472823198103	NA	51
70159	764504	he Fed will continue to have oversight over 38 US banks.	he Fed will continue to have oversight over 38 US banks.	36328260	1472823198295	1472823198351	NA	56
70159	764504	he Fed will continue to have oversight over 38 US banks.	he Fed will continue to have oversight over 38 US banks.	36328278	1472823198480	1472823198568	NA	32
70159	764504	he Fed will continue to have oversight over 38 US banks.	he Fed will continue to have oversight over 38 US banks.	36328281	1472823199343	1472823199839	SHIFT	16
70159	764504	he Fed will continue to have oversight over 38 US banks.	he Fed will continue to have oversight over 38 US banks.	36328279	1472823199591	1472823199663	NA	85
70159	764504	he Fed will continue to have oversight over 38 US banks.	he Fed will continue to have oversight over 38 US banks.	36328280	1472823199703	1472823199826	NA	83
70159	764504	he Fed will continue to have oversight over 38 US banks.	he Fed will continue to have oversight over 38 US banks.	36328282	1472823199807	1472823199895	NA	32
70159	764504	he Fed will continue to have oversight over 38 US banks.	he Fed will continue to have oversight over 38 US banks.	36328283	1472823200120	1472823200193	NA	66
70159	764504	he Fed will continue to have oversight over 38 US banks.	he Fed will continue to have oversight over 38 US banks.	36328295	1472823200334	1472823200391	NA	65
70159	764504	he Fed will continue to have oversight over 38 US banks.	he Fed will continue to have oversight over 38 US banks.	36328298	1472823200416	1472823200480	NA	78
70159	764504	he Fed will continue to have oversight over 38 US banks.	he Fed will continue to have oversight over 38 US banks.	36328300	1472823200657	1472823200743	NA	75
70159	764504	he Fed will continue to have oversight over 38 US banks.	he Fed will continue to have oversight over 38 US banks.	36328302	1472823200816	1472823200903	NA	83
70159	764504	he Fed will continue to have oversight over 38 US banks.	he Fed will continue to have oversight over 38 US banks.	36328304	1472823201056	1472823201183	NA	190
70159	764511	I will not be available.	I will not be available.	36328376	1472823204168	1472823204392	SHIFT	16
70159	764511	I will not be available.	I will not be available.	36328377	1472823204328	1472823204407	NA	73
70159	764511	I will not be available.	I will not be available.	36328378	1472823204432	1472823204544	NA	32
70159	764511	I will not be available.	I will not be available.	36328379	1472823204567	1472823204663	NA	87
70159	764511	I will not be available.	I will not be available.	36328380	1472823204679	1472823204743	NA	73
70159	764511	I will not be available.	I will not be available.	36328381	1472823204879	1472823204951	NA	76
70159	764511	I will not be available.	I will not be available.	36328393	1472823205007	1472823205079	NA	76
70159	764511	I will not be available.	I will not be available.	36328394	1472823205103	1472823205207	NA	32
70159	764511	I will not be available.	I will not be available.	36328395	1472823205320	1472823205431	NA	78
70159	764511	I will not be available.	I will not be available.	36328397	1472823205408	1472823205495	NA	79
70159	764511	I will not be available.	I will not be available.	36328398	1472823205519	1472823205583	NA	84
70159	764511	I will not be available.	I will not be available.	36328414	1472823205607	1472823205679	NA	32
70159	764511	I will not be available.	I will not be available.	36328417	1472823205751	1472823205807	NA	66
70159	764511	I will not be available.	I will not be available.	36328419	1472823205823	1472823205943	NA	69
70159	764511	I will not be available.	I will not be available.	36328423	1472823205904	1472823206007	NA	32
70159	764511	I will not be available.	I will not be available.	36328425	1472823206215	1472823206304	NA	65
70159	764511	I will not be available.	I will not be available.	36328437	1472823206432	1472823206503	NA	86
70159	764511	I will not be available.	I will not be available.	36328438	1472823206640	1472823206695	NA	65
70159	764511	I will not be available.	I will not be available.	36328439	1472823206711	1472823206784	NA	73
70159	764511	I will not be available.	I will not be available.	36328440	1472823206896	1472823206951	NA	76
70159	764511	I will not be available.	I will not be available.	36328441	1472823207016	1472823207095	NA	65
70159	764511	I will not be available.	I will not be available.	36328452	1472823207215	1472823207349	NA	66
70159	764511	I will not be available.	I will not be available.	36328453	1472823207354	1472823207407	NA	76
70159	764511	I will not be available.	I will not be available.	36328454	1472823207490	1472823207544	NA	69
70159	764514	I decided that I am going to stay here!	I decided that I am going to stay here!	36328563	1472823211039	1472823211231	SHIFT	16
70159	764514	I decided that I am going to stay here!	I decided that I am going to stay here!	36328566	1472823211191	1472823211271	NA	73
70159	764514	I decided that I am going to stay here!	I decided that I am going to stay here!	36328569	1472823211259	1472823211367	NA	32
70159	764514	I decided that I am going to stay here!	I decided that I am going to stay here!	36328572	1472823211391	1472823211480	NA	68
70159	764514	I decided that I am going to stay here!	I decided that I am going to stay here!	36328574	1472823211591	1472823211656	NA	69
70159	764514	I decided that I am going to stay here!	I decided that I am going to stay here!	36328576	1472823211792	1472823211855	NA	67
70159	764514	I decided that I am going to stay here!	I decided that I am going to stay here!	36328577	1472823211927	1472823211991	NA	73
70159	764514	I decided that I am going to stay here!	I decided that I am going to stay here!	36328578	1472823212056	1472823212127	NA	68
70159	764514	I decided that I am going to stay here!	I decided that I am going to stay here!	36328580	1472823212239	1472823212303	NA	69
70159	764514	I decided that I am going to stay here!	I decided that I am going to stay here!	36328582	1472823212415	1472823212495	NA	68
70159	764514	I decided that I am going to stay here!	I decided that I am going to stay here!	36328584	1472823212511	1472823212607	NA	32
70159	764514	I decided that I am going to stay here!	I decided that I am going to stay here!	36328600	1472823212655	1472823212743	NA	84
70159	764514	I decided that I am going to stay here!	I decided that I am going to stay here!	36328602	1472823212767	1472823212855	NA	72
70159	764514	I decided that I am going to stay here!	I decided that I am going to stay here!	36328605	1472823212871	1472823212951	NA	65
70159	764514	I decided that I am going to stay here!	I decided that I am going to stay here!	36328607	1472823213056	1472823213143	NA	84
70159	764514	I decided that I am going to stay here!	I decided that I am going to stay here!	36328613	1472823213119	1472823213207	NA	32
70159	764514	I decided that I am going to stay here!	I decided that I am going to stay here!	36328614	1472823213191	1472823213351	SHIFT	16
70159	764514	I decided that I am going to stay here!	I decided that I am going to stay here!	36328616	1472823213279	1472823213368	NA	73
70159	764514	I decided that I am going to stay here!	I decided that I am going to stay here!	36328619	1472823213415	1472823213519	NA	32
70159	764514	I decided that I am going to stay here!	I decided that I am going to stay here!	36328622	1472823213592	1472823213695	NA	65
70159	764514	I decided that I am going to stay here!	I decided that I am going to stay here!	36328624	1472823213712	1472823213783	NA	77
70159	764514	I decided that I am going to stay here!	I decided that I am going to stay here!	36328626	1472823213807	1472823213895	NA	32
70159	764514	I decided that I am going to stay here!	I decided that I am going to stay here!	36328638	1472823214207	1472823214311	NA	71
70159	764514	I decided that I am going to stay here!	I decided that I am going to stay here!	36328640	1472823214295	1472823214343	NA	79
70159	764514	I decided that I am going to stay here!	I decided that I am going to stay here!	36328642	1472823214455	1472823214520	NA	73
70159	764514	I decided that I am going to stay here!	I decided that I am going to stay here!	36328644	1472823214640	1472823214703	NA	78
70159	764514	I decided that I am going to stay here!	I decided that I am going to stay here!	36328646	1472823214719	1472823214831	NA	71
70159	764514	I decided that I am going to stay here!	I decided that I am going to stay here!	36328664	1472823214815	1472823214895	NA	32
70159	764514	I decided that I am going to stay here!	I decided that I am going to stay here!	36328666	1472823214983	1472823215079	NA	84
70159	764514	I decided that I am going to stay here!	I decided that I am going to stay here!	36328668	1472823215095	1472823215143	NA	79
70159	764514	I decided that I am going to stay here!	I decided that I am going to stay here!	36328672	1472823215144	1472823215239	NA	32
70159	764514	I decided that I am going to stay here!	I decided that I am going to stay here!	36328675	1472823215367	1472823215527	NA	83
70159	764514	I decided that I am going to stay here!	I decided that I am going to stay here!	36328678	1472823215839	1472823215927	NA	84
70159	764514	I decided that I am going to stay here!	I decided that I am going to stay here!	36328688	1472823216039	1472823216127	NA	65
70159	764514	I decided that I am going to stay here!	I decided that I am going to stay here!	36328690	1472823216295	1472823216383	NA	89
70159	764514	I decided that I am going to stay here!	I decided that I am going to stay here!	36328692	1472823216399	1472823216495	NA	32
70159	764514	I decided that I am going to stay here!	I decided that I am going to stay here!	36328694	1472823216615	1472823216695	NA	72
70159	764514	I decided that I am going to stay here!	I decided that I am going to stay here!	36328717	1472823216679	1472823216783	NA	69
70159	764514	I decided that I am going to stay here!	I decided that I am going to stay here!	36328720	1472823216719	1472823216903	NA	82
70159	764514	I decided that I am going to stay here!	I decided that I am going to stay here!	36328722	1472823216879	1472823216991	NA	69
70159	764514	I decided that I am going to stay here!	I decided that I am going to stay here!	36328727	1472823217079	1472823217263	SHIFT	16
70159	764514	I decided that I am going to stay here!	I decided that I am going to stay here!	36328725	1472823217151	1472823217239	NA	49
70159	764516	Donovan McNabb is one of my starters.	Donovan McNabb is one of my starters.	36328831	1472823222207	1472823222391	SHIFT	16
70159	764516	Donovan McNabb is one of my starters.	Donovan McNabb is one of my starters.	36328833	1472823222343	1472823222407	NA	68
70159	764516	Donovan McNabb is one of my starters.	Donovan McNabb is one of my starters.	36328834	1472823222503	1472823222591	NA	79
70159	764516	Donovan McNabb is one of my starters.	Donovan McNabb is one of my starters.	36328835	1472823222727	1472823222855	NA	78
70159	764516	Donovan McNabb is one of my starters.	Donovan McNabb is one of my starters.	36328836	1472823222815	1472823222927	NA	79
70159	764516	Donovan McNabb is one of my starters.	Donovan McNabb is one of my starters.	36328837	1472823223495	1472823223567	NA	86
70159	764516	Donovan McNabb is one of my starters.	Donovan McNabb is one of my starters.	36328849	1472823223743	1472823223831	NA	65
70159	764516	Donovan McNabb is one of my starters.	Donovan McNabb is one of my starters.	36328851	1472823223919	1472823223991	NA	78
70159	764516	Donovan McNabb is one of my starters.	Donovan McNabb is one of my starters.	36328856	1472823224095	1472823224191	NA	32
70159	764516	Donovan McNabb is one of my starters.	Donovan McNabb is one of my starters.	36328860	1472823224303	1472823224495	SHIFT	16
70159	764516	Donovan McNabb is one of my starters.	Donovan McNabb is one of my starters.	36328863	1472823224415	1472823224511	NA	77
70159	764516	Donovan McNabb is one of my starters.	Donovan McNabb is one of my starters.	36328868	1472823224607	1472823224679	NA	67
70159	764516	Donovan McNabb is one of my starters.	Donovan McNabb is one of my starters.	36328881	1472823224767	1472823224991	SHIFT	16
70159	764516	Donovan McNabb is one of my starters.	Donovan McNabb is one of my starters.	36328879	1472823224903	1472823224975	NA	78
70159	764516	Donovan McNabb is one of my starters.	Donovan McNabb is one of my starters.	36328883	1472823225167	1472823225239	NA	65
70159	764516	Donovan McNabb is one of my starters.	Donovan McNabb is one of my starters.	36328885	1472823225343	1472823225407	NA	66
70159	764516	Donovan McNabb is one of my starters.	Donovan McNabb is one of my starters.	36328887	1472823225495	1472823225551	NA	66
70159	764516	Donovan McNabb is one of my starters.	Donovan McNabb is one of my starters.	36328889	1472823225575	1472823225663	NA	32
70159	764516	Donovan McNabb is one of my starters.	Donovan McNabb is one of my starters.	36328893	1472823225879	1472823225943	NA	73
70159	764516	Donovan McNabb is one of my starters.	Donovan McNabb is one of my starters.	36328895	1472823225959	1472823226047	NA	83
70159	764516	Donovan McNabb is one of my starters.	Donovan McNabb is one of my starters.	36328897	1472823226031	1472823226119	NA	32
70159	764516	Donovan McNabb is one of my starters.	Donovan McNabb is one of my starters.	36328899	1472823226151	1472823226239	NA	79
70159	764516	Donovan McNabb is one of my starters.	Donovan McNabb is one of my starters.	36328901	1472823226375	1472823226439	NA	78
70159	764516	Donovan McNabb is one of my starters.	Donovan McNabb is one of my starters.	36328908	1472823226455	1472823226567	NA	69
70159	764516	Donovan McNabb is one of my starters.	Donovan McNabb is one of my starters.	36328910	1472823226551	1472823226615	NA	32
70159	764516	Donovan McNabb is one of my starters.	Donovan McNabb is one of my starters.	36328912	1472823226695	1472823226775	NA	79
70159	764516	Donovan McNabb is one of my starters.	Donovan McNabb is one of my starters.	36328914	1472823226791	1472823226855	NA	70
70159	764516	Donovan McNabb is one of my starters.	Donovan McNabb is one of my starters.	36328915	1472823226871	1472823226951	NA	32
70159	764516	Donovan McNabb is one of my starters.	Donovan McNabb is one of my starters.	36328933	1472823227064	1472823227167	NA	77
70159	764516	Donovan McNabb is one of my starters.	Donovan McNabb is one of my starters.	36328934	1472823227231	1472823227319	NA	89
70159	764516	Donovan McNabb is one of my starters.	Donovan McNabb is one of my starters.	36328935	1472823227367	1472823227463	NA	32
70159	764516	Donovan McNabb is one of my starters.	Donovan McNabb is one of my starters.	36328937	1472823227607	1472823227703	NA	83
70159	764516	Donovan McNabb is one of my starters.	Donovan McNabb is one of my starters.	36328939	1472823227791	1472823227879	NA	84
70159	764516	Donovan McNabb is one of my starters.	Donovan McNabb is one of my starters.	36328958	1472823227967	1472823228063	NA	65
70159	764516	Donovan McNabb is one of my starters.	Donovan McNabb is one of my starters.	36328960	1472823228095	1472823228215	NA	82
70159	764516	Donovan McNabb is one of my starters.	Donovan McNabb is one of my starters.	36328961	1472823228295	1472823228407	NA	84
70159	764516	Donovan McNabb is one of my starters.	Donovan McNabb is one of my starters.	36328962	1472823228463	1472823228575	NA	69
70159	764516	Donovan McNabb is one of my starters.	Donovan McNabb is one of my starters.	36328963	1472823228527	1472823228639	NA	82
70159	764516	Donovan McNabb is one of my starters.	Donovan McNabb is one of my starters.	36328964	1472823228807	1472823228895	NA	83
70159	764525	I'll give him 10.	I'll give him a 10.	36329060	1472823232231	1472823232439	SHIFT	16
70159	764525	I'll give him 10.	I'll give him a 10.	36329062	1472823232407	1472823232455	NA	73
70159	764525	I'll give him 10.	I'll give him a 10.	36329065	1472823232743	1472823232807	NA	222
70159	764525	I'll give him 10.	I'll give him a 10.	36329067	1472823232968	1472823233031	NA	76
70159	764525	I'll give him 10.	I'll give him a 10.	36329069	1472823233096	1472823233169	NA	76
70159	764525	I'll give him 10.	I'll give him a 10.	36329072	1472823233151	1472823233279	NA	32
70159	764525	I'll give him 10.	I'll give him a 10.	36329073	1472823233303	1472823233351	NA	71
70159	764525	I'll give him 10.	I'll give him a 10.	36329074	1472823233383	1472823233455	NA	73
70159	764525	I'll give him 10.	I'll give him a 10.	36329075	1472823233503	1472823233591	NA	86
70159	764525	I'll give him 10.	I'll give him a 10.	36329076	1472823233703	1472823233791	NA	69
70159	764525	I'll give him 10.	I'll give him a 10.	36329101	1472823233775	1472823233879	NA	32
70159	764525	I'll give him 10.	I'll give him a 10.	36329105	1472823233991	1472823234055	NA	72
70159	764525	I'll give him 10.	I'll give him a 10.	36329110	1472823234071	1472823234127	NA	73
70159	764525	I'll give him 10.	I'll give him a 10.	36329115	1472823234239	1472823234319	NA	77
70159	764525	I'll give him 10.	I'll give him a 10.	36329119	1472823234344	1472823234431	NA	32
70159	764525	I'll give him 10.	I'll give him a 10.	36329122	1472823234495	1472823234591	NA	65
70159	764525	I'll give him 10.	I'll give him a 10.	36329140	1472823234567	1472823234679	NA	32
70159	764525	I'll give him 10.	I'll give him a 10.	36329141	1472823234991	1472823235063	NA	49
70159	764525	I'll give him 10.	I'll give him a 10.	36329142	1472823235119	1472823235167	NA	48
70159	764525	I'll give him 10.	I'll give him a 10.	36329143	1472823235439	1472823235503	NA	190
70159	764527	Don't use him this week.	Don't use him this week.	36329236	1472823240193	1472823240350	SHIFT	16
70159	764527	Don't use him this week.	Don't use him this week.	36329237	1472823240318	1472823240391	NA	68
70159	764527	Don't use him this week.	Don't use him this week.	36329238	1472823240503	1472823240567	NA	79
70159	764527	Don't use him this week.	Don't use him this week.	36329239	1472823240695	1472823240767	NA	78
70159	764527	Don't use him this week.	Don't use him this week.	36329240	1472823240926	1472823240990	NA	222
70159	764527	Don't use him this week.	Don't use him this week.	36329241	1472823241007	1472823241110	NA	84
70159	764527	Don't use him this week.	Don't use him this week.	36329255	1472823241095	1472823241206	NA	32
70159	764527	Don't use him this week.	Don't use him this week.	36329258	1472823241302	1472823241366	NA	85
70159	764527	Don't use him this week.	Don't use him this week.	36329261	1472823241382	1472823241455	NA	83
70159	764527	Don't use him this week.	Don't use him this week.	36329263	1472823241551	1472823241670	NA	69
70159	764527	Don't use him this week.	Don't use him this week.	36329265	1472823241655	1472823241743	NA	32
70159	764527	Don't use him this week.	Don't use him this week.	36329266	1472823241895	1472823242031	NA	72
70159	764527	Don't use him this week.	Don't use him this week.	36329270	1472823242095	1472823242167	NA	73
70159	764527	Don't use him this week.	Don't use him this week.	36329272	1472823242343	1472823242415	NA	77
70159	764527	Don't use him this week.	Don't use him this week.	36329274	1472823242431	1472823242503	NA	32
70159	764527	Don't use him this week.	Don't use him this week.	36329277	1472823242543	1472823242639	NA	84
70159	764527	Don't use him this week.	Don't use him this week.	36329281	1472823242655	1472823242703	NA	72
70159	764527	Don't use him this week.	Don't use him this week.	36329290	1472823242839	1472823242894	NA	73
70159	764527	Don't use him this week.	Don't use him this week.	36329292	1472823242975	1472823243095	NA	83
70159	764527	Don't use him this week.	Don't use him this week.	36329294	1472823243063	1472823243207	NA	32
70159	764527	Don't use him this week.	Don't use him this week.	36329297	1472823243439	1472823243607	NA	87
70159	764527	Don't use him this week.	Don't use him this week.	36329300	1472823243655	1472823243720	NA	69
70159	764527	Don't use him this week.	Don't use him this week.	36329308	1472823243919	1472823243991	NA	69
70159	764527	Don't use him this week.	Don't use him this week.	36329309	1472823244055	1472823244143	NA	75
70159	764533	I hope we'll get the game here in Denver.	I hope we'll get the game here in Denver.	36329533	1472823244351	1472823256230	NA	190
70159	764533	I hope we'll get the game here in Denver.	I hope we'll get the game here in Denver.	36329403	1472823248743	1472823249175	SHIFT	16
70159	764533	I hope we'll get the game here in Denver.	I hope we'll get the game here in Denver.	36329404	1472823249119	1472823249191	NA	73
70159	764533	I hope we'll get the game here in Denver.	I hope we'll get the game here in Denver.	36329405	1472823249255	1472823249351	NA	32
70159	764533	I hope we'll get the game here in Denver.	I hope we'll get the game here in Denver.	36329406	1472823249479	1472823249583	NA	72
70159	764533	I hope we'll get the game here in Denver.	I hope we'll get the game here in Denver.	36329407	1472823249615	1472823249655	NA	79
70159	764533	I hope we'll get the game here in Denver.	I hope we'll get the game here in Denver.	36329408	1472823249743	1472823249815	NA	80
70159	764533	I hope we'll get the game here in Denver.	I hope we'll get the game here in Denver.	36329409	1472823249855	1472823249975	NA	69
70159	764533	I hope we'll get the game here in Denver.	I hope we'll get the game here in Denver.	36329411	1472823249927	1472823250030	NA	32
70159	764533	I hope we'll get the game here in Denver.	I hope we'll get the game here in Denver.	36329413	1472823250079	1472823250239	NA	87
70159	764533	I hope we'll get the game here in Denver.	I hope we'll get the game here in Denver.	36329415	1472823250191	1472823250319	NA	69
70159	764533	I hope we'll get the game here in Denver.	I hope we'll get the game here in Denver.	36329419	1472823250583	1472823250655	NA	222
70159	764533	I hope we'll get the game here in Denver.	I hope we'll get the game here in Denver.	36329429	1472823251095	1472823251151	NA	76
70159	764533	I hope we'll get the game here in Denver.	I hope we'll get the game here in Denver.	36329430	1472823251231	1472823251303	NA	76
70159	764533	I hope we'll get the game here in Denver.	I hope we'll get the game here in Denver.	36329431	1472823251319	1472823251366	NA	32
70159	764533	I hope we'll get the game here in Denver.	I hope we'll get the game here in Denver.	36329432	1472823251462	1472823251550	NA	71
70159	764533	I hope we'll get the game here in Denver.	I hope we'll get the game here in Denver.	36329433	1472823251639	1472823251727	NA	69
70159	764533	I hope we'll get the game here in Denver.	I hope we'll get the game here in Denver.	36329440	1472823251807	1472823251895	NA	84
70159	764533	I hope we'll get the game here in Denver.	I hope we'll get the game here in Denver.	36329442	1472823251863	1472823251975	NA	32
70159	764533	I hope we'll get the game here in Denver.	I hope we'll get the game here in Denver.	36329443	1472823252007	1472823252095	NA	84
70159	764533	I hope we'll get the game here in Denver.	I hope we'll get the game here in Denver.	36329446	1472823252119	1472823252183	NA	72
70159	764533	I hope we'll get the game here in Denver.	I hope we'll get the game here in Denver.	36329447	1472823252206	1472823252334	NA	69
70159	764533	I hope we'll get the game here in Denver.	I hope we'll get the game here in Denver.	36329470	1472823252318	1472823252438	NA	32
70159	764533	I hope we'll get the game here in Denver.	I hope we'll get the game here in Denver.	36329471	1472823252814	1472823252918	NA	71
70159	764533	I hope we'll get the game here in Denver.	I hope we'll get the game here in Denver.	36329472	1472823253015	1472823253102	NA	65
70159	764533	I hope we'll get the game here in Denver.	I hope we'll get the game here in Denver.	36329473	1472823253142	1472823253214	NA	77
70159	764533	I hope we'll get the game here in Denver.	I hope we'll get the game here in Denver.	36329474	1472823253231	1472823253348	NA	69
70159	764533	I hope we'll get the game here in Denver.	I hope we'll get the game here in Denver.	36329487	1472823253327	1472823253439	NA	32
70159	764533	I hope we'll get the game here in Denver.	I hope we'll get the game here in Denver.	36329489	1472823253807	1472823253895	NA	72
70159	764533	I hope we'll get the game here in Denver.	I hope we'll get the game here in Denver.	36329491	1472823253911	1472823254039	NA	69
70159	764533	I hope we'll get the game here in Denver.	I hope we'll get the game here in Denver.	36329493	1472823253967	1472823254136	NA	82
70159	764533	I hope we'll get the game here in Denver.	I hope we'll get the game here in Denver.	36329495	1472823254119	1472823254247	NA	69
70159	764533	I hope we'll get the game here in Denver.	I hope we'll get the game here in Denver.	36329496	1472823254231	1472823254319	NA	32
70159	764533	I hope we'll get the game here in Denver.	I hope we'll get the game here in Denver.	36329497	1472823254367	1472823254463	NA	73
70159	764533	I hope we'll get the game here in Denver.	I hope we'll get the game here in Denver.	36329498	1472823254631	1472823254695	NA	78
70159	764533	I hope we'll get the game here in Denver.	I hope we'll get the game here in Denver.	36329499	1472823254751	1472823254879	NA	32
70159	764533	I hope we'll get the game here in Denver.	I hope we'll get the game here in Denver.	36329500	1472823254927	1472823255055	SHIFT	16
70159	764533	I hope we'll get the game here in Denver.	I hope we'll get the game here in Denver.	36329501	1472823254991	1472823255071	NA	68
70159	764533	I hope we'll get the game here in Denver.	I hope we'll get the game here in Denver.	36329502	1472823255191	1472823255239	NA	69
70159	764533	I hope we'll get the game here in Denver.	I hope we'll get the game here in Denver.	36329528	1472823255591	1472823255639	NA	78
70159	764533	I hope we'll get the game here in Denver.	I hope we'll get the game here in Denver.	36329530	1472823255727	1472823255783	NA	86
70159	764533	I hope we'll get the game here in Denver.	I hope we'll get the game here in Denver.	36329531	1472823255895	1472823256039	NA	69
70159	764533	I hope we'll get the game here in Denver.	I hope we'll get the game here in Denver.	36329532	1472823255967	1472823256079	NA	82
70159	764541	his will be hard.	his will be hard.	36329613	1472823260350	1472823260574	SHIFT	16
70159	764541	his will be hard.	his will be hard.	36329614	1472823260526	1472823260607	NA	72
70159	764541	his will be hard.	his will be hard.	36329615	1472823261343	1472823261439		8
70159	764541	his will be hard.	his will be hard.	36329616	1472823261542	1472823261615	NA	72
70159	764541	his will be hard.	his will be hard.	36329617	1472823261654	1472823261742	NA	73
70159	764541	his will be hard.	his will be hard.	36329618	1472823261838	1472823261990	NA	83
70159	764541	his will be hard.	his will be hard.	36329624	1472823261926	1472823262063	NA	32
70159	764541	his will be hard.	his will be hard.	36329625	1472823262143	1472823262247	NA	87
70159	764541	his will be hard.	his will be hard.	36329626	1472823262231	1472823262302	NA	73
70159	764541	his will be hard.	his will be hard.	36329627	1472823262438	1472823262503	NA	76
70159	764541	his will be hard.	his will be hard.	36329628	1472823262566	1472823262639	NA	76
70159	764541	his will be hard.	his will be hard.	36329646	1472823262615	1472823262742	NA	32
70159	764541	his will be hard.	his will be hard.	36329647	1472823262918	1472823262982	NA	66
70159	764541	his will be hard.	his will be hard.	36329648	1472823263007	1472823263094	NA	69
70159	764541	his will be hard.	his will be hard.	36329649	1472823263062	1472823263167	NA	32
70159	764541	his will be hard.	his will be hard.	36329650	1472823263342	1472823263391	NA	72
70159	764541	his will be hard.	his will be hard.	36329651	1472823263414	1472823263478	NA	65
70159	764541	his will be hard.	his will be hard.	36329663	1472823263527	1472823263638	NA	82
70159	764541	his will be hard.	his will be hard.	36329664	1472823263721	1472823263815	NA	68
70159	764541	his will be hard.	his will be hard.	36329665	1472823263878	1472823263990	NA	190
70159	764543	John, please send this to Shelly.	John, please send this to Shelly.	36329740	1472823267567	1472823268078	SHIFT	16
70159	764543	John, please send this to Shelly.	John, please send this to Shelly.	36329738	1472823268006	1472823268062	NA	74
70159	764543	John, please send this to Shelly.	John, please send this to Shelly.	36329741	1472823268214	1472823268294	NA	79
70159	764543	John, please send this to Shelly.	John, please send this to Shelly.	36329742	1472823268311	1472823268400	NA	71
70159	764543	John, please send this to Shelly.	John, please send this to Shelly.	36329743	1472823268463	1472823268479	NA	78
70159	764543	John, please send this to Shelly.	John, please send this to Shelly.	36329744	1472823268855	1472823268919		8
70159	764543	John, please send this to Shelly.	John, please send this to Shelly.	36329762	1472823269007	1472823269107		8
70159	764543	John, please send this to Shelly.	John, please send this to Shelly.	36329764	1472823269615	1472823269703	NA	72
70159	764543	John, please send this to Shelly.	John, please send this to Shelly.	36329767	1472823269768	1472823269863	NA	78
70159	764543	John, please send this to Shelly.	John, please send this to Shelly.	36329769	1472823270127	1472823270207	NA	188
70159	764543	John, please send this to Shelly.	John, please send this to Shelly.	36329771	1472823270231	1472823270318	NA	32
70159	764543	John, please send this to Shelly.	John, please send this to Shelly.	36329783	1472823270519	1472823270606	NA	80
70159	764543	John, please send this to Shelly.	John, please send this to Shelly.	36329785	1472823270719	1472823270790	NA	76
70159	764543	John, please send this to Shelly.	John, please send this to Shelly.	36329787	1472823270775	1472823270854	NA	69
70159	764543	John, please send this to Shelly.	John, please send this to Shelly.	36329789	1472823270927	1472823271030	NA	65
70159	764543	John, please send this to Shelly.	John, please send this to Shelly.	36329790	1472823271119	1472823271214	NA	83
70159	764543	John, please send this to Shelly.	John, please send this to Shelly.	36329795	1472823271295	1472823271414	NA	69
70159	764543	John, please send this to Shelly.	John, please send this to Shelly.	36329796	1472823271375	1472823271510	NA	32
70159	764543	John, please send this to Shelly.	John, please send this to Shelly.	36329798	1472823271495	1472823271606	NA	83
70159	764543	John, please send this to Shelly.	John, please send this to Shelly.	36329800	1472823271678	1472823271774	NA	69
70159	764543	John, please send this to Shelly.	John, please send this to Shelly.	36329802	1472823271814	1472823271918	NA	78
70159	764543	John, please send this to Shelly.	John, please send this to Shelly.	36329810	1472823271935	1472823272054	NA	68
70159	764543	John, please send this to Shelly.	John, please send this to Shelly.	36329811	1472823272039	1472823272118	NA	32
70159	764543	John, please send this to Shelly.	John, please send this to Shelly.	36329812	1472823272167	1472823272251	NA	84
70159	764543	John, please send this to Shelly.	John, please send this to Shelly.	36329815	1472823272231	1472823272278	NA	72
70159	764543	John, please send this to Shelly.	John, please send this to Shelly.	36329818	1472823272390	1472823272461	NA	73
70159	764543	John, please send this to Shelly.	John, please send this to Shelly.	36329827	1472823272464	1472823272566	NA	83
70159	764543	John, please send this to Shelly.	John, please send this to Shelly.	36329828	1472823272543	1472823272614	NA	32
70159	764543	John, please send this to Shelly.	John, please send this to Shelly.	36329829	1472823272678	1472823272766	NA	84
70159	764543	John, please send this to Shelly.	John, please send this to Shelly.	36329830	1472823272791	1472823272839	NA	79
70159	764543	John, please send this to Shelly.	John, please send this to Shelly.	36329831	1472823272879	1472823272950	NA	32
70159	764543	John, please send this to Shelly.	John, please send this to Shelly.	36329837	1472823273095	1472823273239	SHIFT	16
70159	764543	John, please send this to Shelly.	John, please send this to Shelly.	36329838	1472823273167	1472823273254	NA	83
70159	764543	John, please send this to Shelly.	John, please send this to Shelly.	36329839	1472823273414	1472823273518	NA	72
70159	764543	John, please send this to Shelly.	John, please send this to Shelly.	36329840	1472823273743	1472823273807	NA	69
70159	764543	John, please send this to Shelly.	John, please send this to Shelly.	36329841	1472823273839	1472823273927	NA	76
70159	764543	John, please send this to Shelly.	John, please send this to Shelly.	36329842	1472823273991	1472823274079	NA	76
70159	764543	John, please send this to Shelly.	John, please send this to Shelly.	36329863	1472823274655	1472823274703	NA	85
70159	764543	John, please send this to Shelly.	John, please send this to Shelly.	36329864	1472823275238	1472823275327		8
70159	764543	John, please send this to Shelly.	John, please send this to Shelly.	36329865	1472823275631	1472823275718	NA	89
70159	764543	John, please send this to Shelly.	John, please send this to Shelly.	36329866	1472823275864	1472823276004	NA	190
70159	764549	He is expected to participate in practice.	He is expected to participate in practice.	36329907	1472823279766	1472823279919	SHIFT	16
70159	764549	He is expected to participate in practice.	He is expected to participate in practice.	36329908	1472823279878	1472823279935	NA	72
70159	764549	He is expected to participate in practice.	He is expected to participate in practice.	36329909	1472823280126	1472823280262	NA	69
70159	764549	He is expected to participate in practice.	He is expected to participate in practice.	36329910	1472823280231	1472823280327	NA	32
70159	764549	He is expected to participate in practice.	He is expected to participate in practice.	36329911	1472823280390	1472823280454	NA	73
70159	764549	He is expected to participate in practice.	He is expected to participate in practice.	36329912	1472823280470	1472823280566	NA	83
70159	764549	He is expected to participate in practice.	He is expected to participate in practice.	36329918	1472823280527	1472823280615	NA	32
70159	764549	He is expected to participate in practice.	He is expected to participate in practice.	36329919	1472823280775	1472823280918	NA	69
70159	764549	He is expected to participate in practice.	He is expected to participate in practice.	36329920	1472823281231	1472823281343	NA	88
70159	764549	He is expected to participate in practice.	He is expected to participate in practice.	36329921	1472823281358	1472823281430	NA	80
70159	764549	He is expected to participate in practice.	He is expected to participate in practice.	36329922	1472823281479	1472823281566	NA	69
70159	764549	He is expected to participate in practice.	He is expected to participate in practice.	36329923	1472823281678	1472823281790	NA	67
70159	764549	He is expected to participate in practice.	He is expected to participate in practice.	36329930	1472823281903	1472823282015	NA	84
70159	764549	He is expected to participate in practice.	He is expected to participate in practice.	36329931	1472823282095	1472823282175	NA	69
70159	764549	He is expected to participate in practice.	He is expected to participate in practice.	36329932	1472823282279	1472823282366	NA	68
70159	764549	He is expected to participate in practice.	He is expected to participate in practice.	36329933	1472823282351	1472823282438	NA	32
70159	764549	He is expected to participate in practice.	He is expected to participate in practice.	36329934	1472823282479	1472823282575	NA	84
70159	764549	He is expected to participate in practice.	He is expected to participate in practice.	36329946	1472823282590	1472823282662	NA	79
70159	764549	He is expected to participate in practice.	He is expected to participate in practice.	36329947	1472823282695	1472823282767	NA	32
70159	764549	He is expected to participate in practice.	He is expected to participate in practice.	36329948	1472823282919	1472823283006	NA	80
70159	764549	He is expected to participate in practice.	He is expected to participate in practice.	36329949	1472823283030	1472823283118	NA	65
70159	764549	He is expected to participate in practice.	He is expected to participate in practice.	36329950	1472823283190	1472823283302	NA	82
70159	764549	He is expected to participate in practice.	He is expected to participate in practice.	36329974	1472823283406	1472823283478	NA	84
70159	764549	He is expected to participate in practice.	He is expected to participate in practice.	36329976	1472823283566	1472823283638	NA	73
70159	764549	He is expected to participate in practice.	He is expected to participate in practice.	36329978	1472823283926	1472823284014	NA	67
70159	764549	He is expected to participate in practice.	He is expected to participate in practice.	36329979	1472823284062	1472823284150	NA	73
70159	764549	He is expected to participate in practice.	He is expected to participate in practice.	36329980	1472823284639	1472823284718	NA	80
70159	764549	He is expected to participate in practice.	He is expected to participate in practice.	36329994	1472823284775	1472823284854	NA	65
70159	764549	He is expected to participate in practice.	He is expected to participate in practice.	36329996	1472823284990	1472823285095	NA	84
70159	764549	He is expected to participate in practice.	He is expected to participate in practice.	36329998	1472823285167	1472823285294	NA	69
70159	764549	He is expected to participate in practice.	He is expected to participate in practice.	36329999	1472823285279	1472823285350	NA	32
70159	764549	He is expected to participate in practice.	He is expected to participate in practice.	36330000	1472823285430	1472823285502	NA	73
70159	764549	He is expected to participate in practice.	He is expected to participate in practice.	36330017	1472823285631	1472823285695	NA	78
70159	764549	He is expected to participate in practice.	He is expected to participate in practice.	36330018	1472823285710	1472823285806	NA	32
70159	764549	He is expected to participate in practice.	He is expected to participate in practice.	36330020	1472823285878	1472823285967	NA	80
70159	764549	He is expected to participate in practice.	He is expected to participate in practice.	36330022	1472823285982	1472823286079	NA	82
70159	764549	He is expected to participate in practice.	He is expected to participate in practice.	36330024	1472823286174	1472823286254	NA	65
70159	764549	He is expected to participate in practice.	He is expected to participate in practice.	36330054	1472823286454	1472823286542	NA	67
70159	764549	He is expected to participate in practice.	He is expected to participate in practice.	36330055	1472823286694	1472823286766	NA	84
70159	764549	He is expected to participate in practice.	He is expected to participate in practice.	36330056	1472823287238	1472823287318	NA	73
70159	764549	He is expected to participate in practice.	He is expected to participate in practice.	36330057	1472823287462	1472823287550	NA	67
70159	764549	He is expected to participate in practice.	He is expected to participate in practice.	36330058	1472823287678	1472823287750	NA	69
70159	764549	He is expected to participate in practice.	He is expected to participate in practice.	36330064	1472823287862	1472823287950	NA	190
70159	764554	The opposition had plans to hold demonstrations on Monday afternoon.	The opposition had plans to hold demonstrations on Monday afternoon.	36330185	1472823293119	1472823293278	SHIFT	16
70159	764554	The opposition had plans to hold demonstrations on Monday afternoon.	The opposition had plans to hold demonstrations on Monday afternoon.	36330184	1472823293190	1472823293262	NA	84
70159	764554	The opposition had plans to hold demonstrations on Monday afternoon.	The opposition had plans to hold demonstrations on Monday afternoon.	36330186	1472823293390	1472823293494	NA	72
70159	764554	The opposition had plans to hold demonstrations on Monday afternoon.	The opposition had plans to hold demonstrations on Monday afternoon.	36330187	1472823293606	1472823293718	NA	69
70159	764554	The opposition had plans to hold demonstrations on Monday afternoon.	The opposition had plans to hold demonstrations on Monday afternoon.	36330188	1472823293694	1472823293790	NA	32
70159	764554	The opposition had plans to hold demonstrations on Monday afternoon.	The opposition had plans to hold demonstrations on Monday afternoon.	36330189	1472823294342	1472823294408	NA	79
70159	764554	The opposition had plans to hold demonstrations on Monday afternoon.	The opposition had plans to hold demonstrations on Monday afternoon.	36330201	1472823294527	1472823294614	NA	80
70159	764554	The opposition had plans to hold demonstrations on Monday afternoon.	The opposition had plans to hold demonstrations on Monday afternoon.	36330202	1472823294679	1472823294754	NA	80
70159	764554	The opposition had plans to hold demonstrations on Monday afternoon.	The opposition had plans to hold demonstrations on Monday afternoon.	36330203	1472823294839	1472823294918	NA	79
70159	764554	The opposition had plans to hold demonstrations on Monday afternoon.	The opposition had plans to hold demonstrations on Monday afternoon.	36330204	1472823294967	1472823295078	NA	83
70159	764554	The opposition had plans to hold demonstrations on Monday afternoon.	The opposition had plans to hold demonstrations on Monday afternoon.	36330205	1472823295102	1472823295174	NA	73
70159	764554	The opposition had plans to hold demonstrations on Monday afternoon.	The opposition had plans to hold demonstrations on Monday afternoon.	36330232	1472823295231	1472823295302	NA	84
70159	764554	The opposition had plans to hold demonstrations on Monday afternoon.	The opposition had plans to hold demonstrations on Monday afternoon.	36330236	1472823295326	1472823295430	NA	73
70159	764554	The opposition had plans to hold demonstrations on Monday afternoon.	The opposition had plans to hold demonstrations on Monday afternoon.	36330241	1472823295495	1472823295590	NA	79
70159	764554	The opposition had plans to hold demonstrations on Monday afternoon.	The opposition had plans to hold demonstrations on Monday afternoon.	36330245	1472823295750	1472823295831	NA	78
70159	764554	The opposition had plans to hold demonstrations on Monday afternoon.	The opposition had plans to hold demonstrations on Monday afternoon.	36330247	1472823295854	1472823295966	NA	32
70159	764554	The opposition had plans to hold demonstrations on Monday afternoon.	The opposition had plans to hold demonstrations on Monday afternoon.	36330259	1472823296014	1472823296118	NA	72
70159	764554	The opposition had plans to hold demonstrations on Monday afternoon.	The opposition had plans to hold demonstrations on Monday afternoon.	36330262	1472823296134	1472823296206	NA	65
70159	764554	The opposition had plans to hold demonstrations on Monday afternoon.	The opposition had plans to hold demonstrations on Monday afternoon.	36330265	1472823296302	1472823296454	NA	68
70159	764554	The opposition had plans to hold demonstrations on Monday afternoon.	The opposition had plans to hold demonstrations on Monday afternoon.	36330267	1472823296431	1472823296526	NA	32
70159	764554	The opposition had plans to hold demonstrations on Monday afternoon.	The opposition had plans to hold demonstrations on Monday afternoon.	36330269	1472823296767	1472823296894	NA	80
70159	764554	The opposition had plans to hold demonstrations on Monday afternoon.	The opposition had plans to hold demonstrations on Monday afternoon.	36330272	1472823297014	1472823297095	NA	76
70159	764554	The opposition had plans to hold demonstrations on Monday afternoon.	The opposition had plans to hold demonstrations on Monday afternoon.	36330273	1472823297126	1472823297214	NA	65
70159	764554	The opposition had plans to hold demonstrations on Monday afternoon.	The opposition had plans to hold demonstrations on Monday afternoon.	36330274	1472823297262	1472823297327	NA	78
70159	764554	The opposition had plans to hold demonstrations on Monday afternoon.	The opposition had plans to hold demonstrations on Monday afternoon.	36330275	1472823297366	1472823297454	NA	83
70159	764554	The opposition had plans to hold demonstrations on Monday afternoon.	The opposition had plans to hold demonstrations on Monday afternoon.	36330276	1472823297470	1472823297550	NA	32
70159	764554	The opposition had plans to hold demonstrations on Monday afternoon.	The opposition had plans to hold demonstrations on Monday afternoon.	36330288	1472823297630	1472823297726	NA	84
70159	764554	The opposition had plans to hold demonstrations on Monday afternoon.	The opposition had plans to hold demonstrations on Monday afternoon.	36330289	1472823297742	1472823297830	NA	79
70159	764554	The opposition had plans to hold demonstrations on Monday afternoon.	The opposition had plans to hold demonstrations on Monday afternoon.	36330290	1472823297815	1472823297894	NA	32
70159	764554	The opposition had plans to hold demonstrations on Monday afternoon.	The opposition had plans to hold demonstrations on Monday afternoon.	36330291	1472823298078	1472823298214	NA	72
70159	764554	The opposition had plans to hold demonstrations on Monday afternoon.	The opposition had plans to hold demonstrations on Monday afternoon.	36330292	1472823298230	1472823298302	NA	79
70159	764554	The opposition had plans to hold demonstrations on Monday afternoon.	The opposition had plans to hold demonstrations on Monday afternoon.	36330318	1472823298414	1472823298494	NA	76
70159	764554	The opposition had plans to hold demonstrations on Monday afternoon.	The opposition had plans to hold demonstrations on Monday afternoon.	36330322	1472823298575	1472823298694	NA	68
70159	764554	The opposition had plans to hold demonstrations on Monday afternoon.	The opposition had plans to hold demonstrations on Monday afternoon.	36330323	1472823298662	1472823298742	NA	32
70159	764554	The opposition had plans to hold demonstrations on Monday afternoon.	The opposition had plans to hold demonstrations on Monday afternoon.	36330324	1472823299143	1472823299255	NA	68
70159	764554	The opposition had plans to hold demonstrations on Monday afternoon.	The opposition had plans to hold demonstrations on Monday afternoon.	36330325	1472823299374	1472823299430	NA	69
70159	764554	The opposition had plans to hold demonstrations on Monday afternoon.	The opposition had plans to hold demonstrations on Monday afternoon.	36330341	1472823299454	1472823299543	NA	77
70159	764554	The opposition had plans to hold demonstrations on Monday afternoon.	The opposition had plans to hold demonstrations on Monday afternoon.	36330343	1472823299494	1472823299590	NA	79
70159	764554	The opposition had plans to hold demonstrations on Monday afternoon.	The opposition had plans to hold demonstrations on Monday afternoon.	36330345	1472823299702	1472823299766	NA	78
70159	764554	The opposition had plans to hold demonstrations on Monday afternoon.	The opposition had plans to hold demonstrations on Monday afternoon.	36330347	1472823299790	1472823299878	NA	83
70159	764554	The opposition had plans to hold demonstrations on Monday afternoon.	The opposition had plans to hold demonstrations on Monday afternoon.	36330348	1472823299982	1472823300054	NA	84
70159	764554	The opposition had plans to hold demonstrations on Monday afternoon.	The opposition had plans to hold demonstrations on Monday afternoon.	36330388	1472823300126	1472823300254	NA	82
70159	764554	The opposition had plans to hold demonstrations on Monday afternoon.	The opposition had plans to hold demonstrations on Monday afternoon.	36330391	1472823300318	1472823300406	NA	65
70159	764554	The opposition had plans to hold demonstrations on Monday afternoon.	The opposition had plans to hold demonstrations on Monday afternoon.	36330393	1472823300518	1472823300590	NA	84
70159	764554	The opposition had plans to hold demonstrations on Monday afternoon.	The opposition had plans to hold demonstrations on Monday afternoon.	36330394	1472823300718	1472823300814	NA	73
70159	764554	The opposition had plans to hold demonstrations on Monday afternoon.	The opposition had plans to hold demonstrations on Monday afternoon.	36330395	1472823300918	1472823301006	NA	79
70159	764554	The opposition had plans to hold demonstrations on Monday afternoon.	The opposition had plans to hold demonstrations on Monday afternoon.	36330418	1472823301150	1472823301214	NA	78
70159	764554	The opposition had plans to hold demonstrations on Monday afternoon.	The opposition had plans to hold demonstrations on Monday afternoon.	36330420	1472823301231	1472823301334	NA	83
70159	764554	The opposition had plans to hold demonstrations on Monday afternoon.	The opposition had plans to hold demonstrations on Monday afternoon.	36330422	1472823301318	1472823301414	NA	32
70159	764554	The opposition had plans to hold demonstrations on Monday afternoon.	The opposition had plans to hold demonstrations on Monday afternoon.	36330424	1472823301494	1472823301566	NA	79
70159	764554	The opposition had plans to hold demonstrations on Monday afternoon.	The opposition had plans to hold demonstrations on Monday afternoon.	36330427	1472823301718	1472823301782	NA	78
70159	764554	The opposition had plans to hold demonstrations on Monday afternoon.	The opposition had plans to hold demonstrations on Monday afternoon.	36330455	1472823301798	1472823301862	NA	32
70159	764554	The opposition had plans to hold demonstrations on Monday afternoon.	The opposition had plans to hold demonstrations on Monday afternoon.	36330458	1472823302080	1472823302294	SHIFT	16
70159	764554	The opposition had plans to hold demonstrations on Monday afternoon.	The opposition had plans to hold demonstrations on Monday afternoon.	36330461	1472823302190	1472823302310	NA	77
70159	764554	The opposition had plans to hold demonstrations on Monday afternoon.	The opposition had plans to hold demonstrations on Monday afternoon.	36330465	1472823302454	1472823302518	NA	79
70159	764554	The opposition had plans to hold demonstrations on Monday afternoon.	The opposition had plans to hold demonstrations on Monday afternoon.	36330469	1472823302654	1472823302726	NA	78
70159	764554	The opposition had plans to hold demonstrations on Monday afternoon.	The opposition had plans to hold demonstrations on Monday afternoon.	36330473	1472823302742	1472823302830	NA	68
70159	764554	The opposition had plans to hold demonstrations on Monday afternoon.	The opposition had plans to hold demonstrations on Monday afternoon.	36330492	1472823302878	1472823302966	NA	65
70159	764554	The opposition had plans to hold demonstrations on Monday afternoon.	The opposition had plans to hold demonstrations on Monday afternoon.	36330493	1472823303014	1472823303062	NA	89
70159	764554	The opposition had plans to hold demonstrations on Monday afternoon.	The opposition had plans to hold demonstrations on Monday afternoon.	36330495	1472823303118	1472823303206	NA	32
70159	764554	The opposition had plans to hold demonstrations on Monday afternoon.	The opposition had plans to hold demonstrations on Monday afternoon.	36330497	1472823303318	1472823303406	NA	65
70159	764554	The opposition had plans to hold demonstrations on Monday afternoon.	The opposition had plans to hold demonstrations on Monday afternoon.	36330499	1472823303502	1472823303614	NA	70
70159	764554	The opposition had plans to hold demonstrations on Monday afternoon.	The opposition had plans to hold demonstrations on Monday afternoon.	36330522	1472823303726	1472823303838	NA	84
70159	764554	The opposition had plans to hold demonstrations on Monday afternoon.	The opposition had plans to hold demonstrations on Monday afternoon.	36330526	1472823303918	1472823304033	NA	69
70159	764554	The opposition had plans to hold demonstrations on Monday afternoon.	The opposition had plans to hold demonstrations on Monday afternoon.	36330530	1472823303974	1472823304094	NA	82
70159	764554	The opposition had plans to hold demonstrations on Monday afternoon.	The opposition had plans to hold demonstrations on Monday afternoon.	36330534	1472823304230	1472823304406	NA	78
70159	764554	The opposition had plans to hold demonstrations on Monday afternoon.	The opposition had plans to hold demonstrations on Monday afternoon.	36330538	1472823304518	1472823304590	NA	79
70159	764554	The opposition had plans to hold demonstrations on Monday afternoon.	The opposition had plans to hold demonstrations on Monday afternoon.	36330562	1472823304662	1472823304750	NA	79
70159	764554	The opposition had plans to hold demonstrations on Monday afternoon.	The opposition had plans to hold demonstrations on Monday afternoon.	36330563	1472823304878	1472823304966	NA	78
70159	764554	The opposition had plans to hold demonstrations on Monday afternoon.	The opposition had plans to hold demonstrations on Monday afternoon.	36330565	1472823305254	1472823305366	NA	190
