PARTICIPANT_ID	TEST_SECTION_ID	SENTENCE	USER_INPUT	KEYSTROKE_ID	PRESS_TIME	RELEASE_TIME	LETTER	KEYCODE
73736	802104	Trow said the profit return was very high.	Trow said the profit return was very high.	38107830	1472852637341	1472852637421	SHIFT	16
73736	802104	Trow said the profit return was very high.	Trow said the profit return was very high.	38107832	1472852643181	1472852643307	o	79
73736	802104	Trow said the profit return was very high.	Trow said the profit return was very high.	38107834	1472852643291	1472852643425	w	87
73736	802104	Trow said the profit return was very high.	Trow said the profit return was very high.	38107836	1472852643425	1472852643519	 	32
73736	802104	Trow said the profit return was very high.	Trow said the profit return was very high.	38107841	1472852643766	1472852643862	s	83
73736	802104	Trow said the profit return was very high.	Trow said the profit return was very high.	38107844	1472852643987	1472852644062	a	65
73736	802104	Trow said the profit return was very high.	Trow said the profit return was very high.	38107851	1472852644091	1472852644178	i	73
73736	802104	Trow said the profit return was very high.	Trow said the profit return was very high.	38107853	1472852644225	1472852644313	d	68
73736	802104	Trow said the profit return was very high.	Trow said the profit return was very high.	38107857	1472852644313	1472852644427	 	32
73736	802104	Trow said the profit return was very high.	Trow said the profit return was very high.	38107859	1472852644521	1472852644644	t	84
73736	802104	Trow said the profit return was very high.	Trow said the profit return was very high.	38107900	1472852644614	1472852644720	h	72
73736	802104	Trow said the profit return was very high.	Trow said the profit return was very high.	38107901	1472852644751	1472852644883	a	65
73736	802104	Trow said the profit return was very high.	Trow said the profit return was very high.	38107903	1472852644829	1472852644961	t	84
73736	802104	Trow said the profit return was very high.	Trow said the profit return was very high.	38107905	1472852645149	1472852645215	BKSP	8
73736	802104	Trow said the profit return was very high.	Trow said the profit return was very high.	38107908	1472852645325	1472852645367	BKSP	8
73736	802104	Trow said the profit return was very high.	Trow said the profit return was very high.	38107909	1472852645508	1472852645567	e	69
73736	802104	Trow said the profit return was very high.	Trow said the profit return was very high.	38107910	1472852645786	1472852645896	 	32
73736	802104	Trow said the profit return was very high.	Trow said the profit return was very high.	38107911	1472852646162	1472852646249	p	80
73736	802104	Trow said the profit return was very high.	Trow said the profit return was very high.	38107924	1472852646290	1472852646384	r	82
73736	802104	Trow said the profit return was very high.	Trow said the profit return was very high.	38107928	1472852646462	1472852646582	o	79
73736	802104	Trow said the profit return was very high.	Trow said the profit return was very high.	38107931	1472852646829	1472852646917	f	70
73736	802104	Trow said the profit return was very high.	Trow said the profit return was very high.	38107936	1472852646948	1472852647018	i	73
73736	802104	Trow said the profit return was very high.	Trow said the profit return was very high.	38107940	1472852647034	1472852647148	t	84
73736	802104	Trow said the profit return was very high.	Trow said the profit return was very high.	38107996	1472852647405	1472852647533	 	32
73736	802104	Trow said the profit return was very high.	Trow said the profit return was very high.	38107998	1472852647967	1472852648120	r	82
73736	802104	Trow said the profit return was very high.	Trow said the profit return was very high.	38108000	1472852648066	1472852648229	e	69
73736	802104	Trow said the profit return was very high.	Trow said the profit return was very high.	38108003	1472852648810	1472852648886	t	84
73736	802104	Trow said the profit return was very high.	Trow said the profit return was very high.	38108007	1472852648949	1472852649063	u	85
73736	802104	Trow said the profit return was very high.	Trow said the profit return was very high.	38108102	1472852649035	1472852649138	r	82
73736	802104	Trow said the profit return was very high.	Trow said the profit return was very high.	38108106	1472852649514	1472852649650	n	78
73736	802104	Trow said the profit return was very high.	Trow said the profit return was very high.	38108111	1472852650201	1472852650318	 	32
73736	802104	Trow said the profit return was very high.	Trow said the profit return was very high.	38108117	1472852650350	1472852650469	e	69
73736	802104	Trow said the profit return was very high.	Trow said the profit return was very high.	38108123	1472852650687	1472852650791	s	83
73736	802104	Trow said the profit return was very high.	Trow said the profit return was very high.	38108130	1472852650916	1472852650991	BKSP	8
73736	802104	Trow said the profit return was very high.	Trow said the profit return was very high.	38108136	1472852651100	1472852651157	BKSP	8
73736	802104	Trow said the profit return was very high.	Trow said the profit return was very high.	38108139	1472852651266	1472852651404	w	87
73736	802104	Trow said the profit return was very high.	Trow said the profit return was very high.	38108146	1472852651555	1472852651634	a	65
73736	802104	Trow said the profit return was very high.	Trow said the profit return was very high.	38108147	1472852651592	1472852651744	s	83
73736	802104	Trow said the profit return was very high.	Trow said the profit return was very high.	38108148	1472852651759	1472852651875	 	32
73736	802104	Trow said the profit return was very high.	Trow said the profit return was very high.	38108149	1472852651985	1472852652113	v	86
73736	802104	Trow said the profit return was very high.	Trow said the profit return was very high.	38108150	1472852652129	1472852652371	e	69
73736	802104	Trow said the profit return was very high.	Trow said the profit return was very high.	38108179	1472852652337	1472852652446	r	82
73736	802104	Trow said the profit return was very high.	Trow said the profit return was very high.	38108180	1472852652461	1472852652589	y	89
73736	802104	Trow said the profit return was very high.	Trow said the profit return was very high.	38108182	1472852652652	1472852652773	 	32
73736	802104	Trow said the profit return was very high.	Trow said the profit return was very high.	38108184	1472852652945	1472852653105	h	72
73736	802104	Trow said the profit return was very high.	Trow said the profit return was very high.	38108186	1472852653059	1472852653160	i	73
73736	802104	Trow said the profit return was very high.	Trow said the profit return was very high.	38108189	1472852653160	1472852653259	g	71
73736	802104	Trow said the profit return was very high.	Trow said the profit return was very high.	38108212	1472852653293	1472852653378	h	72
73736	802104	Trow said the profit return was very high.	Trow said the profit return was very high.	38108213	1472852653691	1472852653745	.	190
73736	802122	Has Dynegy made a specific request?	Has Dynegy made a specific request?	38108384	1472852656097	1472852656215	H	72
73736	802122	Has Dynegy made a specific request?	Has Dynegy made a specific request?	38108387	1472852657280	1472852657445	a	65
73736	802122	Has Dynegy made a specific request?	Has Dynegy made a specific request?	38108390	1472852657461	1472852657614	s	83
73736	802122	Has Dynegy made a specific request?	Has Dynegy made a specific request?	38108395	1472852657708	1472852657830	 	32
73736	802122	Has Dynegy made a specific request?	Has Dynegy made a specific request?	38108400	1472852658190	1472852658502	SHIFT	16
73736	802122	Has Dynegy made a specific request?	Has Dynegy made a specific request?	38108476	1472852658398	1472852658518	D	68
73736	802122	Has Dynegy made a specific request?	Has Dynegy made a specific request?	38108479	1472852658856	1472852658936	y	89
73736	802122	Has Dynegy made a specific request?	Has Dynegy made a specific request?	38108482	1472852659641	1472852659766	n	78
73736	802122	Has Dynegy made a specific request?	Has Dynegy made a specific request?	38108484	1472852659845	1472852659937	e	69
73736	802122	Has Dynegy made a specific request?	Has Dynegy made a specific request?	38108488	1472852660140	1472852660238	g	71
73736	802122	Has Dynegy made a specific request?	Has Dynegy made a specific request?	38108492	1472852660347	1472852660438	y	89
73736	802122	Has Dynegy made a specific request?	Has Dynegy made a specific request?	38108535	1472852661067	1472852661155	 	32
73736	802122	Has Dynegy made a specific request?	Has Dynegy made a specific request?	38108539	1472852661251	1472852661379	m	77
73736	802122	Has Dynegy made a specific request?	Has Dynegy made a specific request?	38108542	1472852661340	1472852661423	a	65
73736	802122	Has Dynegy made a specific request?	Has Dynegy made a specific request?	38108548	1472852661548	1472852661625	d	68
73736	802122	Has Dynegy made a specific request?	Has Dynegy made a specific request?	38108551	1472852661719	1472852661822	e	69
73736	802122	Has Dynegy made a specific request?	Has Dynegy made a specific request?	38108581	1472852661869	1472852661992	 	32
73736	802122	Has Dynegy made a specific request?	Has Dynegy made a specific request?	38108584	1472852662070	1472852662140	a	65
73736	802122	Has Dynegy made a specific request?	Has Dynegy made a specific request?	38108589	1472852662172	1472852662292	 	32
73736	802122	Has Dynegy made a specific request?	Has Dynegy made a specific request?	38108592	1472852662557	1472852662658	s	83
73736	802122	Has Dynegy made a specific request?	Has Dynegy made a specific request?	38108595	1472852662674	1472852662760	p	80
73736	802122	Has Dynegy made a specific request?	Has Dynegy made a specific request?	38108637	1472852662815	1472852662875	e	69
73736	802122	Has Dynegy made a specific request?	Has Dynegy made a specific request?	38108638	1472852663216	1472852663323	c	67
73736	802122	Has Dynegy made a specific request?	Has Dynegy made a specific request?	38108639	1472852663370	1472852663475	i	73
73736	802122	Has Dynegy made a specific request?	Has Dynegy made a specific request?	38108640	1472852663616	1472852663692	f	70
73736	802122	Has Dynegy made a specific request?	Has Dynegy made a specific request?	38108641	1472852663723	1472852663811	i	73
73736	802122	Has Dynegy made a specific request?	Has Dynegy made a specific request?	38108696	1472852664082	1472852664174	c	67
73736	802122	Has Dynegy made a specific request?	Has Dynegy made a specific request?	38108701	1472852664280	1472852664392	 	32
73736	802122	Has Dynegy made a specific request?	Has Dynegy made a specific request?	38108706	1472852664673	1472852664798	r	82
73736	802122	Has Dynegy made a specific request?	Has Dynegy made a specific request?	38108711	1472852664763	1472852664907	e	69
73736	802122	Has Dynegy made a specific request?	Has Dynegy made a specific request?	38108715	1472852665094	1472852665194	q	81
73736	802122	Has Dynegy made a specific request?	Has Dynegy made a specific request?	38108758	1472852665251	1472852665363	u	85
73736	802122	Has Dynegy made a specific request?	Has Dynegy made a specific request?	38108760	1472852665379	1472852665476	e	69
73736	802122	Has Dynegy made a specific request?	Has Dynegy made a specific request?	38108762	1472852665601	1472852665759	s	83
73736	802122	Has Dynegy made a specific request?	Has Dynegy made a specific request?	38108764	1472852665775	1472852665848	t	84
73736	802122	Has Dynegy made a specific request?	Has Dynegy made a specific request?	38108904	1472852666115	1472852666475	SHIFT	16
73736	802122	Has Dynegy made a specific request?	Has Dynegy made a specific request?	38108765	1472852666351	1472852666434	?	191
73736	802122	Has Dynegy made a specific request?	Has Dynegy made a specific request?	38108907	1472852667607	1472852668564	ARW_LEFT	37
73736	802122	Has Dynegy made a specific request?	Has Dynegy made a specific request?	38108910	1472852669021	1472852669119	ARW_RIGHT	39
73736	802122	Has Dynegy made a specific request?	Has Dynegy made a specific request?	38108914	1472852669197	1472852669284	ARW_RIGHT	39
73736	802140	I sent it to her.	I sent it to her.	38109067	1472852671761	1472852672007	SHIFT	16
73736	802140	I sent it to her.	I sent it to her.	38109072	1472852671948	1472852672023	I	73
73736	802140	I sent it to her.	I sent it to her.	38109077	1472852672137	1472852672207	 	32
73736	802140	I sent it to her.	I sent it to her.	38109083	1472852672441	1472852672593	s	83
73736	802140	I sent it to her.	I sent it to her.	38109092	1472852672572	1472852672704	e	69
73736	802140	I sent it to her.	I sent it to her.	38109098	1472852673079	1472852673222	n	78
73736	802140	I sent it to her.	I sent it to her.	38109160	1472852673203	1472852673323	t	84
73736	802140	I sent it to her.	I sent it to her.	38109162	1472852673370	1472852673491	 	32
73736	802140	I sent it to her.	I sent it to her.	38109165	1472852673649	1472852673758	i	73
73736	802140	I sent it to her.	I sent it to her.	38109169	1472852673836	1472852673910	f	70
73736	802140	I sent it to her.	I sent it to her.	38109172	1472852673926	1472852674057	 	32
73736	802140	I sent it to her.	I sent it to her.	38109176	1472852674182	1472852674259	BKSP	8
73736	802140	I sent it to her.	I sent it to her.	38109180	1472852674338	1472852674411	BKSP	8
73736	802140	I sent it to her.	I sent it to her.	38109184	1472852674646	1472852674744	r	82
73736	802140	I sent it to her.	I sent it to her.	38109205	1472852674791	1472852674910	 	32
73736	802140	I sent it to her.	I sent it to her.	38109206	1472852674926	1472852675026	t	84
73736	802140	I sent it to her.	I sent it to her.	38109207	1472852675042	1472852675194	o	79
73736	802140	I sent it to her.	I sent it to her.	38109208	1472852675159	1472852675276	 	32
73736	802140	I sent it to her.	I sent it to her.	38109209	1472852675387	1472852675475	h	72
73736	802140	I sent it to her.	I sent it to her.	38109299	1472852675697	1472852676343	BKSP	8
73736	802140	I sent it to her.	I sent it to her.	38109302	1472852676664	1472852676757	t	84
73736	802140	I sent it to her.	I sent it to her.	38109306	1472852676878	1472852676994	 	32
73736	802140	I sent it to her.	I sent it to her.	38109313	1472852677181	1472852677301	t	84
73736	802140	I sent it to her.	I sent it to her.	38109319	1472852677248	1472852677395	o	79
73736	802140	I sent it to her.	I sent it to her.	38109327	1472852677395	1472852677514	 	32
73736	802140	I sent it to her.	I sent it to her.	38109349	1472852677588	1472852677682	h	72
73736	802140	I sent it to her.	I sent it to her.	38109350	1472852677682	1472852677832	e	69
73736	802140	I sent it to her.	I sent it to her.	38109357	1472852677781	1472852677911	r	82
73736	802140	I sent it to her.	I sent it to her.	38109364	1472852678135	1472852678217	.	190
73736	802150	We will get you a copy.	We will get you a copy.	38109568	1472852681303	1472852681654	SHIFT	16
73736	802150	We will get you a copy.	We will get you a copy.	38109573	1472852681539	1472852681669	W	87
73736	802150	We will get you a copy.	We will get you a copy.	38109577	1472852681873	1472852681988	e	69
73736	802150	We will get you a copy.	We will get you a copy.	38109579	1472852682066	1472852682201	 	32
73736	802150	We will get you a copy.	We will get you a copy.	38109583	1472852682432	1472852682534	w	87
73736	802150	We will get you a copy.	We will get you a copy.	38109631	1472852682523	1472852682709	i	73
73736	802150	We will get you a copy.	We will get you a copy.	38109634	1472852682652	1472852682740	l	76
73736	802150	We will get you a copy.	We will get you a copy.	38109636	1472852682834	1472852682958	l	76
73736	802150	We will get you a copy.	We will get you a copy.	38109638	1472852682938	1472852683068	 	32
73736	802150	We will get you a copy.	We will get you a copy.	38109640	1472852683209	1472852683294	g	71
73736	802150	We will get you a copy.	We will get you a copy.	38109642	1472852683419	1472852683571	e	69
73736	802150	We will get you a copy.	We will get you a copy.	38109685	1472852683666	1472852683760	 	32
73736	802150	We will get you a copy.	We will get you a copy.	38109687	1472852684056	1472852684206	BKSP	8
73736	802150	We will get you a copy.	We will get you a copy.	38109690	1472852684222	1472852684339	t	84
73736	802150	We will get you a copy.	We will get you a copy.	38109691	1472852684385	1472852684492	 	32
73736	802150	We will get you a copy.	We will get you a copy.	38109692	1472852684586	1472852684691	y	89
73736	802150	We will get you a copy.	We will get you a copy.	38109694	1472852684691	1472852684879	o	79
73736	802150	We will get you a copy.	We will get you a copy.	38109745	1472852684824	1472852684962	u	85
73736	802150	We will get you a copy.	We will get you a copy.	38109752	1472852684907	1472852685009	 	32
73736	802150	We will get you a copy.	We will get you a copy.	38109757	1472852685056	1472852685153	a	65
73736	802150	We will get you a copy.	We will get you a copy.	38109761	1472852685184	1472852685308	 	32
73736	802150	We will get you a copy.	We will get you a copy.	38109765	1472852685558	1472852685675	c	67
73736	802150	We will get you a copy.	We will get you a copy.	38109767	1472852685691	1472852685795	o	79
73736	802150	We will get you a copy.	We will get you a copy.	38109828	1472852686150	1472852686298	p	80
73736	802150	We will get you a copy.	We will get you a copy.	38109832	1472852686260	1472852686393	y	89
73736	802150	We will get you a copy.	We will get you a copy.	38109837	1472852686912	1472852687027	.	190
73736	802159	Let me know if you have any problems.	Let me know if you have any problems.	38110016	1472852689262	1472852689530	SHIFT	16
73736	802159	Let me know if you have any problems.	Let me know if you have any problems.	38110018	1472852689434	1472852689561	L	76
73736	802159	Let me know if you have any problems.	Let me know if you have any problems.	38110023	1472852689658	1472852689817	e	69
73736	802159	Let me know if you have any problems.	Let me know if you have any problems.	38110029	1472852689796	1472852689900	t	84
73736	802159	Let me know if you have any problems.	Let me know if you have any problems.	38110033	1472852689900	1472852689999	 	32
73736	802159	Let me know if you have any problems.	Let me know if you have any problems.	38110037	1472852690077	1472852690202	m	77
73736	802159	Let me know if you have any problems.	Let me know if you have any problems.	38110061	1472852690183	1472852690301	e	69
73736	802159	Let me know if you have any problems.	Let me know if you have any problems.	38110066	1472852690316	1472852690433	 	32
73736	802159	Let me know if you have any problems.	Let me know if you have any problems.	38110070	1472852690517	1472852690605	k	75
73736	802159	Let me know if you have any problems.	Let me know if you have any problems.	38110075	1472852690680	1472852690937	n	78
73736	802159	Let me know if you have any problems.	Let me know if you have any problems.	38110082	1472852690837	1472852691005	o	79
73736	802159	Let me know if you have any problems.	Let me know if you have any problems.	38110176	1472852690999	1472852691116	w	87
73736	802159	Let me know if you have any problems.	Let me know if you have any problems.	38110178	1472852691304	1472852691464	 	32
73736	802159	Let me know if you have any problems.	Let me know if you have any problems.	38110181	1472852691919	1472852692020	o	79
73736	802159	Let me know if you have any problems.	Let me know if you have any problems.	38110183	1472852692083	1472852692155	f	70
73736	802159	Let me know if you have any problems.	Let me know if you have any problems.	38110187	1472852692312	1472852692387	BKSP	8
73736	802159	Let me know if you have any problems.	Let me know if you have any problems.	38110191	1472852692466	1472852692555	BKSP	8
73736	802159	Let me know if you have any problems.	Let me know if you have any problems.	38110197	1472852692727	1472852692866	i	73
73736	802159	Let me know if you have any problems.	Let me know if you have any problems.	38110199	1472852692882	1472852692969	f	70
73736	802159	Let me know if you have any problems.	Let me know if you have any problems.	38110217	1472852692955	1472852693061	 	32
73736	802159	Let me know if you have any problems.	Let me know if you have any problems.	38110218	1472852693155	1472852693280	y	89
73736	802159	Let me know if you have any problems.	Let me know if you have any problems.	38110220	1472852693270	1472852693426	o	79
73736	802159	Let me know if you have any problems.	Let me know if you have any problems.	38110222	1472852693387	1472852693541	u	85
73736	802159	Let me know if you have any problems.	Let me know if you have any problems.	38110224	1472852693488	1472852693604	 	32
73736	802159	Let me know if you have any problems.	Let me know if you have any problems.	38110226	1472852693698	1472852693804	h	72
73736	802159	Let me know if you have any problems.	Let me know if you have any problems.	38110266	1472852694178	1472852694241	a	65
73736	802159	Let me know if you have any problems.	Let me know if you have any problems.	38110269	1472852694288	1472852694345	a	65
73736	802159	Let me know if you have any problems.	Let me know if you have any problems.	38110273	1472852694611	1472852694761	v	86
73736	802159	Let me know if you have any problems.	Let me know if you have any problems.	38110277	1472852694722	1472852694871	e	69
73736	802159	Let me know if you have any problems.	Let me know if you have any problems.	38110281	1472852694902	1472852695023	 	32
73736	802159	Let me know if you have any problems.	Let me know if you have any problems.	38110379	1472852695136	1472852695261	a	65
73736	802159	Let me know if you have any problems.	Let me know if you have any problems.	38110382	1472852696039	1472852696127	BKSP	8
73736	802159	Let me know if you have any problems.	Let me know if you have any problems.	38110385	1472852696220	1472852696295	BKSP	8
73736	802159	Let me know if you have any problems.	Let me know if you have any problems.	38110387	1472852696357	1472852696428	BKSP	8
73736	802159	Let me know if you have any problems.	Let me know if you have any problems.	38110390	1472852696506	1472852696561	BKSP	8
73736	802159	Let me know if you have any problems.	Let me know if you have any problems.	38110393	1472852696764	1472852696860	BKSP	8
73736	802159	Let me know if you have any problems.	Let me know if you have any problems.	38110398	1472852697255	1472852697413	v	86
73736	802159	Let me know if you have any problems.	Let me know if you have any problems.	38110402	1472852697375	1472852697491	e	69
73736	802159	Let me know if you have any problems.	Let me know if you have any problems.	38110408	1472852697507	1472852697612	 	32
73736	802159	Let me know if you have any problems.	Let me know if you have any problems.	38110411	1472852697659	1472852697799	a	65
73736	802159	Let me know if you have any problems.	Let me know if you have any problems.	38110525	1472852697777	1472852697831	n	78
73736	802159	Let me know if you have any problems.	Let me know if you have any problems.	38110527	1472852698081	1472852698196	 	32
73736	802159	Let me know if you have any problems.	Let me know if you have any problems.	38110529	1472852698993	1472852699127	BKSP	8
73736	802159	Let me know if you have any problems.	Let me know if you have any problems.	38110531	1472852699361	1472852699528	y	89
73736	802159	Let me know if you have any problems.	Let me know if you have any problems.	38110535	1472852699638	1472852699842	 	32
73736	802159	Let me know if you have any problems.	Let me know if you have any problems.	38110538	1472852700014	1472852700114	r	82
73736	802159	Let me know if you have any problems.	Let me know if you have any problems.	38110543	1472852700145	1472852700247	p	80
73736	802159	Let me know if you have any problems.	Let me know if you have any problems.	38110655	1472852700608	1472852700698	BKSP	8
73736	802159	Let me know if you have any problems.	Let me know if you have any problems.	38110659	1472852700761	1472852700850	BKSP	8
73736	802159	Let me know if you have any problems.	Let me know if you have any problems.	38110662	1472852701163	1472852701289	p	80
73736	802159	Let me know if you have any problems.	Let me know if you have any problems.	38110664	1472852701233	1472852701325	r	82
73736	802159	Let me know if you have any problems.	Let me know if you have any problems.	38110667	1472852701466	1472852701567	o	79
73736	802159	Let me know if you have any problems.	Let me know if you have any problems.	38110669	1472852701676	1472852701768	b	66
73736	802159	Let me know if you have any problems.	Let me know if you have any problems.	38110672	1472852702271	1472852702393	l	76
73736	802159	Let me know if you have any problems.	Let me know if you have any problems.	38110723	1472852702368	1472852702468	e	69
73736	802159	Let me know if you have any problems.	Let me know if you have any problems.	38110725	1472852702926	1472852703168	m	77
73736	802159	Let me know if you have any problems.	Let me know if you have any problems.	38110727	1472852703037	1472852703168	s	83
73736	802159	Let me know if you have any problems.	Let me know if you have any problems.	38110730	1472852703262	1472852703386	.	190
73736	802179	Jane, what about this Thursday for lunch?	Jane, what about this Thursday for lunch?	38110987	1472852705670	1472852705943	SHIFT	16
73736	802179	Jane, what about this Thursday for lunch?	Jane, what about this Thursday for lunch?	38110988	1472852705857	1472852706006	H	72
73736	802179	Jane, what about this Thursday for lunch?	Jane, what about this Thursday for lunch?	38110990	1472852706447	1472852706540	BKSP	8
73736	802179	Jane, what about this Thursday for lunch?	Jane, what about this Thursday for lunch?	38110992	1472852706618	1472852706712	BKSP	8
73736	802179	Jane, what about this Thursday for lunch?	Jane, what about this Thursday for lunch?	38110994	1472852707025	1472852707061	a	65
73736	802179	Jane, what about this Thursday for lunch?	Jane, what about this Thursday for lunch?	38110997	1472852707570	1472852707693	BKSP	8
73736	802179	Jane, what about this Thursday for lunch?	Jane, what about this Thursday for lunch?	38111001	1472852707771	1472852708013	SHIFT	16
73736	802179	Jane, what about this Thursday for lunch?	Jane, what about this Thursday for lunch?	38111004	1472852707958	1472852708095	J	74
73736	802179	Jane, what about this Thursday for lunch?	Jane, what about this Thursday for lunch?	38111008	1472852708338	1472852708418	n	78
73736	802179	Jane, what about this Thursday for lunch?	Jane, what about this Thursday for lunch?	38111100	1472852708367	1472852708510	a	65
73736	802179	Jane, what about this Thursday for lunch?	Jane, what about this Thursday for lunch?	38111104	1472852709262	1472852709331	BKSP	8
73736	802179	Jane, what about this Thursday for lunch?	Jane, what about this Thursday for lunch?	38111109	1472852709425	1472852709515	BKSP	8
73736	802179	Jane, what about this Thursday for lunch?	Jane, what about this Thursday for lunch?	38111114	1472852709546	1472852709695	a	65
73736	802179	Jane, what about this Thursday for lunch?	Jane, what about this Thursday for lunch?	38111118	1472852709742	1472852709845	n	78
73736	802179	Jane, what about this Thursday for lunch?	Jane, what about this Thursday for lunch?	38111123	1472852709830	1472852709947	e	69
73736	802179	Jane, what about this Thursday for lunch?	Jane, what about this Thursday for lunch?	38111127	1472852710025	1472852710177	,	188
73736	802179	Jane, what about this Thursday for lunch?	Jane, what about this Thursday for lunch?	38111131	1472852710255	1472852710399	 	32
73736	802179	Jane, what about this Thursday for lunch?	Jane, what about this Thursday for lunch?	38111182	1472852710708	1472852710827	w	87
73736	802179	Jane, what about this Thursday for lunch?	Jane, what about this Thursday for lunch?	38111184	1472852710843	1472852710966	h	72
73736	802179	Jane, what about this Thursday for lunch?	Jane, what about this Thursday for lunch?	38111187	1472852711294	1472852711505	a	65
73736	802179	Jane, what about this Thursday for lunch?	Jane, what about this Thursday for lunch?	38111191	1472852711475	1472852711642	t	84
73736	802179	Jane, what about this Thursday for lunch?	Jane, what about this Thursday for lunch?	38111295	1472852711631	1472852711764	 	32
73736	802179	Jane, what about this Thursday for lunch?	Jane, what about this Thursday for lunch?	38111297	1472852711873	1472852712016	a	65
73736	802179	Jane, what about this Thursday for lunch?	Jane, what about this Thursday for lunch?	38111303	1472852712815	1472852712952	b	66
73736	802179	Jane, what about this Thursday for lunch?	Jane, what about this Thursday for lunch?	38111309	1472852712998	1472852713203	o	79
73736	802179	Jane, what about this Thursday for lunch?	Jane, what about this Thursday for lunch?	38111312	1472852713116	1472852713272	u	85
73736	802179	Jane, what about this Thursday for lunch?	Jane, what about this Thursday for lunch?	38111348	1472852713234	1472852713386	t	84
73736	802179	Jane, what about this Thursday for lunch?	Jane, what about this Thursday for lunch?	38111350	1472852713402	1472852713536	 	32
73736	802179	Jane, what about this Thursday for lunch?	Jane, what about this Thursday for lunch?	38111352	1472852713865	1472852714007	t	84
73736	802179	Jane, what about this Thursday for lunch?	Jane, what about this Thursday for lunch?	38111355	1472852713979	1472852714171	h	72
73736	802179	Jane, what about this Thursday for lunch?	Jane, what about this Thursday for lunch?	38111358	1472852714102	1472852714242	i	73
73736	802179	Jane, what about this Thursday for lunch?	Jane, what about this Thursday for lunch?	38111489	1472852714217	1472852714351	s	83
73736	802179	Jane, what about this Thursday for lunch?	Jane, what about this Thursday for lunch?	38111493	1472852714383	1472852714504	 	32
73736	802179	Jane, what about this Thursday for lunch?	Jane, what about this Thursday for lunch?	38111496	1472852714832	1472852715055	SHIFT	16
73736	802179	Jane, what about this Thursday for lunch?	Jane, what about this Thursday for lunch?	38111499	1472852714959	1472852715070	T	84
73736	802179	Jane, what about this Thursday for lunch?	Jane, what about this Thursday for lunch?	38111503	1472852715196	1472852715326	r	82
73736	802179	Jane, what about this Thursday for lunch?	Jane, what about this Thursday for lunch?	38111508	1472852715291	1472852715405	u	85
73736	802179	Jane, what about this Thursday for lunch?	Jane, what about this Thursday for lunch?	38111512	1472852716268	1472852716356	BKSP	8
73736	802179	Jane, what about this Thursday for lunch?	Jane, what about this Thursday for lunch?	38111516	1472852716434	1472852716495	BKSP	8
73736	802179	Jane, what about this Thursday for lunch?	Jane, what about this Thursday for lunch?	38111520	1472852717341	1472852717425	h	72
73736	802179	Jane, what about this Thursday for lunch?	Jane, what about this Thursday for lunch?	38111564	1472852717523	1472852717651	u	85
73736	802179	Jane, what about this Thursday for lunch?	Jane, what about this Thursday for lunch?	38111577	1472852717609	1472852717757	r	82
73736	802179	Jane, what about this Thursday for lunch?	Jane, what about this Thursday for lunch?	38111581	1472852717820	1472852717974	s	83
73736	802179	Jane, what about this Thursday for lunch?	Jane, what about this Thursday for lunch?	38111590	1472852718412	1472852718542	d	68
73736	802179	Jane, what about this Thursday for lunch?	Jane, what about this Thursday for lunch?	38111600	1472852718604	1472852718733	a	65
73736	802179	Jane, what about this Thursday for lunch?	Jane, what about this Thursday for lunch?	38111613	1472852718726	1472852718859	y	89
73736	802179	Jane, what about this Thursday for lunch?	Jane, what about this Thursday for lunch?	38111614	1472852718875	1472852718994	 	32
73736	802179	Jane, what about this Thursday for lunch?	Jane, what about this Thursday for lunch?	38111617	1472852719025	1472852719128	f	70
73736	802179	Jane, what about this Thursday for lunch?	Jane, what about this Thursday for lunch?	38111620	1472852719190	1472852719331	o	79
73736	802179	Jane, what about this Thursday for lunch?	Jane, what about this Thursday for lunch?	38111623	1472852719281	1472852719424	r	82
73736	802179	Jane, what about this Thursday for lunch?	Jane, what about this Thursday for lunch?	38111768	1472852719394	1472852719530	 	32
73736	802179	Jane, what about this Thursday for lunch?	Jane, what about this Thursday for lunch?	38111771	1472852719921	1472852720130	l	76
73736	802179	Jane, what about this Thursday for lunch?	Jane, what about this Thursday for lunch?	38111775	1472852720049	1472852720162	u	85
73736	802179	Jane, what about this Thursday for lunch?	Jane, what about this Thursday for lunch?	38111778	1472852720255	1472852720380	n	78
73736	802179	Jane, what about this Thursday for lunch?	Jane, what about this Thursday for lunch?	38111785	1472852720411	1472852720529	c	67
73736	802179	Jane, what about this Thursday for lunch?	Jane, what about this Thursday for lunch?	38111791	1472852720545	1472852720631	h	72
73736	802179	Jane, what about this Thursday for lunch?	Jane, what about this Thursday for lunch?	38111767	1472852720838	1472852721481	SHIFT	16
73736	802179	Jane, what about this Thursday for lunch?	Jane, what about this Thursday for lunch?	38111773	1472852721397	1472852721481	?	191
73736	802201	I appreciate you moving so quickly on this.	I appreciate you moving so quickly on this.	38111998	1472852724218	1472852724440	SHIFT	16
73736	802201	I appreciate you moving so quickly on this.	I appreciate you moving so quickly on this.	38112002	1472852724390	1472852724502	I	73
73736	802201	I appreciate you moving so quickly on this.	I appreciate you moving so quickly on this.	38112005	1472852724534	1472852724666	 	32
73736	802201	I appreciate you moving so quickly on this.	I appreciate you moving so quickly on this.	38112009	1472852724978	1472852725118	a	65
73736	802201	I appreciate you moving so quickly on this.	I appreciate you moving so quickly on this.	38112012	1472852725368	1472852725422	p	80
73736	802201	I appreciate you moving so quickly on this.	I appreciate you moving so quickly on this.	38112017	1472852725516	1472852725591	p	80
73736	802201	I appreciate you moving so quickly on this.	I appreciate you moving so quickly on this.	38112062	1472852725724	1472852725911	r	82
73736	802201	I appreciate you moving so quickly on this.	I appreciate you moving so quickly on this.	38112063	1472852725871	1472852726005	e	69
73736	802201	I appreciate you moving so quickly on this.	I appreciate you moving so quickly on this.	38112064	1472852726161	1472852726317	c	67
73736	802201	I appreciate you moving so quickly on this.	I appreciate you moving so quickly on this.	38112066	1472852726333	1472852726409	i	73
73736	802201	I appreciate you moving so quickly on this.	I appreciate you moving so quickly on this.	38112069	1472852726612	1472852726803	a	65
73736	802201	I appreciate you moving so quickly on this.	I appreciate you moving so quickly on this.	38112089	1472852726918	1472852727085	t	84
73736	802201	I appreciate you moving so quickly on this.	I appreciate you moving so quickly on this.	38112093	1472852727054	1472852727181	e	69
73736	802201	I appreciate you moving so quickly on this.	I appreciate you moving so quickly on this.	38112098	1472852727227	1472852727357	 	32
73736	802201	I appreciate you moving so quickly on this.	I appreciate you moving so quickly on this.	38112102	1472852727419	1472852727558	y	89
73736	802201	I appreciate you moving so quickly on this.	I appreciate you moving so quickly on this.	38112144	1472852727540	1472852727729	o	79
73736	802201	I appreciate you moving so quickly on this.	I appreciate you moving so quickly on this.	38112149	1472852727673	1472852727843	u	85
73736	802201	I appreciate you moving so quickly on this.	I appreciate you moving so quickly on this.	38112152	1472852727761	1472852727874	 	32
73736	802201	I appreciate you moving so quickly on this.	I appreciate you moving so quickly on this.	38112156	1472852728015	1472852728230	m	77
73736	802201	I appreciate you moving so quickly on this.	I appreciate you moving so quickly on this.	38112159	1472852728172	1472852728292	o	79
73736	802201	I appreciate you moving so quickly on this.	I appreciate you moving so quickly on this.	38112165	1472852728292	1472852728422	v	86
73736	802201	I appreciate you moving so quickly on this.	I appreciate you moving so quickly on this.	38112196	1472852728463	1472852728627	i	73
73736	802201	I appreciate you moving so quickly on this.	I appreciate you moving so quickly on this.	38112199	1472852728576	1472852728746	n	78
73736	802201	I appreciate you moving so quickly on this.	I appreciate you moving so quickly on this.	38112201	1472852728721	1472852728842	g	71
73736	802201	I appreciate you moving so quickly on this.	I appreciate you moving so quickly on this.	38112203	1472852728857	1472852728993	 	32
73736	802201	I appreciate you moving so quickly on this.	I appreciate you moving so quickly on this.	38112205	1472852729134	1472852729277	s	83
73736	802201	I appreciate you moving so quickly on this.	I appreciate you moving so quickly on this.	38112263	1472852729243	1472852729413	o	79
73736	802201	I appreciate you moving so quickly on this.	I appreciate you moving so quickly on this.	38112267	1472852729348	1472852729475	 	32
73736	802201	I appreciate you moving so quickly on this.	I appreciate you moving so quickly on this.	38112270	1472852729788	1472852729946	q	81
73736	802201	I appreciate you moving so quickly on this.	I appreciate you moving so quickly on this.	38112274	1472852729927	1472852730131	u	85
73736	802201	I appreciate you moving so quickly on this.	I appreciate you moving so quickly on this.	38112281	1472852730076	1472852730225	i	73
73736	802201	I appreciate you moving so quickly on this.	I appreciate you moving so quickly on this.	38112285	1472852730334	1472852730428	c	67
73736	802201	I appreciate you moving so quickly on this.	I appreciate you moving so quickly on this.	38112318	1472852730499	1472852730613	k	75
73736	802201	I appreciate you moving so quickly on this.	I appreciate you moving so quickly on this.	38112321	1472852730754	1472852730915	l	76
73736	802201	I appreciate you moving so quickly on this.	I appreciate you moving so quickly on this.	38112323	1472852730863	1472852731056	y	89
73736	802201	I appreciate you moving so quickly on this.	I appreciate you moving so quickly on this.	38112325	1472852731087	1472852731195	 	32
73736	802201	I appreciate you moving so quickly on this.	I appreciate you moving so quickly on this.	38112327	1472852731304	1472852731466	o	79
73736	802201	I appreciate you moving so quickly on this.	I appreciate you moving so quickly on this.	38112357	1472852731397	1472852731568	n	78
73736	802201	I appreciate you moving so quickly on this.	I appreciate you moving so quickly on this.	38112363	1472852731531	1472852731652	 	32
73736	802201	I appreciate you moving so quickly on this.	I appreciate you moving so quickly on this.	38112368	1472852731615	1472852731731	t	84
73736	802201	I appreciate you moving so quickly on this.	I appreciate you moving so quickly on this.	38112374	1472852731793	1472852731967	h	72
73736	802201	I appreciate you moving so quickly on this.	I appreciate you moving so quickly on this.	38112378	1472852731914	1472852732081	i	73
73736	802201	I appreciate you moving so quickly on this.	I appreciate you moving so quickly on this.	38112393	1472852732061	1472852732179	s	83
73736	802201	I appreciate you moving so quickly on this.	I appreciate you moving so quickly on this.	38112394	1472852732289	1472852732385	.	190
73736	802218	About 10 Jordanian doctors arrived at the hospital a few days ago.	About Joridian doctors arrived at the hospital a few days ago.	38112567	1472852734470	1472852734781	SHIFT	16
73736	802218	About 10 Jordanian doctors arrived at the hospital a few days ago.	About Joridian doctors arrived at the hospital a few days ago.	38112562	1472852734626	1472852734749	A	65
73736	802218	About 10 Jordanian doctors arrived at the hospital a few days ago.	About Joridian doctors arrived at the hospital a few days ago.	38112575	1472852734890	1472852734987	b	66
73736	802218	About 10 Jordanian doctors arrived at the hospital a few days ago.	About Joridian doctors arrived at the hospital a few days ago.	38112580	1472852735018	1472852735219	o	79
73736	802218	About 10 Jordanian doctors arrived at the hospital a few days ago.	About Joridian doctors arrived at the hospital a few days ago.	38112588	1472852735135	1472852735272	u	85
73736	802218	About 10 Jordanian doctors arrived at the hospital a few days ago.	About Joridian doctors arrived at the hospital a few days ago.	38112877	1472852735250	1472852735355	t	84
73736	802218	About 10 Jordanian doctors arrived at the hospital a few days ago.	About Joridian doctors arrived at the hospital a few days ago.	38112882	1472852735402	1472852735520	 	32
73736	802218	About 10 Jordanian doctors arrived at the hospital a few days ago.	About Joridian doctors arrived at the hospital a few days ago.	38112886	1472852736179	1472852736318	END	35
73736	802218	About 10 Jordanian doctors arrived at the hospital a few days ago.	About Joridian doctors arrived at the hospital a few days ago.	38112890	1472852736256	1472852736412	INSERT	45
73736	802218	About 10 Jordanian doctors arrived at the hospital a few days ago.	About Joridian doctors arrived at the hospital a few days ago.	38112895	1472852736777	1472852737041	SHIFT	16
73736	802218	About 10 Jordanian doctors arrived at the hospital a few days ago.	About Joridian doctors arrived at the hospital a few days ago.	38112900	1472852736964	1472852737104	J	74
73736	802218	About 10 Jordanian doctors arrived at the hospital a few days ago.	About Joridian doctors arrived at the hospital a few days ago.	38112904	1472852737416	1472852737460	h	72
73736	802218	About 10 Jordanian doctors arrived at the hospital a few days ago.	About Joridian doctors arrived at the hospital a few days ago.	38112908	1472852738523	1472852738639	BKSP	8
73736	802218	About 10 Jordanian doctors arrived at the hospital a few days ago.	About Joridian doctors arrived at the hospital a few days ago.	38112912	1472852739251	1472852739342	o	79
73736	802218	About 10 Jordanian doctors arrived at the hospital a few days ago.	About Joridian doctors arrived at the hospital a few days ago.	38112916	1472852739358	1472852739475	r	82
73736	802218	About 10 Jordanian doctors arrived at the hospital a few days ago.	About Joridian doctors arrived at the hospital a few days ago.	38112956	1472852739503	1472852739579	i	73
73736	802218	About 10 Jordanian doctors arrived at the hospital a few days ago.	About Joridian doctors arrived at the hospital a few days ago.	38112960	1472852740110	1472852740240	d	68
73736	802218	About 10 Jordanian doctors arrived at the hospital a few days ago.	About Joridian doctors arrived at the hospital a few days ago.	38112963	1472852740224	1472852740342	i	73
73736	802218	About 10 Jordanian doctors arrived at the hospital a few days ago.	About Joridian doctors arrived at the hospital a few days ago.	38112967	1472852740389	1472852740494	a	65
73736	802218	About 10 Jordanian doctors arrived at the hospital a few days ago.	About Joridian doctors arrived at the hospital a few days ago.	38112973	1472852740541	1472852740661	n	78
73736	802218	About 10 Jordanian doctors arrived at the hospital a few days ago.	About Joridian doctors arrived at the hospital a few days ago.	38113095	1472852741195	1472852741296	 	32
73736	802218	About 10 Jordanian doctors arrived at the hospital a few days ago.	About Joridian doctors arrived at the hospital a few days ago.	38113096	1472852741531	1472852741615	d	68
73736	802218	About 10 Jordanian doctors arrived at the hospital a few days ago.	About Joridian doctors arrived at the hospital a few days ago.	38113098	1472852742069	1472852742163	o	79
73736	802218	About 10 Jordanian doctors arrived at the hospital a few days ago.	About Joridian doctors arrived at the hospital a few days ago.	38113102	1472852742413	1472852742512	c	67
73736	802218	About 10 Jordanian doctors arrived at the hospital a few days ago.	About Joridian doctors arrived at the hospital a few days ago.	38113106	1472852742621	1472852742713	t	84
73736	802218	About 10 Jordanian doctors arrived at the hospital a few days ago.	About Joridian doctors arrived at the hospital a few days ago.	38113157	1472852742766	1472852742911	o	79
73736	802218	About 10 Jordanian doctors arrived at the hospital a few days ago.	About Joridian doctors arrived at the hospital a few days ago.	38113162	1472852742973	1472852743064	r	82
73736	802218	About 10 Jordanian doctors arrived at the hospital a few days ago.	About Joridian doctors arrived at the hospital a few days ago.	38113165	1472852743189	1472852743299	s	83
73736	802218	About 10 Jordanian doctors arrived at the hospital a few days ago.	About Joridian doctors arrived at the hospital a few days ago.	38113169	1472852743327	1472852743451	 	32
73736	802218	About 10 Jordanian doctors arrived at the hospital a few days ago.	About Joridian doctors arrived at the hospital a few days ago.	38113172	1472852743545	1472852743664	a	65
73736	802218	About 10 Jordanian doctors arrived at the hospital a few days ago.	About Joridian doctors arrived at the hospital a few days ago.	38113207	1472852743856	1472852743982	r	82
73736	802218	About 10 Jordanian doctors arrived at the hospital a few days ago.	About Joridian doctors arrived at the hospital a few days ago.	38113209	1472852744060	1472852744136	r	82
73736	802218	About 10 Jordanian doctors arrived at the hospital a few days ago.	About Joridian doctors arrived at the hospital a few days ago.	38113211	1472852744214	1472852744346	i	73
73736	802218	About 10 Jordanian doctors arrived at the hospital a few days ago.	About Joridian doctors arrived at the hospital a few days ago.	38113214	1472852744331	1472852744474	v	86
73736	802218	About 10 Jordanian doctors arrived at the hospital a few days ago.	About Joridian doctors arrived at the hospital a few days ago.	38113442	1472852744448	1472852744566	e	69
73736	802218	About 10 Jordanian doctors arrived at the hospital a few days ago.	About Joridian doctors arrived at the hospital a few days ago.	38113446	1472852744706	1472852744801	d	68
73736	802218	About 10 Jordanian doctors arrived at the hospital a few days ago.	About Joridian doctors arrived at the hospital a few days ago.	38113454	1472852744879	1472852744984	 	32
73736	802218	About 10 Jordanian doctors arrived at the hospital a few days ago.	About Joridian doctors arrived at the hospital a few days ago.	38113461	1472852745281	1472852745399	t	84
73736	802218	About 10 Jordanian doctors arrived at the hospital a few days ago.	About Joridian doctors arrived at the hospital a few days ago.	38113468	1472852745790	1472852745905	BKSP	8
73736	802218	About 10 Jordanian doctors arrived at the hospital a few days ago.	About Joridian doctors arrived at the hospital a few days ago.	38113476	1472852747016	1472852747273	a	65
73736	802218	About 10 Jordanian doctors arrived at the hospital a few days ago.	About Joridian doctors arrived at the hospital a few days ago.	38113495	1472852747215	1472852747382	t	84
73736	802218	About 10 Jordanian doctors arrived at the hospital a few days ago.	About Joridian doctors arrived at the hospital a few days ago.	38113500	1472852747382	1472852747507	 	32
73736	802218	About 10 Jordanian doctors arrived at the hospital a few days ago.	About Joridian doctors arrived at the hospital a few days ago.	38113505	1472852747553	1472852747660	t	84
73736	802218	About 10 Jordanian doctors arrived at the hospital a few days ago.	About Joridian doctors arrived at the hospital a few days ago.	38113509	1472852747608	1472852747756	h	72
73736	802218	About 10 Jordanian doctors arrived at the hospital a few days ago.	About Joridian doctors arrived at the hospital a few days ago.	38113513	1472852747738	1472852747864	e	69
73736	802218	About 10 Jordanian doctors arrived at the hospital a few days ago.	About Joridian doctors arrived at the hospital a few days ago.	38113586	1472852747824	1472852747974	 	32
73736	802218	About 10 Jordanian doctors arrived at the hospital a few days ago.	About Joridian doctors arrived at the hospital a few days ago.	38113589	1472852748470	1472852748642	h	72
73736	802218	About 10 Jordanian doctors arrived at the hospital a few days ago.	About Joridian doctors arrived at the hospital a few days ago.	38113593	1472852748572	1472852748729	o	79
73736	802218	About 10 Jordanian doctors arrived at the hospital a few days ago.	About Joridian doctors arrived at the hospital a few days ago.	38113597	1472852748673	1472852748791	s	83
73736	802218	About 10 Jordanian doctors arrived at the hospital a few days ago.	About Joridian doctors arrived at the hospital a few days ago.	38113603	1472852749119	1472852749287	p	80
73736	802218	About 10 Jordanian doctors arrived at the hospital a few days ago.	About Joridian doctors arrived at the hospital a few days ago.	38113607	1472852749302	1472852749438	i	73
73736	802218	About 10 Jordanian doctors arrived at the hospital a few days ago.	About Joridian doctors arrived at the hospital a few days ago.	38113657	1472852749479	1472852749593	t	84
73736	802218	About 10 Jordanian doctors arrived at the hospital a few days ago.	About Joridian doctors arrived at the hospital a few days ago.	38113662	1472852749718	1472852749823	a	65
73736	802218	About 10 Jordanian doctors arrived at the hospital a few days ago.	About Joridian doctors arrived at the hospital a few days ago.	38113667	1472852749823	1472852749943	l	76
73736	802218	About 10 Jordanian doctors arrived at the hospital a few days ago.	About Joridian doctors arrived at the hospital a few days ago.	38113670	1472852750194	1472852750327	 	32
73736	802218	About 10 Jordanian doctors arrived at the hospital a few days ago.	About Joridian doctors arrived at the hospital a few days ago.	38113672	1472852750498	1472852750673	a	65
73736	802218	About 10 Jordanian doctors arrived at the hospital a few days ago.	About Joridian doctors arrived at the hospital a few days ago.	38113762	1472852750658	1472852750793	 	32
73736	802218	About 10 Jordanian doctors arrived at the hospital a few days ago.	About Joridian doctors arrived at the hospital a few days ago.	38113767	1472852751545	1472852751658	f	70
73736	802218	About 10 Jordanian doctors arrived at the hospital a few days ago.	About Joridian doctors arrived at the hospital a few days ago.	38113776	1472852751783	1472852751941	e	69
73736	802218	About 10 Jordanian doctors arrived at the hospital a few days ago.	About Joridian doctors arrived at the hospital a few days ago.	38113787	1472852751907	1472852752012	w	87
73736	802218	About 10 Jordanian doctors arrived at the hospital a few days ago.	About Joridian doctors arrived at the hospital a few days ago.	38113791	1472852752043	1472852752179	 	32
73736	802218	About 10 Jordanian doctors arrived at the hospital a few days ago.	About Joridian doctors arrived at the hospital a few days ago.	38113793	1472852752211	1472852752315	s	83
73736	802218	About 10 Jordanian doctors arrived at the hospital a few days ago.	About Joridian doctors arrived at the hospital a few days ago.	38113907	1472852752676	1472852752829	BKSP	8
73736	802218	About 10 Jordanian doctors arrived at the hospital a few days ago.	About Joridian doctors arrived at the hospital a few days ago.	38113912	1472852752829	1472852752976	d	68
73736	802218	About 10 Jordanian doctors arrived at the hospital a few days ago.	About Joridian doctors arrived at the hospital a few days ago.	38113918	1472852753023	1472852753177	a	65
73736	802218	About 10 Jordanian doctors arrived at the hospital a few days ago.	About Joridian doctors arrived at the hospital a few days ago.	38113925	1472852753361	1472852753449	y	89
73736	802218	About 10 Jordanian doctors arrived at the hospital a few days ago.	About Joridian doctors arrived at the hospital a few days ago.	38113931	1472852753574	1472852753697	s	83
73736	802218	About 10 Jordanian doctors arrived at the hospital a few days ago.	About Joridian doctors arrived at the hospital a few days ago.	38113935	1472852753994	1472852754116	 	32
73736	802218	About 10 Jordanian doctors arrived at the hospital a few days ago.	About Joridian doctors arrived at the hospital a few days ago.	38114075	1472852754352	1472852754558	a	65
73736	802218	About 10 Jordanian doctors arrived at the hospital a few days ago.	About Joridian doctors arrived at the hospital a few days ago.	38114081	1472852754573	1472852754713	g	71
73736	802218	About 10 Jordanian doctors arrived at the hospital a few days ago.	About Joridian doctors arrived at the hospital a few days ago.	38114088	1472852754760	1472852754851	o	79
73736	802218	About 10 Jordanian doctors arrived at the hospital a few days ago.	About Joridian doctors arrived at the hospital a few days ago.	38114095	1472852755525	1472852755668	.	190
73736	802250	Drop him unless you play in a keeper league.	Drop him unless you play in a keeper league.	38114324	1472852758342	1472852758737	SHIFT	16
73736	802250	Drop him unless you play in a keeper league.	Drop him unless you play in a keeper league.	38114322	1472852758609	1472852758721	D	68
73736	802250	Drop him unless you play in a keeper league.	Drop him unless you play in a keeper league.	38114326	1472852758877	1472852758975	r	82
73736	802250	Drop him unless you play in a keeper league.	Drop him unless you play in a keeper league.	38114328	1472852759300	1472852759484	o	79
73736	802250	Drop him unless you play in a keeper league.	Drop him unless you play in a keeper league.	38114330	1472852759499	1472852759670	p	80
73736	802250	Drop him unless you play in a keeper league.	Drop him unless you play in a keeper league.	38114333	1472852759686	1472852759838	 	32
73736	802250	Drop him unless you play in a keeper league.	Drop him unless you play in a keeper league.	38114453	1472852760000	1472852760166	h	72
73736	802250	Drop him unless you play in a keeper league.	Drop him unless you play in a keeper league.	38114457	1472852760124	1472852760272	i	73
73736	802250	Drop him unless you play in a keeper league.	Drop him unless you play in a keeper league.	38114460	1472852761180	1472852761355	m	77
73736	802250	Drop him unless you play in a keeper league.	Drop him unless you play in a keeper league.	38114462	1472852761496	1472852761625	 	32
73736	802250	Drop him unless you play in a keeper league.	Drop him unless you play in a keeper league.	38114464	1472852761750	1472852761859	u	85
73736	802250	Drop him unless you play in a keeper league.	Drop him unless you play in a keeper league.	38114519	1472852761953	1472852762078	n	78
73736	802250	Drop him unless you play in a keeper league.	Drop him unless you play in a keeper league.	38114522	1472852762312	1472852762427	l	76
73736	802250	Drop him unless you play in a keeper league.	Drop him unless you play in a keeper league.	38114525	1472852762489	1472852762594	e	69
73736	802250	Drop him unless you play in a keeper league.	Drop him unless you play in a keeper league.	38114530	1472852762813	1472852762847	s	83
73736	802250	Drop him unless you play in a keeper league.	Drop him unless you play in a keeper league.	38114534	1472852762926	1472852763027	s	83
73736	802250	Drop him unless you play in a keeper league.	Drop him unless you play in a keeper league.	38114570	1472852763274	1472852763396	 	32
73736	802250	Drop him unless you play in a keeper league.	Drop him unless you play in a keeper league.	38114576	1472852763474	1472852763581	y	89
73736	802250	Drop him unless you play in a keeper league.	Drop him unless you play in a keeper league.	38114582	1472852763691	1472852763783	u	79
73736	802250	Drop him unless you play in a keeper league.	Drop him unless you play in a keeper league.	38114646	1472852763798	1472852763945	 	32
73736	802250	Drop him unless you play in a keeper league.	Drop him unless you play in a keeper league.	38114651	1472852764055	1472852764149	p	80
73736	802250	Drop him unless you play in a keeper league.	Drop him unless you play in a keeper league.	38114655	1472852764274	1472852764381	l	76
73736	802250	Drop him unless you play in a keeper league.	Drop him unless you play in a keeper league.	38114660	1472852764522	1472852764677	a	65
73736	802250	Drop him unless you play in a keeper league.	Drop him unless you play in a keeper league.	38114672	1472852764692	1472852764832	y	89
73736	802250	Drop him unless you play in a keeper league.	Drop him unless you play in a keeper league.	38114677	1472852764864	1472852764982	 	32
73736	802250	Drop him unless you play in a keeper league.	Drop him unless you play in a keeper league.	38114797	1472852765190	1472852765331	i	73
73736	802250	Drop him unless you play in a keeper league.	Drop him unless you play in a keeper league.	38114804	1472852765487	1472852765675	 	32
73736	802250	Drop him unless you play in a keeper league.	Drop him unless you play in a keeper league.	38114810	1472852765972	1472852766102	BKSP	8
73736	802250	Drop him unless you play in a keeper league.	Drop him unless you play in a keeper league.	38114816	1472852766336	1472852766512	n	78
73736	802250	Drop him unless you play in a keeper league.	Drop him unless you play in a keeper league.	38114821	1472852766622	1472852766763	a	65
73736	802250	Drop him unless you play in a keeper league.	Drop him unless you play in a keeper league.	38114825	1472852766841	1472852766969	 	32
73736	802250	Drop him unless you play in a keeper league.	Drop him unless you play in a keeper league.	38114926	1472852767298	1472852767400	BKSP	8
73736	802250	Drop him unless you play in a keeper league.	Drop him unless you play in a keeper league.	38114931	1472852767494	1472852767570	BKSP	8
73736	802250	Drop him unless you play in a keeper league.	Drop him unless you play in a keeper league.	38114934	1472852767818	1472852767934	 	32
73736	802250	Drop him unless you play in a keeper league.	Drop him unless you play in a keeper league.	38114938	1472852767934	1472852768083	a	65
73736	802250	Drop him unless you play in a keeper league.	Drop him unless you play in a keeper league.	38114941	1472852768098	1472852768218	 	32
73736	802250	Drop him unless you play in a keeper league.	Drop him unless you play in a keeper league.	38114944	1472852768312	1472852768422	k	75
73736	802250	Drop him unless you play in a keeper league.	Drop him unless you play in a keeper league.	38114947	1472852768484	1472852768556	e	69
73736	802250	Drop him unless you play in a keeper league.	Drop him unless you play in a keeper league.	38115000	1472852768633	1472852768722	e	69
73736	802250	Drop him unless you play in a keeper league.	Drop him unless you play in a keeper league.	38115003	1472852768769	1472852768870	p	80
73736	802250	Drop him unless you play in a keeper league.	Drop him unless you play in a keeper league.	38115004	1472852769011	1472852769194	e	69
73736	802250	Drop him unless you play in a keeper league.	Drop him unless you play in a keeper league.	38115007	1472852769155	1472852769319	r	82
73736	802250	Drop him unless you play in a keeper league.	Drop him unless you play in a keeper league.	38115008	1472852769360	1472852769489	 	32
73736	802250	Drop him unless you play in a keeper league.	Drop him unless you play in a keeper league.	38115098	1472852769574	1472852769714	l	76
73736	802250	Drop him unless you play in a keeper league.	Drop him unless you play in a keeper league.	38115100	1472852769688	1472852769805	e	69
73736	802250	Drop him unless you play in a keeper league.	Drop him unless you play in a keeper league.	38115103	1472852769979	1472852770027	a	65
73736	802250	Drop him unless you play in a keeper league.	Drop him unless you play in a keeper league.	38115105	1472852771047	1472852771158	g	71
73736	802250	Drop him unless you play in a keeper league.	Drop him unless you play in a keeper league.	38115108	1472852771173	1472852771291	u	85
73736	802250	Drop him unless you play in a keeper league.	Drop him unless you play in a keeper league.	38115122	1472852771616	1472852771757	e	69
73736	802250	Drop him unless you play in a keeper league.	Drop him unless you play in a keeper league.	38115126	1472852771850	1472852771928	.	190
73736	802275	I hope you feel better.	I hope you feel better.	38115362	1472852774222	1472852774529	SHIFT	16
73736	802275	I hope you feel better.	I hope you feel better.	38115357	1472852774425	1472852774498	I	73
73736	802275	I hope you feel better.	I hope you feel better.	38115367	1472852774591	1472852774727	 	32
73736	802275	I hope you feel better.	I hope you feel better.	38115370	1472852775498	1472852775712	h	72
73736	802275	I hope you feel better.	I hope you feel better.	38115381	1472852775692	1472852775888	o	79
73736	802275	I hope you feel better.	I hope you feel better.	38115455	1472852775846	1472852776008	p	80
73736	802275	I hope you feel better.	I hope you feel better.	38115457	1472852776008	1472852776150	e	69
73736	802275	I hope you feel better.	I hope you feel better.	38115463	1472852776509	1472852776648	 	32
73736	802275	I hope you feel better.	I hope you feel better.	38115469	1472852776726	1472852776879	y	89
73736	802275	I hope you feel better.	I hope you feel better.	38115474	1472852776850	1472852777037	o	79
73736	802275	I hope you feel better.	I hope you feel better.	38115585	1472852776981	1472852777156	u	85
73736	802275	I hope you feel better.	I hope you feel better.	38115588	1472852777109	1472852777234	 	32
73736	802275	I hope you feel better.	I hope you feel better.	38115595	1472852777359	1472852777451	f	70
73736	802275	I hope you feel better.	I hope you feel better.	38115599	1472852777576	1472852777684	e	69
73736	802275	I hope you feel better.	I hope you feel better.	38115602	1472852777731	1472852777803	e	69
73736	802275	I hope you feel better.	I hope you feel better.	38115605	1472852778351	1472852778538	l	76
73736	802275	I hope you feel better.	I hope you feel better.	38115679	1472852778483	1472852778627	 	32
73736	802275	I hope you feel better.	I hope you feel better.	38115683	1472852778877	1472852779033	b	66
73736	802275	I hope you feel better.	I hope you feel better.	38115685	1472852779001	1472852779135	e	69
73736	802275	I hope you feel better.	I hope you feel better.	38115690	1472852779385	1472852779504	t	84
73736	802275	I hope you feel better.	I hope you feel better.	38115693	1472852779630	1472852779752	t	84
73736	802275	I hope you feel better.	I hope you feel better.	38115696	1472852779830	1472852780027	e	69
73736	802275	I hope you feel better.	I hope you feel better.	38115700	1472852779971	1472852780093	r	82
73736	802275	I hope you feel better.	I hope you feel better.	38115703	1472852780171	1472852780258	.	190
73736	802287	Megan, we only bought this on KN for the 30th.	Megan, we only bought this on KN for the 30th.	38115901	1472852782433	1472852782877	SHIFT	16
73736	802287	Megan, we only bought this on KN for the 30th.	Megan, we only bought this on KN for the 30th.	38115903	1472852782793	1472852782924	M	77
73736	802287	Megan, we only bought this on KN for the 30th.	Megan, we only bought this on KN for the 30th.	38115909	1472852783065	1472852783144	e	69
73736	802287	Megan, we only bought this on KN for the 30th.	Megan, we only bought this on KN for the 30th.	38115915	1472852783269	1472852783390	g	71
73736	802287	Megan, we only bought this on KN for the 30th.	Megan, we only bought this on KN for the 30th.	38115918	1472852783562	1472852783706	n	78
73736	802287	Megan, we only bought this on KN for the 30th.	Megan, we only bought this on KN for the 30th.	38116196	1472852783677	1472852783809	a	65
73736	802287	Megan, we only bought this on KN for the 30th.	Megan, we only bought this on KN for the 30th.	38116201	1472852783983	1472852784048	BKSP	8
73736	802287	Megan, we only bought this on KN for the 30th.	Megan, we only bought this on KN for the 30th.	38116205	1472852784126	1472852784212	BKSP	8
73736	802287	Megan, we only bought this on KN for the 30th.	Megan, we only bought this on KN for the 30th.	38116208	1472852784451	1472852784561	n	78
73736	802287	Megan, we only bought this on KN for the 30th.	Megan, we only bought this on KN for the 30th.	38116211	1472852785141	1472852785316	BKSP	8
73736	802287	Megan, we only bought this on KN for the 30th.	Megan, we only bought this on KN for the 30th.	38116213	1472852785244	1472852785332	a	65
73736	802287	Megan, we only bought this on KN for the 30th.	Megan, we only bought this on KN for the 30th.	38116217	1472852786370	1472852786512	n	78
73736	802287	Megan, we only bought this on KN for the 30th.	Megan, we only bought this on KN for the 30th.	38116221	1472852786856	1472852786951	.	190
73736	802287	Megan, we only bought this on KN for the 30th.	Megan, we only bought this on KN for the 30th.	38116226	1472852787389	1472852787484	BKSP	8
73736	802287	Megan, we only bought this on KN for the 30th.	Megan, we only bought this on KN for the 30th.	38116228	1472852788001	1472852788117	,	188
73736	802287	Megan, we only bought this on KN for the 30th.	Megan, we only bought this on KN for the 30th.	38116294	1472852788212	1472852788351	 	32
73736	802287	Megan, we only bought this on KN for the 30th.	Megan, we only bought this on KN for the 30th.	38116297	1472852788790	1472852788989	w	87
73736	802287	Megan, we only bought this on KN for the 30th.	Megan, we only bought this on KN for the 30th.	38116300	1472852788918	1472852789083	e	69
73736	802287	Megan, we only bought this on KN for the 30th.	Megan, we only bought this on KN for the 30th.	38116303	1472852789114	1472852789250	 	32
73736	802287	Megan, we only bought this on KN for the 30th.	Megan, we only bought this on KN for the 30th.	38116309	1472852789344	1472852789505	o	79
73736	802287	Megan, we only bought this on KN for the 30th.	Megan, we only bought this on KN for the 30th.	38116460	1472852789454	1472852789680	n	78
73736	802287	Megan, we only bought this on KN for the 30th.	Megan, we only bought this on KN for the 30th.	38116469	1472852789658	1472852789922	l	76
73736	802287	Megan, we only bought this on KN for the 30th.	Megan, we only bought this on KN for the 30th.	38116477	1472852789878	1472852790050	y	89
73736	802287	Megan, we only bought this on KN for the 30th.	Megan, we only bought this on KN for the 30th.	38116487	1472852790032	1472852790168	 	32
73736	802287	Megan, we only bought this on KN for the 30th.	Megan, we only bought this on KN for the 30th.	38116494	1472852791281	1472852791419	b	66
73736	802287	Megan, we only bought this on KN for the 30th.	Megan, we only bought this on KN for the 30th.	38116500	1472852791451	1472852791628	o	79
73736	802287	Megan, we only bought this on KN for the 30th.	Megan, we only bought this on KN for the 30th.	38116543	1472852791557	1472852791719	u	85
73736	802287	Megan, we only bought this on KN for the 30th.	Megan, we only bought this on KN for the 30th.	38116547	1472852791708	1472852791806	g	71
73736	802287	Megan, we only bought this on KN for the 30th.	Megan, we only bought this on KN for the 30th.	38116554	1472852791853	1472852791974	h	72
73736	802287	Megan, we only bought this on KN for the 30th.	Megan, we only bought this on KN for the 30th.	38116561	1472852791957	1472852792089	t	84
73736	802287	Megan, we only bought this on KN for the 30th.	Megan, we only bought this on KN for the 30th.	38116569	1472852792232	1472852792351	 	32
73736	802287	Megan, we only bought this on KN for the 30th.	Megan, we only bought this on KN for the 30th.	38116575	1472852792445	1472852792588	t	84
73736	802287	Megan, we only bought this on KN for the 30th.	Megan, we only bought this on KN for the 30th.	38116637	1472852792617	1472852792794	h	72
73736	802287	Megan, we only bought this on KN for the 30th.	Megan, we only bought this on KN for the 30th.	38116641	1472852792755	1472852792935	i	73
73736	802287	Megan, we only bought this on KN for the 30th.	Megan, we only bought this on KN for the 30th.	38116648	1472852792966	1472852793107	s	83
73736	802287	Megan, we only bought this on KN for the 30th.	Megan, we only bought this on KN for the 30th.	38116651	1472852793107	1472852793224	 	32
73736	802287	Megan, we only bought this on KN for the 30th.	Megan, we only bought this on KN for the 30th.	38116656	1472852793271	1472852793475	o	79
73736	802287	Megan, we only bought this on KN for the 30th.	Megan, we only bought this on KN for the 30th.	38116778	1472852793376	1472852793589	n	78
73736	802287	Megan, we only bought this on KN for the 30th.	Megan, we only bought this on KN for the 30th.	38116781	1472852793563	1472852793644	 	32
73736	802287	Megan, we only bought this on KN for the 30th.	Megan, we only bought this on KN for the 30th.	38116793	1472852793765	1472852794436	SHIFT	16
73736	802287	Megan, we only bought this on KN for the 30th.	Megan, we only bought this on KN for the 30th.	38116785	1472852794030	1472852794112	K	75
73736	802287	Megan, we only bought this on KN for the 30th.	Megan, we only bought this on KN for the 30th.	38116788	1472852794237	1472852794343	N	78
73736	802287	Megan, we only bought this on KN for the 30th.	Megan, we only bought this on KN for the 30th.	38116797	1472852794895	1472852794994	 	32
73736	802287	Megan, we only bought this on KN for the 30th.	Megan, we only bought this on KN for the 30th.	38116801	1472852795135	1472852795245	f	70
73736	802287	Megan, we only bought this on KN for the 30th.	Megan, we only bought this on KN for the 30th.	38116804	1472852795262	1472852795366	o	79
73736	802287	Megan, we only bought this on KN for the 30th.	Megan, we only bought this on KN for the 30th.	38116807	1472852795345	1472852795461	r	82
73736	802287	Megan, we only bought this on KN for the 30th.	Megan, we only bought this on KN for the 30th.	38116809	1472852795492	1472852795582	 	32
73736	802287	Megan, we only bought this on KN for the 30th.	Megan, we only bought this on KN for the 30th.	38116812	1472852795598	1472852795700	t	84
73736	802287	Megan, we only bought this on KN for the 30th.	Megan, we only bought this on KN for the 30th.	38117015	1472852795679	1472852795805	h	72
73736	802287	Megan, we only bought this on KN for the 30th.	Megan, we only bought this on KN for the 30th.	38117021	1472852795763	1472852795880	e	69
73736	802287	Megan, we only bought this on KN for the 30th.	Megan, we only bought this on KN for the 30th.	38117026	1472852795901	1472852796030	 	32
73736	802287	Megan, we only bought this on KN for the 30th.	Megan, we only bought this on KN for the 30th.	38117028	1472852796656	1472852796815	PG_DOWN	34
73736	802287	Megan, we only bought this on KN for the 30th.	Megan, we only bought this on KN for the 30th.	38117031	1472852796771	1472852796899	INSERT	45
73736	802287	Megan, we only bought this on KN for the 30th.	Megan, we only bought this on KN for the 30th.	38117033	1472852797101	1472852797231	t	84
73736	802287	Megan, we only bought this on KN for the 30th.	Megan, we only bought this on KN for the 30th.	38117036	1472852797247	1472852797317	h	72
73736	802287	Megan, we only bought this on KN for the 30th.	Megan, we only bought this on KN for the 30th.	38117039	1472852798889	1472852798970	h	72
73736	802287	Megan, we only bought this on KN for the 30th.	Megan, we only bought this on KN for the 30th.	38117448	1472852799521	1472852799590	BKSP	8
73736	802287	Megan, we only bought this on KN for the 30th.	Megan, we only bought this on KN for the 30th.	38117452	1472852799668	1472852799725	BKSP	8
73736	802287	Megan, we only bought this on KN for the 30th.	Megan, we only bought this on KN for the 30th.	38117455	1472852799803	1472852799874	BKSP	8
73736	802287	Megan, we only bought this on KN for the 30th.	Megan, we only bought this on KN for the 30th.	38117462	1472852800383	1472852800548	PG_DOWN	34
73736	802287	Megan, we only bought this on KN for the 30th.	Megan, we only bought this on KN for the 30th.	38117470	1472852800454	1472852800641	INSERT	45
73736	802287	Megan, we only bought this on KN for the 30th.	Megan, we only bought this on KN for the 30th.	38117478	1472852800904	1472852801139	e	69
73736	802287	Megan, we only bought this on KN for the 30th.	Megan, we only bought this on KN for the 30th.	38117485	1472852801035	1472852801248	h	72
73736	802287	Megan, we only bought this on KN for the 30th.	Megan, we only bought this on KN for the 30th.	38117492	1472852802142	1472852802209	BKSP	8
73736	802287	Megan, we only bought this on KN for the 30th.	Megan, we only bought this on KN for the 30th.	38117497	1472852802319	1472852802393	BKSP	8
73736	802287	Megan, we only bought this on KN for the 30th.	Megan, we only bought this on KN for the 30th.	38117503	1472852803553	1472852803615	NUM_LK	144
73736	802287	Megan, we only bought this on KN for the 30th.	Megan, we only bought this on KN for the 30th.	38117506	1472852804306	1472852804480	3	99
73736	802287	Megan, we only bought this on KN for the 30th.	Megan, we only bought this on KN for the 30th.	38117509	1472852804408	1472852804574	0	96
73736	802287	Megan, we only bought this on KN for the 30th.	Megan, we only bought this on KN for the 30th.	38117513	1472852805563	1472852805730	t	84
73736	802287	Megan, we only bought this on KN for the 30th.	Megan, we only bought this on KN for the 30th.	38117487	1472852805664	1472852805855	h	72
73736	802287	Megan, we only bought this on KN for the 30th.	Megan, we only bought this on KN for the 30th.	38117495	1472852805870	1472852805995	.	190
73736	802323	It is not a matter of imposing a peace plan on the parties.	It is not a matter of imposing a peace plan on the parties.	38117839	1472852808988	1472852809286	SHIFT	16
73736	802323	It is not a matter of imposing a peace plan on the parties.	It is not a matter of imposing a peace plan on the parties.	38117835	1472852809196	1472852809270	I	73
73736	802323	It is not a matter of imposing a peace plan on the parties.	It is not a matter of imposing a peace plan on the parties.	38117849	1472852809411	1472852809535	 	32
73736	802323	It is not a matter of imposing a peace plan on the parties.	It is not a matter of imposing a peace plan on the parties.	38117846	1472852809436	1472852809535	t	84
73736	802323	It is not a matter of imposing a peace plan on the parties.	It is not a matter of imposing a peace plan on the parties.	38117852	1472852809926	1472852809987	BKSP	8
73736	802323	It is not a matter of imposing a peace plan on the parties.	It is not a matter of imposing a peace plan on the parties.	38117855	1472852810081	1472852810138	BKSP	8
73736	802323	It is not a matter of imposing a peace plan on the parties.	It is not a matter of imposing a peace plan on the parties.	38117858	1472852810248	1472852810350	t	84
73736	802323	It is not a matter of imposing a peace plan on the parties.	It is not a matter of imposing a peace plan on the parties.	38117861	1472852810429	1472852810521	 	32
73736	802323	It is not a matter of imposing a peace plan on the parties.	It is not a matter of imposing a peace plan on the parties.	38117883	1472852810570	1472852810680	i	73
73736	802323	It is not a matter of imposing a peace plan on the parties.	It is not a matter of imposing a peace plan on the parties.	38117888	1472852810670	1472852810771	s	83
73736	802323	It is not a matter of imposing a peace plan on the parties.	It is not a matter of imposing a peace plan on the parties.	38117894	1472852810783	1472852810870	 	32
73736	802323	It is not a matter of imposing a peace plan on the parties.	It is not a matter of imposing a peace plan on the parties.	38117897	1472852810964	1472852811172	n	78
73736	802323	It is not a matter of imposing a peace plan on the parties.	It is not a matter of imposing a peace plan on the parties.	38117976	1472852811118	1472852811270	o	79
73736	802323	It is not a matter of imposing a peace plan on the parties.	It is not a matter of imposing a peace plan on the parties.	38117980	1472852811302	1472852811434	r	82
73736	802323	It is not a matter of imposing a peace plan on the parties.	It is not a matter of imposing a peace plan on the parties.	38117985	1472852811559	1472852811685	 	32
73736	802323	It is not a matter of imposing a peace plan on the parties.	It is not a matter of imposing a peace plan on the parties.	38117989	1472852811888	1472852811957	BKSP	8
73736	802323	It is not a matter of imposing a peace plan on the parties.	It is not a matter of imposing a peace plan on the parties.	38117996	1472852812051	1472852812117	BKSP	8
73736	802323	It is not a matter of imposing a peace plan on the parties.	It is not a matter of imposing a peace plan on the parties.	38118005	1472852812164	1472852812287	t	84
73736	802323	It is not a matter of imposing a peace plan on the parties.	It is not a matter of imposing a peace plan on the parties.	38118012	1472852812303	1472852812421	 	32
73736	802323	It is not a matter of imposing a peace plan on the parties.	It is not a matter of imposing a peace plan on the parties.	38118017	1472852812462	1472852812606	a	65
73736	802323	It is not a matter of imposing a peace plan on the parties.	It is not a matter of imposing a peace plan on the parties.	38118037	1472852812638	1472852812724	 	32
73736	802323	It is not a matter of imposing a peace plan on the parties.	It is not a matter of imposing a peace plan on the parties.	38118040	1472852812833	1472852812956	m	77
73736	802323	It is not a matter of imposing a peace plan on the parties.	It is not a matter of imposing a peace plan on the parties.	38118045	1472852813237	1472852813370	a	65
73736	802323	It is not a matter of imposing a peace plan on the parties.	It is not a matter of imposing a peace plan on the parties.	38118048	1472852813464	1472852813558	t	84
73736	802323	It is not a matter of imposing a peace plan on the parties.	It is not a matter of imposing a peace plan on the parties.	38118053	1472852813652	1472852813725	t	84
73736	802323	It is not a matter of imposing a peace plan on the parties.	It is not a matter of imposing a peace plan on the parties.	38118078	1472852813828	1472852814012	e	69
73736	802323	It is not a matter of imposing a peace plan on the parties.	It is not a matter of imposing a peace plan on the parties.	38118085	1472852813938	1472852814075	r	82
73736	802323	It is not a matter of imposing a peace plan on the parties.	It is not a matter of imposing a peace plan on the parties.	38118091	1472852814106	1472852814224	 	32
73736	802323	It is not a matter of imposing a peace plan on the parties.	It is not a matter of imposing a peace plan on the parties.	38118094	1472852814302	1472852814428	o	79
73736	802323	It is not a matter of imposing a peace plan on the parties.	It is not a matter of imposing a peace plan on the parties.	38118169	1472852814407	1472852814563	f	70
73736	802323	It is not a matter of imposing a peace plan on the parties.	It is not a matter of imposing a peace plan on the parties.	38118171	1472852814594	1472852814712	 	32
73736	802323	It is not a matter of imposing a peace plan on the parties.	It is not a matter of imposing a peace plan on the parties.	38118173	1472852815099	1472852815381	i	73
73736	802323	It is not a matter of imposing a peace plan on the parties.	It is not a matter of imposing a peace plan on the parties.	38118177	1472852815397	1472852815674	m	77
73736	802323	It is not a matter of imposing a peace plan on the parties.	It is not a matter of imposing a peace plan on the parties.	38118181	1472852815638	1472852815786	p	80
73736	802323	It is not a matter of imposing a peace plan on the parties.	It is not a matter of imposing a peace plan on the parties.	38118205	1472852815776	1472852815971	o	79
73736	802323	It is not a matter of imposing a peace plan on the parties.	It is not a matter of imposing a peace plan on the parties.	38118210	1472852815971	1472852816111	s	83
73736	802323	It is not a matter of imposing a peace plan on the parties.	It is not a matter of imposing a peace plan on the parties.	38118219	1472852816157	1472852816314	i	73
73736	802323	It is not a matter of imposing a peace plan on the parties.	It is not a matter of imposing a peace plan on the parties.	38118224	1472852816279	1472852816450	n	78
73736	802323	It is not a matter of imposing a peace plan on the parties.	It is not a matter of imposing a peace plan on the parties.	38118229	1472852816408	1472852816528	g	71
73736	802323	It is not a matter of imposing a peace plan on the parties.	It is not a matter of imposing a peace plan on the parties.	38118233	1472852816591	1472852816712	 	32
73736	802323	It is not a matter of imposing a peace plan on the parties.	It is not a matter of imposing a peace plan on the parties.	38118337	1472852816977	1472852817156	a	65
73736	802323	It is not a matter of imposing a peace plan on the parties.	It is not a matter of imposing a peace plan on the parties.	38118341	1472852817219	1472852817389	 	32
73736	802323	It is not a matter of imposing a peace plan on the parties.	It is not a matter of imposing a peace plan on the parties.	38118347	1472852817545	1472852817647	p	80
73736	802323	It is not a matter of imposing a peace plan on the parties.	It is not a matter of imposing a peace plan on the parties.	38118351	1472852817975	1472852818128	e	69
73736	802323	It is not a matter of imposing a peace plan on the parties.	It is not a matter of imposing a peace plan on the parties.	38118355	1472852818144	1472852818481	a	65
73736	802323	It is not a matter of imposing a peace plan on the parties.	It is not a matter of imposing a peace plan on the parties.	38118414	1472852819000	1472852819081	c	67
73736	802323	It is not a matter of imposing a peace plan on the parties.	It is not a matter of imposing a peace plan on the parties.	38118416	1472852819190	1472852819331	e	69
73736	802323	It is not a matter of imposing a peace plan on the parties.	It is not a matter of imposing a peace plan on the parties.	38118420	1472852819346	1472852819481	 	32
73736	802323	It is not a matter of imposing a peace plan on the parties.	It is not a matter of imposing a peace plan on the parties.	38118424	1472852819543	1472852819651	p	80
73736	802323	It is not a matter of imposing a peace plan on the parties.	It is not a matter of imposing a peace plan on the parties.	38118428	1472852819729	1472852819834	l	76
73736	802323	It is not a matter of imposing a peace plan on the parties.	It is not a matter of imposing a peace plan on the parties.	38118474	1472852819860	1472852819983	a	65
73736	802323	It is not a matter of imposing a peace plan on the parties.	It is not a matter of imposing a peace plan on the parties.	38118477	1472852820030	1472852820181	n	78
73736	802323	It is not a matter of imposing a peace plan on the parties.	It is not a matter of imposing a peace plan on the parties.	38118484	1472852820275	1472852820401	 	32
73736	802323	It is not a matter of imposing a peace plan on the parties.	It is not a matter of imposing a peace plan on the parties.	38118487	1472852820470	1472852820583	o	79
73736	802323	It is not a matter of imposing a peace plan on the parties.	It is not a matter of imposing a peace plan on the parties.	38118490	1472852820661	1472852820772	n	78
73736	802323	It is not a matter of imposing a peace plan on the parties.	It is not a matter of imposing a peace plan on the parties.	38118659	1472852820706	1472852820820	 	32
73736	802323	It is not a matter of imposing a peace plan on the parties.	It is not a matter of imposing a peace plan on the parties.	38118664	1472852820754	1472852820882	t	84
73736	802323	It is not a matter of imposing a peace plan on the parties.	It is not a matter of imposing a peace plan on the parties.	38118669	1472852821007	1472852821105	 	32
73736	802323	It is not a matter of imposing a peace plan on the parties.	It is not a matter of imposing a peace plan on the parties.	38118673	1472852821039	1472852821152	e	69
73736	802323	It is not a matter of imposing a peace plan on the parties.	It is not a matter of imposing a peace plan on the parties.	38118678	1472852821248	1472852821371	 	32
73736	802323	It is not a matter of imposing a peace plan on the parties.	It is not a matter of imposing a peace plan on the parties.	38118684	1472852821813	1472852821937	p	80
73736	802323	It is not a matter of imposing a peace plan on the parties.	It is not a matter of imposing a peace plan on the parties.	38118689	1472852822203	1472852822271	BKSP	8
73736	802323	It is not a matter of imposing a peace plan on the parties.	It is not a matter of imposing a peace plan on the parties.	38118697	1472852822367	1472852822440	BKSP	8
73736	802323	It is not a matter of imposing a peace plan on the parties.	It is not a matter of imposing a peace plan on the parties.	38118705	1472852822502	1472852822542	BKSP	8
73736	802323	It is not a matter of imposing a peace plan on the parties.	It is not a matter of imposing a peace plan on the parties.	38118711	1472852822605	1472852822654	BKSP	8
73736	802323	It is not a matter of imposing a peace plan on the parties.	It is not a matter of imposing a peace plan on the parties.	38118717	1472852823211	1472852823338	h	72
73736	802323	It is not a matter of imposing a peace plan on the parties.	It is not a matter of imposing a peace plan on the parties.	38118739	1472852823324	1472852823443	e	69
73736	802323	It is not a matter of imposing a peace plan on the parties.	It is not a matter of imposing a peace plan on the parties.	38118742	1472852823390	1472852823521	 	32
73736	802323	It is not a matter of imposing a peace plan on the parties.	It is not a matter of imposing a peace plan on the parties.	38118746	1472852823568	1472852823697	p	80
73736	802323	It is not a matter of imposing a peace plan on the parties.	It is not a matter of imposing a peace plan on the parties.	38118749	1472852823673	1472852823896	a	65
73736	802323	It is not a matter of imposing a peace plan on the parties.	It is not a matter of imposing a peace plan on the parties.	38118757	1472852823834	1472852823958	r	82
73736	802323	It is not a matter of imposing a peace plan on the parties.	It is not a matter of imposing a peace plan on the parties.	38118763	1472852824067	1472852824154	t	84
73736	802323	It is not a matter of imposing a peace plan on the parties.	It is not a matter of imposing a peace plan on the parties.	38118837	1472852824141	1472852824241	i	73
73736	802323	It is not a matter of imposing a peace plan on the parties.	It is not a matter of imposing a peace plan on the parties.	38118841	1472852824335	1472852824440	e	69
73736	802323	It is not a matter of imposing a peace plan on the parties.	It is not a matter of imposing a peace plan on the parties.	38118847	1472852824549	1472852824657	s	83
73736	802323	It is not a matter of imposing a peace plan on the parties.	It is not a matter of imposing a peace plan on the parties.	38118854	1472852824720	1472852824810	.	190
73736	802359	They would play Chile in Buenos Aires.	They would play Chile in Buenos Aires.	38119124	1472852827676	1472852827927	SHIFT	16
73736	802359	They would play Chile in Buenos Aires.	They would play Chile in Buenos Aires.	38119120	1472852827801	1472852827911	T	84
73736	802359	They would play Chile in Buenos Aires.	They would play Chile in Buenos Aires.	38119129	1472852828052	1472852828133	h	72
73736	802359	They would play Chile in Buenos Aires.	They would play Chile in Buenos Aires.	38119136	1472852828099	1472852828196	e	69
73736	802359	They would play Chile in Buenos Aires.	They would play Chile in Buenos Aires.	38119144	1472852828274	1472852828350	y	89
73736	802359	They would play Chile in Buenos Aires.	They would play Chile in Buenos Aires.	38119152	1472852828413	1472852828560	 	32
73736	802359	They would play Chile in Buenos Aires.	They would play Chile in Buenos Aires.	38119193	1472852828653	1472852828779	w	87
73736	802359	They would play Chile in Buenos Aires.	They would play Chile in Buenos Aires.	38119200	1472852828826	1472852828954	o	79
73736	802359	They would play Chile in Buenos Aires.	They would play Chile in Buenos Aires.	38119209	1472852828932	1472852829145	u	85
73736	802359	They would play Chile in Buenos Aires.	They would play Chile in Buenos Aires.	38119216	1472852829139	1472852829305	l	76
73736	802359	They would play Chile in Buenos Aires.	They would play Chile in Buenos Aires.	38119284	1472852829282	1472852829416	d	68
73736	802359	They would play Chile in Buenos Aires.	They would play Chile in Buenos Aires.	38119285	1472852829478	1472852829597	 	32
73736	802359	They would play Chile in Buenos Aires.	They would play Chile in Buenos Aires.	38119286	1472852829802	1472852829913	p	80
73736	802359	They would play Chile in Buenos Aires.	They would play Chile in Buenos Aires.	38119289	1472852830007	1472852830131	l	76
73736	802359	They would play Chile in Buenos Aires.	They would play Chile in Buenos Aires.	38119293	1472852830131	1472852830250	a	65
73736	802359	They would play Chile in Buenos Aires.	They would play Chile in Buenos Aires.	38119296	1472852830265	1472852830381	y	89
73736	802359	They would play Chile in Buenos Aires.	They would play Chile in Buenos Aires.	38119390	1472852830456	1472852830584	 	32
73736	802359	They would play Chile in Buenos Aires.	They would play Chile in Buenos Aires.	38119393	1472852831039	1472852831286	SHIFT	16
73736	802359	They would play Chile in Buenos Aires.	They would play Chile in Buenos Aires.	38119398	1472852831195	1472852831301	C	67
73736	802359	They would play Chile in Buenos Aires.	They would play Chile in Buenos Aires.	38119402	1472852831442	1472852831622	h	72
73736	802359	They would play Chile in Buenos Aires.	They would play Chile in Buenos Aires.	38119407	1472852831584	1472852831778	i	73
73736	802359	They would play Chile in Buenos Aires.	They would play Chile in Buenos Aires.	38119411	1472852831794	1472852831948	l	76
73736	802359	They would play Chile in Buenos Aires.	They would play Chile in Buenos Aires.	38119454	1472852831979	1472852832086	e	69
73736	802359	They would play Chile in Buenos Aires.	They would play Chile in Buenos Aires.	38119458	1472852832196	1472852832286	 	32
73736	802359	They would play Chile in Buenos Aires.	They would play Chile in Buenos Aires.	38119464	1472852832395	1472852832555	i	73
73736	802359	They would play Chile in Buenos Aires.	They would play Chile in Buenos Aires.	38119469	1472852832486	1472852832673	n	78
73736	802359	They would play Chile in Buenos Aires.	They would play Chile in Buenos Aires.	38119704	1472852832618	1472852832754	 	32
73736	802359	They would play Chile in Buenos Aires.	They would play Chile in Buenos Aires.	38119708	1472852832733	1472852832837	t	84
73736	802359	They would play Chile in Buenos Aires.	They would play Chile in Buenos Aires.	38119710	1472852833149	1472852833238	BKSP	8
73736	802359	They would play Chile in Buenos Aires.	They would play Chile in Buenos Aires.	38119715	1472852833551	1472852833852	SHIFT	16
73736	802359	They would play Chile in Buenos Aires.	They would play Chile in Buenos Aires.	38119713	1472852833726	1472852833805	B	66
73736	802359	They would play Chile in Buenos Aires.	They would play Chile in Buenos Aires.	38119717	1472852834733	1472852834822	u	85
73736	802359	They would play Chile in Buenos Aires.	They would play Chile in Buenos Aires.	38119720	1472852835469	1472852835575	e	69
73736	802359	They would play Chile in Buenos Aires.	They would play Chile in Buenos Aires.	38119724	1472852836091	1472852836254	n	78
73736	802359	They would play Chile in Buenos Aires.	They would play Chile in Buenos Aires.	38119829	1472852836772	1472852836861	o	79
73736	802359	They would play Chile in Buenos Aires.	They would play Chile in Buenos Aires.	38119836	1472852837002	1472852837125	s	83
73736	802359	They would play Chile in Buenos Aires.	They would play Chile in Buenos Aires.	38119841	1472852837141	1472852837262	 	32
73736	802359	They would play Chile in Buenos Aires.	They would play Chile in Buenos Aires.	38119843	1472852837403	1472852837711	SHIFT	16
73736	802359	They would play Chile in Buenos Aires.	They would play Chile in Buenos Aires.	38119846	1472852837590	1472852837742	A	65
73736	802359	They would play Chile in Buenos Aires.	They would play Chile in Buenos Aires.	38119848	1472852837946	1472852838062	i	73
73736	802359	They would play Chile in Buenos Aires.	They would play Chile in Buenos Aires.	38119917	1472852838104	1472852838298	r	82
73736	802359	They would play Chile in Buenos Aires.	They would play Chile in Buenos Aires.	38119924	1472852838259	1472852838407	e	69
73736	802359	They would play Chile in Buenos Aires.	They would play Chile in Buenos Aires.	38119926	1472852838548	1472852838647	s	83
73736	802359	They would play Chile in Buenos Aires.	They would play Chile in Buenos Aires.	38119927	1472852838741	1472852838815	.	190
73736	802380	Please call me if you see any problems.	Please call me if you see any problems.	38120177	1472852841062	1472852841381	SHIFT	16
73736	802380	Please call me if you see any problems.	Please call me if you see any problems.	38120169	1472852841249	1472852841365	P	80
73736	802380	Please call me if you see any problems.	Please call me if you see any problems.	38120185	1472852841581	1472852841714	l	76
73736	802380	Please call me if you see any problems.	Please call me if you see any problems.	38120192	1472852842155	1472852842326	e	69
73736	802380	Please call me if you see any problems.	Please call me if you see any problems.	38120196	1472852842314	1472852842484	a	65
73736	802380	Please call me if you see any problems.	Please call me if you see any problems.	38120201	1472852842593	1472852842744	s	83
73736	802380	Please call me if you see any problems.	Please call me if you see any problems.	38120272	1472852842700	1472852842886	e	69
73736	802380	Please call me if you see any problems.	Please call me if you see any problems.	38120274	1472852842917	1472852843051	 	32
73736	802380	Please call me if you see any problems.	Please call me if you see any problems.	38120281	1472852843222	1472852843384	c	67
73736	802380	Please call me if you see any problems.	Please call me if you see any problems.	38120288	1472852843447	1472852843632	a	65
73736	802380	Please call me if you see any problems.	Please call me if you see any problems.	38120295	1472852843648	1472852843706	l	76
73736	802380	Please call me if you see any problems.	Please call me if you see any problems.	38120306	1472852843800	1472852843963	l	76
73736	802380	Please call me if you see any problems.	Please call me if you see any problems.	38120487	1472852843934	1472852844056	 	32
73736	802380	Please call me if you see any problems.	Please call me if you see any problems.	38120493	1472852844838	1472852844923	e	69
73736	802380	Please call me if you see any problems.	Please call me if you see any problems.	38120500	1472852845377	1472852845505	BKSP	8
73736	802380	Please call me if you see any problems.	Please call me if you see any problems.	38120505	1472852845677	1472852845824	m	77
73736	802380	Please call me if you see any problems.	Please call me if you see any problems.	38120511	1472852845790	1472852845920	e	69
73736	802380	Please call me if you see any problems.	Please call me if you see any problems.	38120516	1472852845905	1472852846039	 	32
73736	802380	Please call me if you see any problems.	Please call me if you see any problems.	38120521	1472852846086	1472852846239	i	73
73736	802380	Please call me if you see any problems.	Please call me if you see any problems.	38120556	1472852846268	1472852846342	f	70
73736	802380	Please call me if you see any problems.	Please call me if you see any problems.	38120560	1472852846374	1472852846492	 	32
73736	802380	Please call me if you see any problems.	Please call me if you see any problems.	38120564	1472852846648	1472852846765	y	89
73736	802380	Please call me if you see any problems.	Please call me if you see any problems.	38120568	1472852846742	1472852846934	o	79
73736	802380	Please call me if you see any problems.	Please call me if you see any problems.	38120700	1472852846876	1472852847062	u	85
73736	802380	Please call me if you see any problems.	Please call me if you see any problems.	38120706	1472852846987	1472852847109	 	32
73736	802380	Please call me if you see any problems.	Please call me if you see any problems.	38120710	1472852847281	1472852847392	s	83
73736	802380	Please call me if you see any problems.	Please call me if you see any problems.	38120714	1472852847532	1472852847769	e	69
73736	802380	Please call me if you see any problems.	Please call me if you see any problems.	38120717	1472852847925	1472852847967	 	32
73736	802380	Please call me if you see any problems.	Please call me if you see any problems.	38120722	1472852848277	1472852848378	BKSP	8
73736	802380	Please call me if you see any problems.	Please call me if you see any problems.	38120726	1472852848440	1472852848529	e	69
73736	802380	Please call me if you see any problems.	Please call me if you see any problems.	38120823	1472852848580	1472852848679	 	32
73736	802380	Please call me if you see any problems.	Please call me if you see any problems.	38120828	1472852848679	1472852848812	a	65
73736	802380	Please call me if you see any problems.	Please call me if you see any problems.	38120831	1472852849022	1472852849191	y	89
73736	802380	Please call me if you see any problems.	Please call me if you see any problems.	38120834	1472852849676	1472852849797	BKSP	8
73736	802380	Please call me if you see any problems.	Please call me if you see any problems.	38120836	1472852850001	1472852850098	n	78
73736	802380	Please call me if you see any problems.	Please call me if you see any problems.	38120838	1472852850207	1472852850312	y	89
73736	802380	Please call me if you see any problems.	Please call me if you see any problems.	38120919	1472852850356	1472852850480	 	32
73736	802380	Please call me if you see any problems.	Please call me if you see any problems.	38120924	1472852850730	1472852850815	p	80
73736	802380	Please call me if you see any problems.	Please call me if you see any problems.	38120932	1472852851080	1472852851185	r	82
73736	802380	Please call me if you see any problems.	Please call me if you see any problems.	38120935	1472852851560	1472852851666	o	79
73736	802380	Please call me if you see any problems.	Please call me if you see any problems.	38120938	1472852852010	1472852852056	b	66
73736	802380	Please call me if you see any problems.	Please call me if you see any problems.	38120977	1472852852117	1472852852215	l	76
73736	802380	Please call me if you see any problems.	Please call me if you see any problems.	38120979	1472852852262	1472852852352	e	69
73736	802380	Please call me if you see any problems.	Please call me if you see any problems.	38120983	1472852852430	1472852852517	m	77
73736	802380	Please call me if you see any problems.	Please call me if you see any problems.	38120987	1472852852533	1472852852633	s	83
73736	802380	Please call me if you see any problems.	Please call me if you see any problems.	38120990	1472852852758	1472852852866	.	190
73736	802401	Can you supplement the answer to the visa question?	Can you supplement the answer to the visa question?	38121249	1472852855116	1472852855405	SHIFT	16
73736	802401	Can you supplement the answer to the visa question?	Can you supplement the answer to the visa question?	38121252	1472852855319	1472852855405	C	67
73736	802401	Can you supplement the answer to the visa question?	Can you supplement the answer to the visa question?	38121256	1472852855577	1472852855757	a	65
73736	802401	Can you supplement the answer to the visa question?	Can you supplement the answer to the visa question?	38121259	1472852855703	1472852855836	n	78
73736	802401	Can you supplement the answer to the visa question?	Can you supplement the answer to the visa question?	38121263	1472852855898	1472852856008	 	32
73736	802401	Can you supplement the answer to the visa question?	Can you supplement the answer to the visa question?	38121268	1472852856102	1472852856235	y	89
73736	802401	Can you supplement the answer to the visa question?	Can you supplement the answer to the visa question?	38121381	1472852856207	1472852856393	o	79
73736	802401	Can you supplement the answer to the visa question?	Can you supplement the answer to the visa question?	38121390	1472852856338	1472852856493	u	85
73736	802401	Can you supplement the answer to the visa question?	Can you supplement the answer to the visa question?	38121396	1472852856393	1472852856540	 	32
73736	802401	Can you supplement the answer to the visa question?	Can you supplement the answer to the visa question?	38121399	1472852856974	1472852857073	s	83
73736	802401	Can you supplement the answer to the visa question?	Can you supplement the answer to the visa question?	38121402	1472852857492	1472852857638	u	85
73736	802401	Can you supplement the answer to the visa question?	Can you supplement the answer to the visa question?	38121405	1472852857716	1472852857811	p	80
73736	802401	Can you supplement the answer to the visa question?	Can you supplement the answer to the visa question?	38121459	1472852857886	1472852857962	p	80
73736	802401	Can you supplement the answer to the visa question?	Can you supplement the answer to the visa question?	38121461	1472852858088	1472852858209	l	76
73736	802401	Can you supplement the answer to the visa question?	Can you supplement the answer to the visa question?	38121464	1472852858191	1472852858292	e	69
73736	802401	Can you supplement the answer to the visa question?	Can you supplement the answer to the visa question?	38121470	1472852858464	1472852858607	m	77
73736	802401	Can you supplement the answer to the visa question?	Can you supplement the answer to the visa question?	38121474	1472852858638	1472852858742	e	69
73736	802401	Can you supplement the answer to the visa question?	Can you supplement the answer to the visa question?	38121535	1472852858932	1472852859090	n	78
73736	802401	Can you supplement the answer to the visa question?	Can you supplement the answer to the visa question?	38121538	1472852859121	1472852859243	t	84
73736	802401	Can you supplement the answer to the visa question?	Can you supplement the answer to the visa question?	38121542	1472852859274	1472852859392	 	32
73736	802401	Can you supplement the answer to the visa question?	Can you supplement the answer to the visa question?	38121547	1472852859439	1472852859545	t	84
73736	802401	Can you supplement the answer to the visa question?	Can you supplement the answer to the visa question?	38121686	1472852859514	1472852859651	h	72
73736	802401	Can you supplement the answer to the visa question?	Can you supplement the answer to the visa question?	38121688	1472852859651	1472852859747	e	69
73736	802401	Can you supplement the answer to the visa question?	Can you supplement the answer to the visa question?	38121689	1472852859779	1472852859893	 	32
73736	802401	Can you supplement the answer to the visa question?	Can you supplement the answer to the visa question?	38121690	1472852860461	1472852860625	a	65
73736	802401	Can you supplement the answer to the visa question?	Can you supplement the answer to the visa question?	38121691	1472852860640	1472852860777	n	78
73736	802401	Can you supplement the answer to the visa question?	Can you supplement the answer to the visa question?	38121694	1472852860902	1472852861011	s	83
73736	802401	Can you supplement the answer to the visa question?	Can you supplement the answer to the visa question?	38121796	1472852861233	1472852861453	w	87
73736	802401	Can you supplement the answer to the visa question?	Can you supplement the answer to the visa question?	38121801	1472852861345	1472852861535	e	69
73736	802401	Can you supplement the answer to the visa question?	Can you supplement the answer to the visa question?	38121806	1472852861493	1472852861660	r	82
73736	802401	Can you supplement the answer to the visa question?	Can you supplement the answer to the visa question?	38121813	1472852861926	1472852862078	 	32
73736	802401	Can you supplement the answer to the visa question?	Can you supplement the answer to the visa question?	38121823	1472852862281	1472852862438	t	84
73736	802401	Can you supplement the answer to the visa question?	Can you supplement the answer to the visa question?	38121856	1472852862382	1472852862569	o	79
73736	802401	Can you supplement the answer to the visa question?	Can you supplement the answer to the visa question?	38121860	1472852862499	1472852862631	 	32
73736	802401	Can you supplement the answer to the visa question?	Can you supplement the answer to the visa question?	38121864	1472852862647	1472852862718	t	84
73736	802401	Can you supplement the answer to the visa question?	Can you supplement the answer to the visa question?	38121868	1472852862765	1472852862888	h	72
73736	802401	Can you supplement the answer to the visa question?	Can you supplement the answer to the visa question?	38121872	1472852862838	1472852862951	e	69
73736	802401	Can you supplement the answer to the visa question?	Can you supplement the answer to the visa question?	38121876	1472852862982	1472852863103	 	32
73736	802401	Can you supplement the answer to the visa question?	Can you supplement the answer to the visa question?	38122006	1472852863884	1472852863983	v	86
73736	802401	Can you supplement the answer to the visa question?	Can you supplement the answer to the visa question?	38122008	1472852863952	1472852864051	i	73
73736	802401	Can you supplement the answer to the visa question?	Can you supplement the answer to the visa question?	38122015	1472852864207	1472852864460	s	83
73736	802401	Can you supplement the answer to the visa question?	Can you supplement the answer to the visa question?	38122020	1472852865042	1472852865230	a	65
73736	802401	Can you supplement the answer to the visa question?	Can you supplement the answer to the visa question?	38122029	1472852865939	1472852866068	 	32
73736	802401	Can you supplement the answer to the visa question?	Can you supplement the answer to the visa question?	38122102	1472852866277	1472852866426	q	81
73736	802401	Can you supplement the answer to the visa question?	Can you supplement the answer to the visa question?	38122105	1472852866390	1472852866535	u	85
73736	802401	Can you supplement the answer to the visa question?	Can you supplement the answer to the visa question?	38122108	1472852866817	1472852866939	e	69
73736	802401	Can you supplement the answer to the visa question?	Can you supplement the answer to the visa question?	38122112	1472852867064	1472852867188	s	83
73736	802401	Can you supplement the answer to the visa question?	Can you supplement the answer to the visa question?	38122115	1472852867188	1472852867292	t	84
73736	802401	Can you supplement the answer to the visa question?	Can you supplement the answer to the visa question?	38122214	1472852867314	1472852867538	i	73
73736	802401	Can you supplement the answer to the visa question?	Can you supplement the answer to the visa question?	38122220	1472852867442	1472852867601	o	79
73736	802401	Can you supplement the answer to the visa question?	Can you supplement the answer to the visa question?	38122228	1472852867554	1472852867702	n	78
73736	802401	Can you supplement the answer to the visa question?	Can you supplement the answer to the visa question?	38122240	1472852867717	1472852867826	s	83
73736	802401	Can you supplement the answer to the visa question?	Can you supplement the answer to the visa question?	38122249	1472852868302	1472852868426	BKSP	8
73736	802401	Can you supplement the answer to the visa question?	Can you supplement the answer to the visa question?	38122246	1472852868504	1472852869149	SHIFT	16
73736	802401	Can you supplement the answer to the visa question?	Can you supplement the answer to the visa question?	38122256	1472852869006	1472852869095	?	191
