PARTICIPANT_ID	TEST_SECTION_ID	SENTENCE	USER_INPUT	KEYSTROKE_ID	PRESS_TIME	RELEASE_TIME	LETTER	KEYCODE
74207	808597	The former minister is accused of receiving seven billion lira.	the former minister is accused of receiving seven billion lira	38420068	1472861090442	1472861090665	t	84
74207	808597	The former minister is accused of receiving seven billion lira.	the former minister is accused of receiving seven billion lira	38420071	1472861090664	1472861090666	h	72
74207	808597	The former minister is accused of receiving seven billion lira.	the former minister is accused of receiving seven billion lira	38420075	1472861090666	1472861090754	e	69
74207	808597	The former minister is accused of receiving seven billion lira.	the former minister is accused of receiving seven billion lira	38420079	1472861090720	1472861090825	 	32
74207	808597	The former minister is accused of receiving seven billion lira.	the former minister is accused of receiving seven billion lira	38420084	1472861090854	1472861090965	f	70
74207	808597	The former minister is accused of receiving seven billion lira.	the former minister is accused of receiving seven billion lira	38420094	1472861090976	1472861091047	o	79
74207	808597	The former minister is accused of receiving seven billion lira.	the former minister is accused of receiving seven billion lira	38420095	1472861091076	1472861091188	r	82
74207	808597	The former minister is accused of receiving seven billion lira.	the former minister is accused of receiving seven billion lira	38420096	1472861091198	1472861091276	m	77
74207	808597	The former minister is accused of receiving seven billion lira.	the former minister is accused of receiving seven billion lira	38420097	1472861091288	1472861091359	e	69
74207	808597	The former minister is accused of receiving seven billion lira.	the former minister is accused of receiving seven billion lira	38420125	1472861091425	1472861091570	r	82
74207	808597	The former minister is accused of receiving seven billion lira.	the former minister is accused of receiving seven billion lira	38420098	1472861091487	1472861091539	 	32
74207	808597	The former minister is accused of receiving seven billion lira.	the former minister is accused of receiving seven billion lira	38420129	1472861091647	1472861091699	m	77
74207	808597	The former minister is accused of receiving seven billion lira.	the former minister is accused of receiving seven billion lira	38420131	1472861091791	1472861091873	i	73
74207	808597	The former minister is accused of receiving seven billion lira.	the former minister is accused of receiving seven billion lira	38420135	1472861091961	1472861092039	n	78
74207	808597	The former minister is accused of receiving seven billion lira.	the former minister is accused of receiving seven billion lira	38420139	1472861092131	1472861092212	i	73
74207	808597	The former minister is accused of receiving seven billion lira.	the former minister is accused of receiving seven billion lira	38420141	1472861092242	1472861092350	s	83
74207	808597	The former minister is accused of receiving seven billion lira.	the former minister is accused of receiving seven billion lira	38420161	1472861092397	1472861092465	t	84
74207	808597	The former minister is accused of receiving seven billion lira.	the former minister is accused of receiving seven billion lira	38420165	1472861092460	1472861092555	e	69
74207	808597	The former minister is accused of receiving seven billion lira.	the former minister is accused of receiving seven billion lira	38420172	1472861092621	1472861092769	r	82
74207	808597	The former minister is accused of receiving seven billion lira.	the former minister is accused of receiving seven billion lira	38420169	1472861092683	1472861092761	 	32
74207	808597	The former minister is accused of receiving seven billion lira.	the former minister is accused of receiving seven billion lira	38420174	1472861092979	1472861093042	i	85
74207	808597	The former minister is accused of receiving seven billion lira.	the former minister is accused of receiving seven billion lira	38420216	1472861093079	1472861093213	s	83
74207	808597	The former minister is accused of receiving seven billion lira.	the former minister is accused of receiving seven billion lira	38420217	1472861093397	1472861093478	BKSP	8
74207	808597	The former minister is accused of receiving seven billion lira.	the former minister is accused of receiving seven billion lira	38420218	1472861093544	1472861093626	BKSP	8
74207	808597	The former minister is accused of receiving seven billion lira.	the former minister is accused of receiving seven billion lira	38420220	1472861093913	1472861093994	BKSP	8
74207	808597	The former minister is accused of receiving seven billion lira.	the former minister is accused of receiving seven billion lira	38420224	1472861094178	1472861094264	i	73
74207	808597	The former minister is accused of receiving seven billion lira.	the former minister is accused of receiving seven billion lira	38420228	1472861094241	1472861094379	s	83
74207	808597	The former minister is accused of receiving seven billion lira.	the former minister is accused of receiving seven billion lira	38420234	1472861094400	1472861094479	 	32
74207	808597	The former minister is accused of receiving seven billion lira.	the former minister is accused of receiving seven billion lira	38420241	1472861094483	1472861094587	a	65
74207	808597	The former minister is accused of receiving seven billion lira.	the former minister is accused of receiving seven billion lira	38420252	1472861094702	1472861094795	c	67
74207	808597	The former minister is accused of receiving seven billion lira.	the former minister is accused of receiving seven billion lira	38420253	1472861094858	1472861094951	c	67
74207	808597	The former minister is accused of receiving seven billion lira.	the former minister is accused of receiving seven billion lira	38420254	1472861094962	1472861095066	u	85
74207	808597	The former minister is accused of receiving seven billion lira.	the former minister is accused of receiving seven billion lira	38420255	1472861095077	1472861095159	s	83
74207	808597	The former minister is accused of receiving seven billion lira.	the former minister is accused of receiving seven billion lira	38420256	1472861095226	1472861095319	e	69
74207	808597	The former minister is accused of receiving seven billion lira.	the former minister is accused of receiving seven billion lira	38420280	1472861095383	1472861095535	d	68
74207	808597	The former minister is accused of receiving seven billion lira.	the former minister is accused of receiving seven billion lira	38420275	1472861095448	1472861095527	 	32
74207	808597	The former minister is accused of receiving seven billion lira.	the former minister is accused of receiving seven billion lira	38420286	1472861095658	1472861095727	o	79
74207	808597	The former minister is accused of receiving seven billion lira.	the former minister is accused of receiving seven billion lira	38420290	1472861095711	1472861095802	f	70
74207	808597	The former minister is accused of receiving seven billion lira.	the former minister is accused of receiving seven billion lira	38420295	1472861095842	1472861095919	 	32
74207	808597	The former minister is accused of receiving seven billion lira.	the former minister is accused of receiving seven billion lira	38420344	1472861095900	1472861095972	r	82
74207	808597	The former minister is accused of receiving seven billion lira.	the former minister is accused of receiving seven billion lira	38420347	1472861096057	1472861096151	e	69
74207	808597	The former minister is accused of receiving seven billion lira.	the former minister is accused of receiving seven billion lira	38420350	1472861096258	1472861096395	c	67
74207	808597	The former minister is accused of receiving seven billion lira.	the former minister is accused of receiving seven billion lira	38420353	1472861096605	1472861096687	i	73
74207	808597	The former minister is accused of receiving seven billion lira.	the former minister is accused of receiving seven billion lira	38420354	1472861096878	1472861096985	BKSP	8
74207	808597	The former minister is accused of receiving seven billion lira.	the former minister is accused of receiving seven billion lira	38420356	1472861097022	1472861097138	e	69
74207	808597	The former minister is accused of receiving seven billion lira.	the former minister is accused of receiving seven billion lira	38420358	1472861097148	1472861097230	i	73
74207	808597	The former minister is accused of receiving seven billion lira.	the former minister is accused of receiving seven billion lira	38420370	1472861097263	1472861097403	v	86
74207	808597	The former minister is accused of receiving seven billion lira.	the former minister is accused of receiving seven billion lira	38420373	1472861097362	1472861097444	i	73
74207	808597	The former minister is accused of receiving seven billion lira.	the former minister is accused of receiving seven billion lira	38420374	1472861097532	1472861097636	n	78
74207	808597	The former minister is accused of receiving seven billion lira.	the former minister is accused of receiving seven billion lira	38420377	1472861097651	1472861097740	g	71
74207	808597	The former minister is accused of receiving seven billion lira.	the former minister is accused of receiving seven billion lira	38420378	1472861098001	1472861098109	 	32
74207	808597	The former minister is accused of receiving seven billion lira.	the former minister is accused of receiving seven billion lira	38420404	1472861098082	1472861098194	s	83
74207	808597	The former minister is accused of receiving seven billion lira.	the former minister is accused of receiving seven billion lira	38420406	1472861098261	1472861098355	e	69
74207	808597	The former minister is accused of receiving seven billion lira.	the former minister is accused of receiving seven billion lira	38420408	1472861098442	1472861098532	v	86
74207	808597	The former minister is accused of receiving seven billion lira.	the former minister is accused of receiving seven billion lira	38420410	1472861098639	1472861098787	e	69
74207	808597	The former minister is accused of receiving seven billion lira.	the former minister is accused of receiving seven billion lira	38420412	1472861098720	1472861098799	n	78
74207	808597	The former minister is accused of receiving seven billion lira.	the former minister is accused of receiving seven billion lira	38420414	1472861098898	1472861098977	 	32
74207	808597	The former minister is accused of receiving seven billion lira.	the former minister is accused of receiving seven billion lira	38420425	1472861099138	1472861099253	b	66
74207	808597	The former minister is accused of receiving seven billion lira.	the former minister is accused of receiving seven billion lira	38420427	1472861099237	1472861099294	i	73
74207	808597	The former minister is accused of receiving seven billion lira.	the former minister is accused of receiving seven billion lira	38420429	1472861099427	1472861099475	l	76
74207	808597	The former minister is accused of receiving seven billion lira.	the former minister is accused of receiving seven billion lira	38420431	1472861099560	1472861099630	l	76
74207	808597	The former minister is accused of receiving seven billion lira.	the former minister is accused of receiving seven billion lira	38420433	1472861099737	1472861099793	i	73
74207	808597	The former minister is accused of receiving seven billion lira.	the former minister is accused of receiving seven billion lira	38420442	1472861099881	1472861099974	o	79
74207	808597	The former minister is accused of receiving seven billion lira.	the former minister is accused of receiving seven billion lira	38420443	1472861100102	1472861100155	n	78
74207	808597	The former minister is accused of receiving seven billion lira.	the former minister is accused of receiving seven billion lira	38420444	1472861100254	1472861100332	 	32
74207	808597	The former minister is accused of receiving seven billion lira.	the former minister is accused of receiving seven billion lira	38420446	1472861100461	1472861100532	l	76
74207	808597	The former minister is accused of receiving seven billion lira.	the former minister is accused of receiving seven billion lira	38420448	1472861100616	1472861100698	i	73
74207	808597	The former minister is accused of receiving seven billion lira.	the former minister is accused of receiving seven billion lira	38420455	1472861100682	1472861100731	r	82
74207	808611	More than million landmines lie unexploded in at least 62 countries.	more than million landmines lie unexploded in at least 62 countries	38420684	1472861100860	1472861106030	a	65
74207	808611	More than million landmines lie unexploded in at least 62 countries.	more than million landmines lie unexploded in at least 62 countries	38420547	1472861103256	1472861103308	m	77
74207	808611	More than million landmines lie unexploded in at least 62 countries.	more than million landmines lie unexploded in at least 62 countries	38420549	1472861103422	1472861103515	o	79
74207	808611	More than million landmines lie unexploded in at least 62 countries.	more than million landmines lie unexploded in at least 62 countries	38420553	1472861103586	1472861103701	e	69
74207	808611	More than million landmines lie unexploded in at least 62 countries.	more than million landmines lie unexploded in at least 62 countries	38420557	1472861103741	1472861103768	 	32
74207	808611	More than million landmines lie unexploded in at least 62 countries.	more than million landmines lie unexploded in at least 62 countries	38420561	1472861103797	1472861103930	t	84
74207	808611	More than million landmines lie unexploded in at least 62 countries.	more than million landmines lie unexploded in at least 62 countries	38420617	1472861104051	1472861104130	h	72
74207	808611	More than million landmines lie unexploded in at least 62 countries.	more than million landmines lie unexploded in at least 62 countries	38420620	1472861104391	1472861104472	BKSP	8
74207	808611	More than million landmines lie unexploded in at least 62 countries.	more than million landmines lie unexploded in at least 62 countries	38420625	1472861104538	1472861104620	BKSP	8
74207	808611	More than million landmines lie unexploded in at least 62 countries.	more than million landmines lie unexploded in at least 62 countries	38420628	1472861104686	1472861104768	BKSP	8
74207	808611	More than million landmines lie unexploded in at least 62 countries.	more than million landmines lie unexploded in at least 62 countries	38420630	1472861104834	1472861104941	BKSP	8
74207	808611	More than million landmines lie unexploded in at least 62 countries.	more than million landmines lie unexploded in at least 62 countries	38420635	1472861105025	1472861105092	r	82
74207	808611	More than million landmines lie unexploded in at least 62 countries.	more than million landmines lie unexploded in at least 62 countries	38420639	1472861105178	1472861105274	e	69
74207	808611	More than million landmines lie unexploded in at least 62 countries.	more than million landmines lie unexploded in at least 62 countries	38420643	1472861105265	1472861105345	 	32
74207	808611	More than million landmines lie unexploded in at least 62 countries.	more than million landmines lie unexploded in at least 62 countries	38420646	1472861105374	1472861105486	t	84
74207	808611	More than million landmines lie unexploded in at least 62 countries.	more than million landmines lie unexploded in at least 62 countries	38420679	1472861105673	1472861105777	h	72
74207	808611	More than million landmines lie unexploded in at least 62 countries.	more than million landmines lie unexploded in at least 62 countries	38420683	1472861105928	1472861106017	n	78
74207	808611	More than million landmines lie unexploded in at least 62 countries.	more than million landmines lie unexploded in at least 62 countries	38420689	1472861106099	1472861106229	 	32
74207	808611	More than million landmines lie unexploded in at least 62 countries.	more than million landmines lie unexploded in at least 62 countries	38420692	1472861106513	1472861106605	o	79
74207	808611	More than million landmines lie unexploded in at least 62 countries.	more than million landmines lie unexploded in at least 62 countries	38420695	1472861106734	1472861106812	n	78
74207	808611	More than million landmines lie unexploded in at least 62 countries.	more than million landmines lie unexploded in at least 62 countries	38420759	1472861106824	1472861106961	e	69
74207	808611	More than million landmines lie unexploded in at least 62 countries.	more than million landmines lie unexploded in at least 62 countries	38420762	1472861107318	1472861107374	BKSP	8
74207	808611	More than million landmines lie unexploded in at least 62 countries.	more than million landmines lie unexploded in at least 62 countries	38420764	1472861107462	1472861107543	BKSP	8
74207	808611	More than million landmines lie unexploded in at least 62 countries.	more than million landmines lie unexploded in at least 62 countries	38420766	1472861107609	1472861107717	BKSP	8
74207	808611	More than million landmines lie unexploded in at least 62 countries.	more than million landmines lie unexploded in at least 62 countries	38420768	1472861108181	1472861108236	BKSP	8
74207	808611	More than million landmines lie unexploded in at least 62 countries.	more than million landmines lie unexploded in at least 62 countries	38420770	1472861108346	1472861108402	BKSP	8
74207	808611	More than million landmines lie unexploded in at least 62 countries.	more than million landmines lie unexploded in at least 62 countries	38420772	1472861108689	1472861108771	BKSP	8
74207	808611	More than million landmines lie unexploded in at least 62 countries.	more than million landmines lie unexploded in at least 62 countries	38420776	1472861109021	1472861109099	h	72
74207	808611	More than million landmines lie unexploded in at least 62 countries.	more than million landmines lie unexploded in at least 62 countries	38420782	1472861109110	1472861109307	a	65
74207	808611	More than million landmines lie unexploded in at least 62 countries.	more than million landmines lie unexploded in at least 62 countries	38420780	1472861109205	1472861109295	n	78
74207	808611	More than million landmines lie unexploded in at least 62 countries.	more than million landmines lie unexploded in at least 62 countries	38420783	1472861109399	1472861109477	 	32
74207	808611	More than million landmines lie unexploded in at least 62 countries.	more than million landmines lie unexploded in at least 62 countries	38420793	1472861109562	1472861109640	m	77
74207	808611	More than million landmines lie unexploded in at least 62 countries.	more than million landmines lie unexploded in at least 62 countries	38420796	1472861109732	1472861109813	i	73
74207	808611	More than million landmines lie unexploded in at least 62 countries.	more than million landmines lie unexploded in at least 62 countries	38420799	1472861109901	1472861109994	l	76
74207	808611	More than million landmines lie unexploded in at least 62 countries.	more than million landmines lie unexploded in at least 62 countries	38420804	1472861110057	1472861110150	l	76
74207	808611	More than million landmines lie unexploded in at least 62 countries.	more than million landmines lie unexploded in at least 62 countries	38420806	1472861110367	1472861110448	i	73
74207	808611	More than million landmines lie unexploded in at least 62 countries.	more than million landmines lie unexploded in at least 62 countries	38420830	1472861110536	1472861110629	o	79
74207	808611	More than million landmines lie unexploded in at least 62 countries.	more than million landmines lie unexploded in at least 62 countries	38420834	1472861110714	1472861110792	n	78
74207	808611	More than million landmines lie unexploded in at least 62 countries.	more than million landmines lie unexploded in at least 62 countries	38420837	1472861110891	1472861110969	 	32
74207	808611	More than million landmines lie unexploded in at least 62 countries.	more than million landmines lie unexploded in at least 62 countries	38420839	1472861111076	1472861111147	l	76
74207	808611	More than million landmines lie unexploded in at least 62 countries.	more than million landmines lie unexploded in at least 62 countries	38420840	1472861111151	1472861111255	a	65
74207	808611	More than million landmines lie unexploded in at least 62 countries.	more than million landmines lie unexploded in at least 62 countries	38420847	1472861111273	1472861111352	n	78
74207	808611	More than million landmines lie unexploded in at least 62 countries.	more than million landmines lie unexploded in at least 62 countries	38420852	1472861111385	1472861111533	d	68
74207	808611	More than million landmines lie unexploded in at least 62 countries.	more than million landmines lie unexploded in at least 62 countries	38420854	1472861111466	1472861111545	m	77
74207	808611	More than million landmines lie unexploded in at least 62 countries.	more than million landmines lie unexploded in at least 62 countries	38420857	1472861111637	1472861111719	i	73
74207	808611	More than million landmines lie unexploded in at least 62 countries.	more than million landmines lie unexploded in at least 62 countries	38420861	1472861111808	1472861111885	n	78
74207	808611	More than million landmines lie unexploded in at least 62 countries.	more than million landmines lie unexploded in at least 62 countries	38420880	1472861111844	1472861111901	e	69
74207	808611	More than million landmines lie unexploded in at least 62 countries.	more than million landmines lie unexploded in at least 62 countries	38420887	1472861111987	1472861112157	s	83
74207	808611	More than million landmines lie unexploded in at least 62 countries.	more than million landmines lie unexploded in at least 62 countries	38420883	1472861112063	1472861112123	 	32
74207	808611	More than million landmines lie unexploded in at least 62 countries.	more than million landmines lie unexploded in at least 62 countries	38420891	1472861112260	1472861112309	l	76
74207	808611	More than million landmines lie unexploded in at least 62 countries.	more than million landmines lie unexploded in at least 62 countries	38420896	1472861112416	1472861112497	i	73
74207	808611	More than million landmines lie unexploded in at least 62 countries.	more than million landmines lie unexploded in at least 62 countries	38420900	1472861112505	1472861112598	e	69
74207	808611	More than million landmines lie unexploded in at least 62 countries.	more than million landmines lie unexploded in at least 62 countries	38420925	1472861112638	1472861112716	 	32
74207	808611	More than million landmines lie unexploded in at least 62 countries.	more than million landmines lie unexploded in at least 62 countries	38420927	1472861113088	1472861113166	u	85
74207	808611	More than million landmines lie unexploded in at least 62 countries.	more than million landmines lie unexploded in at least 62 countries	38420929	1472861113236	1472861113314	n	78
74207	808611	More than million landmines lie unexploded in at least 62 countries.	more than million landmines lie unexploded in at least 62 countries	38420934	1472861113273	1472861113353	e	69
74207	808611	More than million landmines lie unexploded in at least 62 countries.	more than million landmines lie unexploded in at least 62 countries	38420959	1472861113482	1472861113627	x	88
74207	808611	More than million landmines lie unexploded in at least 62 countries.	more than million landmines lie unexploded in at least 62 countries	38420938	1472861113544	1472861113604	p	80
74207	808611	More than million landmines lie unexploded in at least 62 countries.	more than million landmines lie unexploded in at least 62 countries	38420960	1472861113708	1472861113778	l	76
74207	808611	More than million landmines lie unexploded in at least 62 countries.	more than million landmines lie unexploded in at least 62 countries	38420961	1472861113863	1472861113934	o	79
74207	808611	More than million landmines lie unexploded in at least 62 countries.	more than million landmines lie unexploded in at least 62 countries	38420962	1472861113893	1472861113965	d	68
74207	808611	More than million landmines lie unexploded in at least 62 countries.	more than million landmines lie unexploded in at least 62 countries	38420963	1472861114073	1472861114143	e	69
74207	808611	More than million landmines lie unexploded in at least 62 countries.	more than million landmines lie unexploded in at least 62 countries	38421014	1472861114207	1472861114378	d	68
74207	808611	More than million landmines lie unexploded in at least 62 countries.	more than million landmines lie unexploded in at least 62 countries	38420966	1472861114294	1472861114347	 	32
74207	808611	More than million landmines lie unexploded in at least 62 countries.	more than million landmines lie unexploded in at least 62 countries	38421016	1472861114477	1472861114558	i	73
74207	808611	More than million landmines lie unexploded in at least 62 countries.	more than million landmines lie unexploded in at least 62 countries	38421018	1472861114646	1472861114725	n	78
74207	808611	More than million landmines lie unexploded in at least 62 countries.	more than million landmines lie unexploded in at least 62 countries	38421020	1472861114846	1472861114927	 	32
74207	808611	More than million landmines lie unexploded in at least 62 countries.	more than million landmines lie unexploded in at least 62 countries	38421023	1472861114901	1472861115011	a	65
74207	808611	More than million landmines lie unexploded in at least 62 countries.	more than million landmines lie unexploded in at least 62 countries	38421027	1472861115127	1472861115220	t	84
74207	808611	More than million landmines lie unexploded in at least 62 countries.	more than million landmines lie unexploded in at least 62 countries	38421053	1472861115211	1472861115291	 	32
74207	808611	More than million landmines lie unexploded in at least 62 countries.	more than million landmines lie unexploded in at least 62 countries	38421057	1472861115398	1472861115491	l	76
74207	808611	More than million landmines lie unexploded in at least 62 countries.	more than million landmines lie unexploded in at least 62 countries	38421060	1472861115428	1472861115500	e	69
74207	808611	More than million landmines lie unexploded in at least 62 countries.	more than million landmines lie unexploded in at least 62 countries	38421064	1472861115607	1472861115686	a	65
74207	808611	More than million landmines lie unexploded in at least 62 countries.	more than million landmines lie unexploded in at least 62 countries	38421068	1472861115756	1472861115889	s	83
74207	808611	More than million landmines lie unexploded in at least 62 countries.	more than million landmines lie unexploded in at least 62 countries	38421095	1472861115840	1472861115916	t	84
74207	808611	More than million landmines lie unexploded in at least 62 countries.	more than million landmines lie unexploded in at least 62 countries	38421098	1472861116022	1472861116100	 	32
74207	808611	More than million landmines lie unexploded in at least 62 countries.	more than million landmines lie unexploded in at least 62 countries	38421101	1472861116472	1472861116550	6	54
74207	808611	More than million landmines lie unexploded in at least 62 countries.	more than million landmines lie unexploded in at least 62 countries	38421104	1472861116561	1472861116695	2	50
74207	808611	More than million landmines lie unexploded in at least 62 countries.	more than million landmines lie unexploded in at least 62 countries	38421107	1472861116717	1472861116795	 	32
74207	808611	More than million landmines lie unexploded in at least 62 countries.	more than million landmines lie unexploded in at least 62 countries	38421115	1472861116888	1472861117070	c	67
74207	808611	More than million landmines lie unexploded in at least 62 countries.	more than million landmines lie unexploded in at least 62 countries	38421109	1472861116968	1472861117061	o	79
74207	808611	More than million landmines lie unexploded in at least 62 countries.	more than million landmines lie unexploded in at least 62 countries	38421117	1472861117147	1472861117226	u	85
74207	808611	More than million landmines lie unexploded in at least 62 countries.	more than million landmines lie unexploded in at least 62 countries	38421118	1472861117295	1472861117399	n	78
74207	808611	More than million landmines lie unexploded in at least 62 countries.	more than million landmines lie unexploded in at least 62 countries	38421119	1472861117335	1472861117437	t	84
74207	808611	More than million landmines lie unexploded in at least 62 countries.	more than million landmines lie unexploded in at least 62 countries	38421121	1472861117502	1472861117592	r	82
74207	808611	More than million landmines lie unexploded in at least 62 countries.	more than million landmines lie unexploded in at least 62 countries	38421124	1472861117625	1472861117706	i	73
74207	808611	More than million landmines lie unexploded in at least 62 countries.	more than million landmines lie unexploded in at least 62 countries	38421136	1472861117688	1472861117789	e	69
74207	808625	Hope you had a good weekend.	hope you have a good weekend	38421250	1472861121300	1472861121430	h	72
74207	808625	Hope you had a good weekend.	hope you have a good weekend	38421253	1472861121406	1472861121460	o	79
74207	808625	Hope you had a good weekend.	hope you have a good weekend	38421255	1472861121559	1472861121637	p	80
74207	808625	Hope you had a good weekend.	hope you have a good weekend	38421259	1472861121656	1472861121775	e	69
74207	808625	Hope you had a good weekend.	hope you have a good weekend	38421275	1472861121766	1472861121846	 	32
74207	808625	Hope you had a good weekend.	hope you have a good weekend	38421276	1472861121886	1472861122015	y	89
74207	808625	Hope you had a good weekend.	hope you have a good weekend	38421277	1472861121966	1472861122046	o	79
74207	808625	Hope you had a good weekend.	hope you have a good weekend	38421279	1472861122130	1472861122208	u	85
74207	808625	Hope you had a good weekend.	hope you have a good weekend	38421282	1472861122307	1472861122360	 	32
74207	808625	Hope you had a good weekend.	hope you have a good weekend	38421285	1472861122488	1472861122570	h	72
74207	808625	Hope you had a good weekend.	hope you have a good weekend	38421305	1472861122551	1472861122634	a	65
74207	808625	Hope you had a good weekend.	hope you have a good weekend	38421310	1472861122663	1472861122730	v	86
74207	808625	Hope you had a good weekend.	hope you have a good weekend	38421318	1472861122749	1472861122821	e	69
74207	808625	Hope you had a good weekend.	hope you have a good weekend	38421322	1472861122839	1472861122943	 	32
74207	808625	Hope you had a good weekend.	hope you have a good weekend	38421325	1472861122946	1472861123054	a	65
74207	808625	Hope you had a good weekend.	hope you have a good weekend	38421349	1472861123049	1472861123133	 	32
74207	808625	Hope you had a good weekend.	hope you have a good weekend	38421353	1472861123162	1472861123251	g	71
74207	808625	Hope you had a good weekend.	hope you have a good weekend	38421357	1472861123262	1472861123333	o	79
74207	808625	Hope you had a good weekend.	hope you have a good weekend	38421364	1472861123395	1472861123488	o	79
74207	808625	Hope you had a good weekend.	hope you have a good weekend	38421372	1472861123493	1472861123608	d	68
74207	808625	Hope you had a good weekend.	hope you have a good weekend	38421380	1472861123626	1472861123704	 	32
74207	808625	Hope you had a good weekend.	hope you have a good weekend	38421396	1472861123708	1472861123790	w	87
74207	808625	Hope you had a good weekend.	hope you have a good weekend	38421398	1472861123879	1472861123950	e	69
74207	808625	Hope you had a good weekend.	hope you have a good weekend	38421399	1472861124013	1472861124132	e	69
74207	808625	Hope you had a good weekend.	hope you have a good weekend	38421401	1472861124116	1472861124199	k	75
74207	808625	Hope you had a good weekend.	hope you have a good weekend	38421402	1472861124207	1472861124323	e	69
74207	808625	Hope you had a good weekend.	hope you have a good weekend	38421409	1472861124333	1472861124412	n	78
74207	808625	Hope you had a good weekend.	hope you have a good weekend	38421411	1472861124396	1472861124538	d	68
74207	808628	Will let you know how call goes in morning.	will let you know how call goss in morning.	38421621	1472861129500	1472861129688	w	87
74207	808628	Will let you know how call goes in morning.	will let you know how call goss in morning.	38421623	1472861129672	1472861129733	i	73
74207	808628	Will let you know how call goes in morning.	will let you know how call goss in morning.	38421625	1472861129843	1472861129914	l	76
74207	808628	Will let you know how call goes in morning.	will let you know how call goss in morning.	38421627	1472861129977	1472861130069	l	76
74207	808628	Will let you know how call goes in morning.	will let you know how call goss in morning.	38421629	1472861130139	1472861130217	 	32
74207	808628	Will let you know how call goes in morning.	will let you know how call goss in morning.	38421646	1472861130324	1472861130417	l	76
74207	808628	Will let you know how call goes in morning.	will let you know how call goss in morning.	38421648	1472861130354	1472861130448	e	69
74207	808628	Will let you know how call goes in morning.	will let you know how call goss in morning.	38421651	1472861130536	1472861130658	t	84
74207	808628	Will let you know how call goes in morning.	will let you know how call goss in morning.	38421652	1472861130598	1472861130703	 	32
74207	808628	Will let you know how call goes in morning.	will let you know how call goss in morning.	38421653	1472861130743	1472861130847	y	89
74207	808628	Will let you know how call goes in morning.	will let you know how call goss in morning.	38421665	1472861130824	1472861130877	o	79
74207	808628	Will let you know how call goes in morning.	will let you know how call goss in morning.	38421667	1472861130961	1472861131040	u	85
74207	808628	Will let you know how call goes in morning.	will let you know how call goss in morning.	38421671	1472861131161	1472861131214	 	32
74207	808628	Will let you know how call goes in morning.	will let you know how call goss in morning.	38421675	1472861131342	1472861131424	k	75
74207	808628	Will let you know how call goes in morning.	will let you know how call goss in morning.	38421678	1472861131511	1472861131564	n	78
74207	808628	Will let you know how call goes in morning.	will let you know how call goss in morning.	38421682	1472861131678	1472861131775	o	79
74207	808628	Will let you know how call goes in morning.	will let you know how call goss in morning.	38421688	1472861131752	1472861131860	w	87
74207	808628	Will let you know how call goes in morning.	will let you know how call goss in morning.	38421689	1472861131882	1472861131935	 	32
74207	808628	Will let you know how call goes in morning.	will let you know how call goss in morning.	38421690	1472861131975	1472861132053	h	72
74207	808628	Will let you know how call goes in morning.	will let you know how call goss in morning.	38421691	1472861132079	1472861132149	o	79
74207	808628	Will let you know how call goes in morning.	will let you know how call goss in morning.	38421692	1472861132198	1472861132312	w	87
74207	808628	Will let you know how call goes in morning.	will let you know how call goss in morning.	38421708	1472861132274	1472861132387	 	32
74207	808628	Will let you know how call goes in morning.	will let you know how call goss in morning.	38421710	1472861132413	1472861132484	c	67
74207	808628	Will let you know how call goes in morning.	will let you know how call goss in morning.	38421718	1472861132591	1472861132799	a	65
74207	808628	Will let you know how call goes in morning.	will let you know how call goss in morning.	38421712	1472861132686	1472861132768	l	76
74207	808628	Will let you know how call goes in morning.	will let you know how call goss in morning.	38421723	1472861132818	1472861132910	l	76
74207	808628	Will let you know how call goes in morning.	will let you know how call goss in morning.	38421729	1472861133024	1472861133102	 	32
74207	808628	Will let you know how call goes in morning.	will let you know how call goss in morning.	38421766	1472861133286	1472861133398	g	71
74207	808628	Will let you know how call goes in morning.	will let you know how call goss in morning.	38421770	1472861133431	1472861133523	o	79
74207	808628	Will let you know how call goes in morning.	will let you know how call goss in morning.	38421776	1472861133528	1472861133644	e	69
74207	808628	Will let you know how call goes in morning.	will let you know how call goss in morning.	38421817	1472861133873	1472861134018	s	83
74207	808628	Will let you know how call goes in morning.	will let you know how call goss in morning.	38421786	1472861133950	1472861134010	 	32
74207	808628	Will let you know how call goes in morning.	will let you know how call goss in morning.	38421819	1472861134121	1472861134203	i	73
74207	808628	Will let you know how call goes in morning.	will let you know how call goss in morning.	38421821	1472861134291	1472861134369	n	78
74207	808628	Will let you know how call goes in morning.	will let you know how call goss in morning.	38421822	1472861134446	1472861134524	 	32
74207	808628	Will let you know how call goes in morning.	will let you know how call goss in morning.	38421823	1472861134608	1472861134661	m	77
74207	808628	Will let you know how call goes in morning.	will let you know how call goss in morning.	38421824	1472861134753	1472861134845	o	79
74207	808628	Will let you know how call goes in morning.	will let you know how call goss in morning.	38421852	1472861134830	1472861134967	r	82
74207	808628	Will let you know how call goes in morning.	will let you know how call goss in morning.	38421855	1472861134952	1472861135031	n	78
74207	808628	Will let you know how call goes in morning.	will let you know how call goss in morning.	38421858	1472861135101	1472861135182	i	73
74207	808628	Will let you know how call goes in morning.	will let you know how call goss in morning.	38421862	1472861135270	1472861135323	n	78
74207	808628	Will let you know how call goes in morning.	will let you know how call goss in morning.	38421867	1472861135359	1472861135471	g	71
74207	808628	Will let you know how call goes in morning.	will let you know how call goss in morning.	38421869	1472861135482	1472861135552	.	190
74207	808638	Are we ready for this on Monday?	are we ready for this on monday.	38421961	1472861137910	1472861138015	a	65
74207	808638	Are we ready for this on Monday?	are we ready for this on monday.	38421964	1472861138110	1472861138177	r	82
74207	808638	Are we ready for this on Monday?	are we ready for this on monday.	38421966	1472861138262	1472861138356	e	69
74207	808638	Are we ready for this on Monday?	are we ready for this on monday.	38421971	1472861138395	1472861138500	 	32
74207	808638	Are we ready for this on Monday?	are we ready for this on monday.	38421974	1472861138548	1472861138659	w	87
74207	808638	Are we ready for this on Monday?	are we ready for this on monday.	38421993	1472861138722	1472861138838	e	69
74207	808638	Are we ready for this on Monday?	are we ready for this on monday.	38421996	1472861138856	1472861138934	 	32
74207	808638	Are we ready for this on Monday?	are we ready for this on monday.	38421998	1472861138941	1472861138986	r	82
74207	808638	Are we ready for this on Monday?	are we ready for this on monday.	38421999	1472861139071	1472861139165	e	69
74207	808638	Are we ready for this on Monday?	are we ready for this on monday.	38422000	1472861139271	1472861139350	a	65
74207	808638	Are we ready for this on Monday?	are we ready for this on monday.	38422019	1472861139443	1472861139618	d	68
74207	808638	Are we ready for this on Monday?	are we ready for this on monday.	38422016	1472861139523	1472861139602	y	89
74207	808638	Are we ready for this on Monday?	are we ready for this on monday.	38422025	1472861139702	1472861139780	 	32
74207	808638	Are we ready for this on Monday?	are we ready for this on monday.	38422028	1472861139735	1472861139855	f	70
74207	808638	Are we ready for this on Monday?	are we ready for this on monday.	38422031	1472861139910	1472861139980	o	79
74207	808638	Are we ready for this on Monday?	are we ready for this on monday.	38422038	1472861139964	1472861140054	r	82
74207	808638	Are we ready for this on Monday?	are we ready for this on monday.	38422039	1472861140094	1472861140172	 	32
74207	808638	Are we ready for this on Monday?	are we ready for this on monday.	38422040	1472861140153	1472861140269	t	84
74207	808638	Are we ready for this on Monday?	are we ready for this on monday.	38422041	1472861140279	1472861140358	h	72
74207	808638	Are we ready for this on Monday?	are we ready for this on monday.	38422043	1472861140450	1472861140531	i	73
74207	808638	Are we ready for this on Monday?	are we ready for this on monday.	38422081	1472861140539	1472861140710	s	83
74207	808638	Are we ready for this on Monday?	are we ready for this on monday.	38422045	1472861140641	1472861140701	 	32
74207	808638	Are we ready for this on Monday?	are we ready for this on monday.	38422082	1472861140813	1472861140884	o	79
74207	808638	Are we ready for this on Monday?	are we ready for this on monday.	38422084	1472861140968	1472861141046	n	78
74207	808638	Are we ready for this on Monday?	are we ready for this on monday.	38422085	1472861141167	1472861141246	 	32
74207	808638	Are we ready for this on Monday?	are we ready for this on monday.	38422087	1472861141330	1472861141382	m	77
74207	808638	Are we ready for this on Monday?	are we ready for this on monday.	38422089	1472861141497	1472861141567	o	79
74207	808638	Are we ready for this on Monday?	are we ready for this on monday.	38422092	1472861141652	1472861141731	n	78
74207	808638	Are we ready for this on Monday?	are we ready for this on monday.	38422094	1472861141715	1472861141790	d	68
74207	808638	Are we ready for this on Monday?	are we ready for this on monday.	38422107	1472861141897	1472861142065	a	65
74207	808638	Are we ready for this on Monday?	are we ready for this on monday.	38422101	1472861141992	1472861142052	y	89
74207	808638	Are we ready for this on Monday?	are we ready for this on monday.	38422115	1472861142216	1472861142265	.	190
74207	808645	I wonder if RBS is another institution which could move quickly.	i wonde rif rbs is another institution which culd move quickly	38422208	1472861144968	1472861145024	i	73
74207	808645	I wonder if RBS is another institution which could move quickly.	i wonde rif rbs is another institution which culd move quickly	38422210	1472861145141	1472861145194	 	32
74207	808645	I wonder if RBS is another institution which could move quickly.	i wonde rif rbs is another institution which culd move quickly	38422212	1472861145197	1472861145305	w	87
74207	808645	I wonder if RBS is another institution which could move quickly.	i wonde rif rbs is another institution which culd move quickly	38422215	1472861145320	1472861145391	o	79
74207	808645	I wonder if RBS is another institution which could move quickly.	i wonde rif rbs is another institution which culd move quickly	38422220	1472861145497	1472861145576	n	78
74207	808645	I wonder if RBS is another institution which could move quickly.	i wonde rif rbs is another institution which culd move quickly	38422238	1472861145534	1472861145614	d	68
74207	808645	I wonder if RBS is another institution which could move quickly.	i wonde rif rbs is another institution which culd move quickly	38422241	1472861145699	1472861145770	e	69
74207	808645	I wonder if RBS is another institution which could move quickly.	i wonde rif rbs is another institution which culd move quickly	38422244	1472861145810	1472861145863	 	32
74207	808645	I wonder if RBS is another institution which could move quickly.	i wonde rif rbs is another institution which culd move quickly	38422249	1472861145843	1472861145961	r	82
74207	808645	I wonder if RBS is another institution which could move quickly.	i wonde rif rbs is another institution which culd move quickly	38422252	1472861145992	1472861146074	i	73
74207	808645	I wonder if RBS is another institution which could move quickly.	i wonde rif rbs is another institution which culd move quickly	38422255	1472861146084	1472861146200	f	70
74207	808645	I wonder if RBS is another institution which could move quickly.	i wonde rif rbs is another institution which culd move quickly	38422277	1472861146190	1472861146270	 	32
74207	808645	I wonder if RBS is another institution which could move quickly.	i wonde rif rbs is another institution which culd move quickly	38422280	1472861146343	1472861146476	r	82
74207	808645	I wonder if RBS is another institution which could move quickly.	i wonde rif rbs is another institution which culd move quickly	38422284	1472861146609	1472861146698	b	66
74207	808645	I wonder if RBS is another institution which could move quickly.	i wonde rif rbs is another institution which culd move quickly	38422288	1472861146716	1472861146881	s	83
74207	808645	I wonder if RBS is another institution which could move quickly.	i wonde rif rbs is another institution which culd move quickly	38422292	1472861146871	1472861146928	 	32
74207	808645	I wonder if RBS is another institution which could move quickly.	i wonde rif rbs is another institution which culd move quickly	38422296	1472861147057	1472861147139	i	73
74207	808645	I wonder if RBS is another institution which could move quickly.	i wonde rif rbs is another institution which culd move quickly	38422299	1472861147146	1472861147257	s	83
74207	808645	I wonder if RBS is another institution which could move quickly.	i wonde rif rbs is another institution which culd move quickly	38422300	1472861147248	1472861147332	 	32
74207	808645	I wonder if RBS is another institution which could move quickly.	i wonde rif rbs is another institution which culd move quickly	38422301	1472861147335	1472861147499	a	65
74207	808645	I wonder if RBS is another institution which could move quickly.	i wonde rif rbs is another institution which culd move quickly	38422302	1472861147457	1472861147518	n	78
74207	808645	I wonder if RBS is another institution which could move quickly.	i wonde rif rbs is another institution which culd move quickly	38422303	1472861147632	1472861147703	o	79
74207	808645	I wonder if RBS is another institution which could move quickly.	i wonde rif rbs is another institution which culd move quickly	38422313	1472861147710	1472861147799	t	84
74207	808645	I wonder if RBS is another institution which could move quickly.	i wonde rif rbs is another institution which culd move quickly	38422316	1472861147832	1472861147910	h	72
74207	808645	I wonder if RBS is another institution which could move quickly.	i wonde rif rbs is another institution which culd move quickly	38422319	1472861147921	1472861147993	e	69
74207	808645	I wonder if RBS is another institution which could move quickly.	i wonde rif rbs is another institution which culd move quickly	38422337	1472861148059	1472861148204	r	82
74207	808645	I wonder if RBS is another institution which could move quickly.	i wonde rif rbs is another institution which culd move quickly	38422322	1472861148121	1472861148173	 	32
74207	808645	I wonder if RBS is another institution which could move quickly.	i wonde rif rbs is another institution which culd move quickly	38422338	1472861148413	1472861148495	i	73
74207	808645	I wonder if RBS is another institution which could move quickly.	i wonde rif rbs is another institution which culd move quickly	38422339	1472861148583	1472861148661	n	78
74207	808645	I wonder if RBS is another institution which could move quickly.	i wonde rif rbs is another institution which culd move quickly	38422341	1472861148672	1472861148831	s	83
74207	808645	I wonder if RBS is another institution which could move quickly.	i wonde rif rbs is another institution which culd move quickly	38422344	1472861148782	1472861148858	t	84
74207	808645	I wonder if RBS is another institution which could move quickly.	i wonde rif rbs is another institution which culd move quickly	38422348	1472861149222	1472861149304	i	73
74207	808645	I wonder if RBS is another institution which could move quickly.	i wonde rif rbs is another institution which culd move quickly	38422365	1472861149403	1472861149536	t	84
74207	808645	I wonder if RBS is another institution which could move quickly.	i wonde rif rbs is another institution which culd move quickly	38422366	1472861149591	1472861149670	u	85
74207	808645	I wonder if RBS is another institution which could move quickly.	i wonde rif rbs is another institution which culd move quickly	38422368	1472861149905	1472861150045	t	84
74207	808645	I wonder if RBS is another institution which could move quickly.	i wonde rif rbs is another institution which culd move quickly	38422369	1472861150004	1472861150086	i	73
74207	808645	I wonder if RBS is another institution which could move quickly.	i wonde rif rbs is another institution which culd move quickly	38422371	1472861150153	1472861150246	o	79
74207	808645	I wonder if RBS is another institution which could move quickly.	i wonde rif rbs is another institution which culd move quickly	38422380	1472861150352	1472861150430	n	78
74207	808645	I wonder if RBS is another institution which could move quickly.	i wonde rif rbs is another institution which culd move quickly	38422381	1472861150573	1472861150651	 	32
74207	808645	I wonder if RBS is another institution which could move quickly.	i wonde rif rbs is another institution which culd move quickly	38422383	1472861150766	1472861150959	w	87
74207	808645	I wonder if RBS is another institution which could move quickly.	i wonde rif rbs is another institution which culd move quickly	38422382	1472861150913	1472861150943	h	72
74207	808645	I wonder if RBS is another institution which could move quickly.	i wonde rif rbs is another institution which culd move quickly	38422384	1472861151106	1472861151155	o	79
74207	808645	I wonder if RBS is another institution which could move quickly.	i wonde rif rbs is another institution which culd move quickly	38422421	1472861151181	1472861151325	c	67
74207	808645	I wonder if RBS is another institution which could move quickly.	i wonde rif rbs is another institution which culd move quickly	38422424	1472861151284	1472861151337	h	72
74207	808645	I wonder if RBS is another institution which could move quickly.	i wonde rif rbs is another institution which culd move quickly	38422427	1472861151554	1472861151636	BKSP	8
74207	808645	I wonder if RBS is another institution which could move quickly.	i wonde rif rbs is another institution which culd move quickly	38422430	1472861151702	1472861151810	BKSP	8
74207	808645	I wonder if RBS is another institution which could move quickly.	i wonde rif rbs is another institution which culd move quickly	38422434	1472861151986	1472861152093	BKSP	8
74207	808645	I wonder if RBS is another institution which could move quickly.	i wonde rif rbs is another institution which culd move quickly	38422439	1472861152255	1472861152336	i	73
74207	808645	I wonder if RBS is another institution which could move quickly.	i wonde rif rbs is another institution which culd move quickly	38422471	1472861152389	1472861152541	c	67
74207	808645	I wonder if RBS is another institution which could move quickly.	i wonde rif rbs is another institution which culd move quickly	38422444	1472861152447	1472861152525	h	72
74207	808645	I wonder if RBS is another institution which could move quickly.	i wonde rif rbs is another institution which culd move quickly	38422476	1472861152648	1472861152726	 	32
74207	808645	I wonder if RBS is another institution which could move quickly.	i wonde rif rbs is another institution which culd move quickly	38422480	1472861152730	1472861152890	c	67
74207	808645	I wonder if RBS is another institution which could move quickly.	i wonde rif rbs is another institution which culd move quickly	38422483	1472861152989	1472861153067	u	85
74207	808645	I wonder if RBS is another institution which could move quickly.	i wonde rif rbs is another institution which culd move quickly	38422485	1472861153181	1472861153252	l	76
74207	808645	I wonder if RBS is another institution which could move quickly.	i wonde rif rbs is another institution which culd move quickly	38422489	1472861153279	1472861153422	d	68
74207	808645	I wonder if RBS is another institution which could move quickly.	i wonde rif rbs is another institution which culd move quickly	38422500	1472861153388	1472861153441	 	32
74207	808645	I wonder if RBS is another institution which could move quickly.	i wonde rif rbs is another institution which culd move quickly	38422502	1472861153548	1472861153600	m	77
74207	808645	I wonder if RBS is another institution which could move quickly.	i wonde rif rbs is another institution which culd move quickly	38422503	1472861153692	1472861153807	o	79
74207	808645	I wonder if RBS is another institution which could move quickly.	i wonde rif rbs is another institution which culd move quickly	38422505	1472861153769	1472861153837	v	86
74207	808645	I wonder if RBS is another institution which could move quickly.	i wonde rif rbs is another institution which culd move quickly	38422506	1472861153967	1472861154066	e	69
74207	808645	I wonder if RBS is another institution which could move quickly.	i wonde rif rbs is another institution which culd move quickly	38422546	1472861154032	1472861154112	 	32
74207	808645	I wonder if RBS is another institution which could move quickly.	i wonde rif rbs is another institution which culd move quickly	38422550	1472861154184	1472861154288	a	81
74207	808645	I wonder if RBS is another institution which could move quickly.	i wonde rif rbs is another institution which culd move quickly	38422556	1472861154400	1472861154481	i	73
74207	808645	I wonder if RBS is another institution which could move quickly.	i wonde rif rbs is another institution which culd move quickly	38422563	1472861154673	1472861154728	BKSP	8
74207	808645	I wonder if RBS is another institution which could move quickly.	i wonde rif rbs is another institution which culd move quickly	38422573	1472861154816	1472861154898	BKSP	8
74207	808645	I wonder if RBS is another institution which could move quickly.	i wonde rif rbs is another institution which culd move quickly	38422581	1472861155369	1472861155447	u	85
74207	808645	I wonder if RBS is another institution which could move quickly.	i wonde rif rbs is another institution which culd move quickly	38422589	1472861155517	1472861155599	i	73
74207	808645	I wonder if RBS is another institution which could move quickly.	i wonde rif rbs is another institution which culd move quickly	38422598	1472861155580	1472861155703	c	67
74207	808645	I wonder if RBS is another institution which could move quickly.	i wonde rif rbs is another institution which culd move quickly	38422599	1472861155687	1472861155744	k	75
74207	808645	I wonder if RBS is another institution which could move quickly.	i wonde rif rbs is another institution which culd move quickly	38422601	1472861155832	1472861155903	l	76
74207	808645	I wonder if RBS is another institution which could move quickly.	i wonde rif rbs is another institution which culd move quickly	38422602	1472861155921	1472861156051	y	89
74207	808658	Can you help me here?	can you help me here?	38422734	1472861158147	1472861158218	c	67
74207	808658	Can you help me here?	can you help me here?	38422739	1472861158347	1472861158489	a	65
74207	808658	Can you help me here?	can you help me here?	38422737	1472861158417	1472861158477	n	78
74207	808658	Can you help me here?	can you help me here?	38422740	1472861158581	1472861158634	 	32
74207	808658	Can you help me here?	can you help me here?	38422741	1472861158696	1472861158826	y	89
74207	808658	Can you help me here?	can you help me here?	38422755	1472861158802	1472861158856	o	79
74207	808658	Can you help me here?	can you help me here?	38422757	1472861158940	1472861159018	u	85
74207	808658	Can you help me here?	can you help me here?	38422759	1472861159117	1472861159202	 	32
74207	808658	Can you help me here?	can you help me here?	38422761	1472861159161	1472861159222	h	72
74207	808658	Can you help me here?	can you help me here?	38422783	1472861159344	1472861159482	e	69
74207	808658	Can you help me here?	can you help me here?	38422763	1472861159402	1472861159451	l	76
74207	808658	Can you help me here?	can you help me here?	38422785	1472861159529	1472861159607	p	80
74207	808658	Can you help me here?	can you help me here?	38422787	1472861159714	1472861159792	 	32
74207	808658	Can you help me here?	can you help me here?	38422789	1472861159854	1472861159959	m	77
74207	808658	Can you help me here?	can you help me here?	38422791	1472861159943	1472861160045	e	69
74207	808658	Can you help me here?	can you help me here?	38422806	1472861160036	1472861160115	 	32
74207	808658	Can you help me here?	can you help me here?	38422809	1472861160222	1472861160300	h	72
74207	808658	Can you help me here?	can you help me here?	38422813	1472861160259	1472861160317	e	69
74207	808658	Can you help me here?	can you help me here?	38422817	1472861160405	1472861160450	r	82
74207	808658	Can you help me here?	can you help me here?	38422821	1472861160535	1472861160660	e	69
74207	808658	Can you help me here?	can you help me here?	38422823	1472861160601	1472861160762	SHIFT	16
74207	808662	Tiger Woods is set to answer your questions.	tiger woods is set to answer your questions.	38422957	1472861163008	1472861163097	t	84
74207	808662	Tiger Woods is set to answer your questions.	tiger woods is set to answer your questions.	38422959	1472861163108	1472861163190	i	73
74207	808662	Tiger Woods is set to answer your questions.	tiger woods is set to answer your questions.	38422962	1472861163225	1472861163269	f	71
74207	808662	Tiger Woods is set to answer your questions.	tiger woods is set to answer your questions.	38422967	1472861163804	1472861163860	BKSP	8
74207	808662	Tiger Woods is set to answer your questions.	tiger woods is set to answer your questions.	38422972	1472861164030	1472861164123	e	69
74207	808662	Tiger Woods is set to answer your questions.	tiger woods is set to answer your questions.	38422997	1472861164189	1472861164285	r	82
74207	808662	Tiger Woods is set to answer your questions.	tiger woods is set to answer your questions.	38422998	1472861164251	1472861164330	 	32
74207	808662	Tiger Woods is set to answer your questions.	tiger woods is set to answer your questions.	38423000	1472861164378	1472861164512	w	87
74207	808662	Tiger Woods is set to answer your questions.	tiger woods is set to answer your questions.	38423002	1472861164474	1472861164553	o	79
74207	808662	Tiger Woods is set to answer your questions.	tiger woods is set to answer your questions.	38423004	1472861164594	1472861164731	o	79
74207	808662	Tiger Woods is set to answer your questions.	tiger woods is set to answer your questions.	38423016	1472861164646	1472861164740	d	68
74207	808662	Tiger Woods is set to answer your questions.	tiger woods is set to answer your questions.	38423019	1472861164825	1472861164974	s	83
74207	808662	Tiger Woods is set to answer your questions.	tiger woods is set to answer your questions.	38423018	1472861164876	1472861164966	 	32
74207	808662	Tiger Woods is set to answer your questions.	tiger woods is set to answer your questions.	38423020	1472861165055	1472861165140	i	73
74207	808662	Tiger Woods is set to answer your questions.	tiger woods is set to answer your questions.	38423022	1472861165117	1472861165229	s	83
74207	808662	Tiger Woods is set to answer your questions.	tiger woods is set to answer your questions.	38423026	1472861165251	1472861165333	 	32
74207	808662	Tiger Woods is set to answer your questions.	tiger woods is set to answer your questions.	38423049	1472861165306	1472861165393	s	83
74207	808662	Tiger Woods is set to answer your questions.	tiger woods is set to answer your questions.	38423050	1472861165504	1472861165597	e	69
74207	808662	Tiger Woods is set to answer your questions.	tiger woods is set to answer your questions.	38423051	1472861165663	1472861165797	t	84
74207	808662	Tiger Woods is set to answer your questions.	tiger woods is set to answer your questions.	38423052	1472861165814	1472861165867	 	32
74207	808662	Tiger Woods is set to answer your questions.	tiger woods is set to answer your questions.	38423053	1472861165874	1472861166008	t	84
74207	808662	Tiger Woods is set to answer your questions.	tiger woods is set to answer your questions.	38423054	1472861166018	1472861166089	o	79
74207	808662	Tiger Woods is set to answer your questions.	tiger woods is set to answer your questions.	38423076	1472861166181	1472861166263	 	32
74207	808662	Tiger Woods is set to answer your questions.	tiger woods is set to answer your questions.	38423079	1472861166236	1472861166345	a	65
74207	808662	Tiger Woods is set to answer your questions.	tiger woods is set to answer your questions.	38423084	1472861166385	1472861166463	n	78
74207	808662	Tiger Woods is set to answer your questions.	tiger woods is set to answer your questions.	38423089	1472861166475	1472861166557	s	83
74207	808662	Tiger Woods is set to answer your questions.	tiger woods is set to answer your questions.	38423090	1472861166645	1472861166753	w	87
74207	808662	Tiger Woods is set to answer your questions.	tiger woods is set to answer your questions.	38423113	1472861166842	1472861166958	e	69
74207	808662	Tiger Woods is set to answer your questions.	tiger woods is set to answer your questions.	38423117	1472861167023	1472861167135	r	82
74207	808662	Tiger Woods is set to answer your questions.	tiger woods is set to answer your questions.	38423120	1472861167153	1472861167231	 	32
74207	808662	Tiger Woods is set to answer your questions.	tiger woods is set to answer your questions.	38423122	1472861167294	1472861167397	y	89
74207	808662	Tiger Woods is set to answer your questions.	tiger woods is set to answer your questions.	38423146	1472861167374	1472861167449	o	79
74207	808662	Tiger Woods is set to answer your questions.	tiger woods is set to answer your questions.	38423148	1472861167534	1472861167638	u	85
74207	808662	Tiger Woods is set to answer your questions.	tiger woods is set to answer your questions.	38423150	1472861167625	1472861167719	r	82
74207	808662	Tiger Woods is set to answer your questions.	tiger woods is set to answer your questions.	38423152	1472861167759	1472861167863	 	32
74207	808662	Tiger Woods is set to answer your questions.	tiger woods is set to answer your questions.	38423153	1472861167911	1472861168067	q	81
74207	808662	Tiger Woods is set to answer your questions.	tiger woods is set to answer your questions.	38423154	1472861168085	1472861168190	u	85
74207	808662	Tiger Woods is set to answer your questions.	tiger woods is set to answer your questions.	38423174	1472861168174	1472861168250	e	69
74207	808662	Tiger Woods is set to answer your questions.	tiger woods is set to answer your questions.	38423179	1472861168335	1472861168417	s	83
74207	808662	Tiger Woods is set to answer your questions.	tiger woods is set to answer your questions.	38423182	1472861168553	1472861168675	t	84
74207	808662	Tiger Woods is set to answer your questions.	tiger woods is set to answer your questions.	38423184	1472861168608	1472861168691	i	73
74207	808662	Tiger Woods is set to answer your questions.	tiger woods is set to answer your questions.	38423186	1472861168779	1472861168849	o	79
74207	808662	Tiger Woods is set to answer your questions.	tiger woods is set to answer your questions.	38423188	1472861168934	1472861169012	n	78
74207	808662	Tiger Woods is set to answer your questions.	tiger woods is set to answer your questions.	38423198	1472861169045	1472861169179	s	83
74207	808662	Tiger Woods is set to answer your questions.	tiger woods is set to answer your questions.	38423201	1472861169194	1472861169264	.	190
74207	808669	Let me know if there are any other problems with this.	let me know if there are any other problems with this.	38423351	1472861172605	1472861172698	l	76
74207	808669	Let me know if there are any other problems with this.	let me know if there are any other problems with this.	38423354	1472861172679	1472861172751	e	69
74207	808669	Let me know if there are any other problems with this.	let me know if there are any other problems with this.	38423357	1472861172839	1472861172966	t	84
74207	808669	Let me know if there are any other problems with this.	let me know if there are any other problems with this.	38423355	1472861172879	1472861172957	 	32
74207	808669	Let me know if there are any other problems with this.	let me know if there are any other problems with this.	38423359	1472861173065	1472861173144	m	77
74207	808669	Let me know if there are any other problems with this.	let me know if there are any other problems with this.	38423384	1472861173128	1472861173307	e	69
74207	808669	Let me know if there are any other problems with this.	let me know if there are any other problems with this.	38423382	1472861173220	1472861173299	 	32
74207	808669	Let me know if there are any other problems with this.	let me know if there are any other problems with this.	38423387	1472861173407	1472861173488	k	75
74207	808669	Let me know if there are any other problems with this.	let me know if there are any other problems with this.	38423390	1472861173577	1472861173654	n	78
74207	808669	Let me know if there are any other problems with this.	let me know if there are any other problems with this.	38423391	1472861173769	1472861173840	o	79
74207	808669	Let me know if there are any other problems with this.	let me know if there are any other problems with this.	38423394	1472861173865	1472861174006	w	87
74207	808669	Let me know if there are any other problems with this.	let me know if there are any other problems with this.	38423409	1472861173970	1472861174029	 	32
74207	808669	Let me know if there are any other problems with this.	let me know if there are any other problems with this.	38423412	1472861174139	1472861174242	i	73
74207	808669	Let me know if there are any other problems with this.	let me know if there are any other problems with this.	38423414	1472861174201	1472861174298	f	70
74207	808669	Let me know if there are any other problems with this.	let me know if there are any other problems with this.	38423416	1472861174338	1472861174416	 	32
74207	808669	Let me know if there are any other problems with this.	let me know if there are any other problems with this.	38423417	1472861174534	1472861174623	t	84
74207	808669	Let me know if there are any other problems with this.	let me know if there are any other problems with this.	38423418	1472861174634	1472861174712	h	72
74207	808669	Let me know if there are any other problems with this.	let me know if there are any other problems with this.	38423419	1472861174746	1472861174817	e	69
74207	808669	Let me know if there are any other problems with this.	let me know if there are any other problems with this.	38423420	1472861174883	1472861174928	r	82
74207	808669	Let me know if there are any other problems with this.	let me know if there are any other problems with this.	38423426	1472861175013	1472861175162	e	69
74207	808669	Let me know if there are any other problems with this.	let me know if there are any other problems with this.	38423422	1472861175101	1472861175154	 	32
74207	808669	Let me know if there are any other problems with this.	let me know if there are any other problems with this.	38423430	1472861175261	1472861175369	i	73
74207	808669	Let me know if there are any other problems with this.	let me know if there are any other problems with this.	38423456	1472861175604	1472861175719	BKSP	8
74207	808669	Let me know if there are any other problems with this.	let me know if there are any other problems with this.	38423457	1472861175674	1472861175786	a	65
74207	808669	Let me know if there are any other problems with this.	let me know if there are any other problems with this.	38423460	1472861175882	1472861175949	r	82
74207	808669	Let me know if there are any other problems with this.	let me know if there are any other problems with this.	38423463	1472861176034	1472861176138	e	69
74207	808669	Let me know if there are any other problems with this.	let me know if there are any other problems with this.	38423466	1472861176078	1472861176183	 	32
74207	808669	Let me know if there are any other problems with this.	let me know if there are any other problems with this.	38423478	1472861176253	1472861176421	a	65
74207	808669	Let me know if there are any other problems with this.	let me know if there are any other problems with this.	38423469	1472861176348	1472861176408	n	78
74207	808669	Let me know if there are any other problems with this.	let me know if there are any other problems with this.	38423481	1472861176483	1472861176587	y	89
74207	808669	Let me know if there are any other problems with this.	let me know if there are any other problems with this.	38423485	1472861176686	1472861176739	 	32
74207	808669	Let me know if there are any other problems with this.	let me know if there are any other problems with this.	38423490	1472861176845	1472861176938	o	79
74207	808669	Let me know if there are any other problems with this.	let me know if there are any other problems with this.	38423495	1472861176922	1472861177034	t	84
74207	808669	Let me know if there are any other problems with this.	let me know if there are any other problems with this.	38423499	1472861177045	1472861177149	h	72
74207	808669	Let me know if there are any other problems with this.	let me know if there are any other problems with this.	38423527	1472861177160	1472861177191	w	87
74207	808669	Let me know if there are any other problems with this.	let me know if there are any other problems with this.	38423533	1472861177304	1472861177431	r	82
74207	808669	Let me know if there are any other problems with this.	let me know if there are any other problems with this.	38423530	1472861177344	1472861177423	 	32
74207	808669	Let me know if there are any other problems with this.	let me know if there are any other problems with this.	38423537	1472861177589	1472861177671	BKSP	8
74207	808669	Let me know if there are any other problems with this.	let me know if there are any other problems with this.	38423540	1472861177759	1472861177840	BKSP	8
74207	808669	Let me know if there are any other problems with this.	let me know if there are any other problems with this.	38423543	1472861177906	1472861178014	BKSP	8
74207	808669	Let me know if there are any other problems with this.	let me know if there are any other problems with this.	38423545	1472861178029	1472861178100	e	69
74207	808669	Let me know if there are any other problems with this.	let me know if there are any other problems with this.	38423561	1472861178166	1472861178337	r	82
74207	808669	Let me know if there are any other problems with this.	let me know if there are any other problems with this.	38423546	1472861178228	1472861178306	 	32
74207	808669	Let me know if there are any other problems with this.	let me know if there are any other problems with this.	38423563	1472861178429	1472861178507	p	80
74207	808669	Let me know if there are any other problems with this.	let me know if there are any other problems with this.	38423566	1472861178550	1472861178662	r	82
74207	808669	Let me know if there are any other problems with this.	let me know if there are any other problems with this.	38423568	1472861178673	1472861178766	o	79
74207	808669	Let me know if there are any other problems with this.	let me know if there are any other problems with this.	38423572	1472861178773	1472861178862	b	66
74207	808669	Let me know if there are any other problems with this.	let me know if there are any other problems with this.	38423574	1472861178874	1472861178988	l	76
74207	808669	Let me know if there are any other problems with this.	let me know if there are any other problems with this.	38423592	1472861179021	1472861179136	e	69
74207	808669	Let me know if there are any other problems with this.	let me know if there are any other problems with this.	38423594	1472861179095	1472861179200	m	77
74207	808669	Let me know if there are any other problems with this.	let me know if there are any other problems with this.	38423596	1472861179211	1472861179326	s	83
74207	808669	Let me know if there are any other problems with this.	let me know if there are any other problems with this.	38423598	1472861179288	1472861179375	 	32
74207	808669	Let me know if there are any other problems with this.	let me know if there are any other problems with this.	38423600	1472861179423	1472861179538	w	87
74207	808669	Let me know if there are any other problems with this.	let me know if there are any other problems with this.	38423616	1472861179492	1472861179582	i	73
74207	808669	Let me know if there are any other problems with this.	let me know if there are any other problems with this.	38423618	1472861179615	1472861179759	t	84
74207	808669	Let me know if there are any other problems with this.	let me know if there are any other problems with this.	38423620	1472861179692	1472861179771	h	72
74207	808669	Let me know if there are any other problems with this.	let me know if there are any other problems with this.	38423622	1472861179848	1472861179926	 	32
74207	808669	Let me know if there are any other problems with this.	let me know if there are any other problems with this.	38423623	1472861179933	1472861180096	t	84
74207	808669	Let me know if there are any other problems with this.	let me know if there are any other problems with this.	38423637	1472861180054	1472861180108	h	72
74207	808669	Let me know if there are any other problems with this.	let me know if there are any other problems with this.	38423638	1472861180200	1472861180281	i	73
74207	808669	Let me know if there are any other problems with this.	let me know if there are any other problems with this.	38423640	1472861180291	1472861180474	s	83
74207	808669	Let me know if there are any other problems with this.	let me know if there are any other problems with this.	38423644	1472861180436	1472861180493	.	190
74207	808678	I hope everything worked out okay with your rent.	i hope everything worked out okay without rent	38423802	1472861183687	1472861183742	i	73
74207	808678	I hope everything worked out okay with your rent.	i hope everything worked out okay without rent	38423804	1472861183859	1472861183912	 	32
74207	808678	I hope everything worked out okay with your rent.	i hope everything worked out okay without rent	38423805	1472861183974	1472861184078	h	72
74207	808678	I hope everything worked out okay with your rent.	i hope everything worked out okay without rent	38423806	1472861184104	1472861184153	o	79
74207	808678	I hope everything worked out okay with your rent.	i hope everything worked out okay without rent	38423807	1472861184229	1472861184308	p	80
74207	808678	I hope everything worked out okay with your rent.	i hope everything worked out okay without rent	38423812	1472861184327	1472861184464	e	69
74207	808678	I hope everything worked out okay with your rent.	i hope everything worked out okay without rent	38423814	1472861184504	1472861184582	 	32
74207	808678	I hope everything worked out okay with your rent.	i hope everything worked out okay without rent	38423817	1472861184609	1472861184724	e	69
74207	808678	I hope everything worked out okay with your rent.	i hope everything worked out okay without rent	38423820	1472861184746	1472861184814	v	86
74207	808678	I hope everything worked out okay with your rent.	i hope everything worked out okay without rent	38423841	1472861184809	1472861184859	e	69
74207	808678	I hope everything worked out okay with your rent.	i hope everything worked out okay without rent	38423843	1472861184925	1472861185062	r	82
74207	808678	I hope everything worked out okay with your rent.	i hope everything worked out okay without rent	38423845	1472861185046	1472861185126	y	89
74207	808678	I hope everything worked out okay with your rent.	i hope everything worked out okay without rent	38423848	1472861185162	1472861185333	t	84
74207	808678	I hope everything worked out okay with your rent.	i hope everything worked out okay without rent	38423847	1472861185239	1472861185317	h	72
74207	808678	I hope everything worked out okay with your rent.	i hope everything worked out okay without rent	38423849	1472861185388	1472861185469	i	73
74207	808678	I hope everything worked out okay with your rent.	i hope everything worked out okay without rent	38423861	1472861185579	1472861185632	n	78
74207	808678	I hope everything worked out okay with your rent.	i hope everything worked out okay without rent	38423864	1472861185646	1472861185761	g	71
74207	808678	I hope everything worked out okay with your rent.	i hope everything worked out okay without rent	38423866	1472861185752	1472861185832	 	32
74207	808678	I hope everything worked out okay with your rent.	i hope everything worked out okay without rent	38423868	1472861185880	1472861186014	w	87
74207	808678	I hope everything worked out okay with your rent.	i hope everything worked out okay without rent	38423874	1472861185976	1472861186055	o	79
74207	808678	I hope everything worked out okay with your rent.	i hope everything worked out okay without rent	38423876	1472861186084	1472861186176	r	82
74207	808678	I hope everything worked out okay with your rent.	i hope everything worked out okay without rent	38423878	1472861186161	1472861186243	k	75
74207	808678	I hope everything worked out okay with your rent.	i hope everything worked out okay without rent	38423880	1472861186251	1472861186322	e	69
74207	808678	I hope everything worked out okay with your rent.	i hope everything worked out okay without rent	38423908	1472861186385	1472861186557	d	68
74207	808678	I hope everything worked out okay with your rent.	i hope everything worked out okay without rent	38423882	1472861186452	1472861186504	 	32
74207	808678	I hope everything worked out okay with your rent.	i hope everything worked out okay without rent	38423910	1472861186634	1472861186705	o	79
74207	808678	I hope everything worked out okay with your rent.	i hope everything worked out okay without rent	38423913	1472861186789	1472861186866	u	85
74207	808678	I hope everything worked out okay with your rent.	i hope everything worked out okay without rent	38423915	1472861186829	1472861186926	t	84
74207	808678	I hope everything worked out okay with your rent.	i hope everything worked out okay without rent	38423918	1472861186967	1472861187045	 	32
74207	808678	I hope everything worked out okay with your rent.	i hope everything worked out okay without rent	38423923	1472861187166	1472861187218	0	48
74207	808678	I hope everything worked out okay with your rent.	i hope everything worked out okay without rent	38423948	1472861187340	1472861187395	k	75
74207	808678	I hope everything worked out okay with your rent.	i hope everything worked out okay without rent	38423953	1472861187609	1472861187690	BKSP	8
74207	808678	I hope everything worked out okay with your rent.	i hope everything worked out okay without rent	38423958	1472861187756	1472861187838	BKSP	8
74207	808678	I hope everything worked out okay with your rent.	i hope everything worked out okay without rent	38423963	1472861187934	1472861188004	o	79
74207	808678	I hope everything worked out okay with your rent.	i hope everything worked out okay without rent	38423968	1472861188111	1472861188192	k	75
74207	808678	I hope everything worked out okay with your rent.	i hope everything worked out okay without rent	38423971	1472861188222	1472861188352	a	65
74207	808678	I hope everything worked out okay with your rent.	i hope everything worked out okay without rent	38423973	1472861188370	1472861188448	y	89
74207	808678	I hope everything worked out okay with your rent.	i hope everything worked out okay without rent	38423982	1472861188614	1472861188692	 	32
74207	808678	I hope everything worked out okay with your rent.	i hope everything worked out okay without rent	38423984	1472861188718	1472861188852	w	87
74207	808678	I hope everything worked out okay with your rent.	i hope everything worked out okay without rent	38423986	1472861188888	1472861188970	i	73
74207	808678	I hope everything worked out okay with your rent.	i hope everything worked out okay without rent	38423989	1472861189003	1472861189147	t	84
74207	808678	I hope everything worked out okay with your rent.	i hope everything worked out okay without rent	38424000	1472861189079	1472861189159	h	72
74207	808678	I hope everything worked out okay with your rent.	i hope everything worked out okay without rent	38424003	1472861189273	1472861189343	o	79
74207	808678	I hope everything worked out okay with your rent.	i hope everything worked out okay without rent	38424007	1472861189450	1472861189528	u	85
74207	808678	I hope everything worked out okay with your rent.	i hope everything worked out okay without rent	38424011	1472861189542	1472861189632	t	84
74207	808678	I hope everything worked out okay with your rent.	i hope everything worked out okay without rent	38424016	1472861189650	1472861189728	 	32
74207	808678	I hope everything worked out okay with your rent.	i hope everything worked out okay without rent	38424021	1472861189757	1472861189847	r	82
74207	808678	I hope everything worked out okay with your rent.	i hope everything worked out okay without rent	38424031	1472861189942	1472861190031	e	69
74207	808678	I hope everything worked out okay with your rent.	i hope everything worked out okay without rent	38424033	1472861190012	1472861190092	n	78
74207	808678	I hope everything worked out okay with your rent.	i hope everything worked out okay without rent	38424035	1472861190106	1472861190241	t	84
74207	808686	Can you help get this cleared up?	can you help get this cleared up	38424162	1472861192525	1472861192596	c	67
74207	808686	Can you help get this cleared up?	can you help get this cleared up	38424164	1472861192725	1472861192896	a	65
74207	808686	Can you help get this cleared up?	can you help get this cleared up	38424163	1472861192794	1472861192883	n	78
74207	808686	Can you help get this cleared up?	can you help get this cleared up	38424165	1472861192965	1472861193070	 	32
74207	808686	Can you help get this cleared up?	can you help get this cleared up	38424166	1472861193087	1472861193191	y	89
74207	808686	Can you help get this cleared up?	can you help get this cleared up	38424224	1472861193168	1472861193244	o	79
74207	808686	Can you help get this cleared up?	can you help get this cleared up	38424227	1472861193350	1472861193403	u	85
74207	808686	Can you help get this cleared up?	can you help get this cleared up	38424231	1472861193524	1472861193628	 	32
74207	808686	Can you help get this cleared up?	can you help get this cleared up	38424237	1472861193634	1472861193702	g	71
74207	808686	Can you help get this cleared up?	can you help get this cleared up	38424242	1472861193680	1472861193708	f	70
74207	808686	Can you help get this cleared up?	can you help get this cleared up	38424246	1472861194172	1472861194253	BKSP	8
74207	808686	Can you help get this cleared up?	can you help get this cleared up	38424253	1472861194319	1472861194453	BKSP	8
74207	808686	Can you help get this cleared up?	can you help get this cleared up	38424257	1472861194503	1472861194556	h	72
74207	808686	Can you help get this cleared up?	can you help get this cleared up	38424254	1472861194700	1472861194838	e	69
74207	808686	Can you help get this cleared up?	can you help get this cleared up	38424250	1472861194759	1472861194807	l	76
74207	808686	Can you help get this cleared up?	can you help get this cleared up	38424258	1472861194908	1472861194960	p	80
74207	808686	Can you help get this cleared up?	can you help get this cleared up	38424259	1472861195067	1472861195145	 	32
74207	808686	Can you help get this cleared up?	can you help get this cleared up	38424274	1472861195125	1472861195197	g	71
74207	808686	Can you help get this cleared up?	can you help get this cleared up	38424275	1472861195282	1472861195398	e	69
74207	808686	Can you help get this cleared up?	can you help get this cleared up	38424276	1472861195463	1472861195582	t	84
74207	808686	Can you help get this cleared up?	can you help get this cleared up	38424278	1472861195548	1472861195627	 	32
74207	808686	Can you help get this cleared up?	can you help get this cleared up	38424280	1472861195656	1472861195774	t	84
74207	808686	Can you help get this cleared up?	can you help get this cleared up	38424290	1472861195733	1472861195812	h	72
74207	808686	Can you help get this cleared up?	can you help get this cleared up	38424292	1472861195882	1472861195993	i	73
74207	808686	Can you help get this cleared up?	can you help get this cleared up	38424293	1472861195970	1472861196082	s	83
74207	808686	Can you help get this cleared up?	can you help get this cleared up	38424295	1472861196104	1472861196182	 	32
74207	808686	Can you help get this cleared up?	can you help get this cleared up	38424296	1472861196187	1472861196280	c	67
74207	808686	Can you help get this cleared up?	can you help get this cleared up	38424298	1472861196313	1472861196428	l	76
74207	808686	Can you help get this cleared up?	can you help get this cleared up	38424323	1472861196409	1472861196481	e	69
74207	808686	Can you help get this cleared up?	can you help get this cleared up	38424325	1472861196610	1472861196689	a	65
74207	808686	Can you help get this cleared up?	can you help get this cleared up	38424326	1472861196785	1472861196852	r	82
74207	808686	Can you help get this cleared up?	can you help get this cleared up	38424328	1472861196937	1472861197008	e	69
74207	808686	Can you help get this cleared up?	can you help get this cleared up	38424329	1472861197093	1472861197256	d	68
74207	808686	Can you help get this cleared up?	can you help get this cleared up	38424338	1472861197247	1472861197327	 	32
74207	808686	Can you help get this cleared up?	can you help get this cleared up	38424342	1472861197433	1472861197570	u	85
74207	808686	Can you help get this cleared up?	can you help get this cleared up	38424346	1472861197528	1472861197589	p	80
74207	808686	Can you help get this cleared up?	can you help get this cleared up	38424351	1472861197806	1472861197936	SHIFT	16
74207	808692	If possible, I'd like to get Amy's opinion.	if possible, id like to get a,ys opinion	38424521	1472861202238	1472861202320	i	73
74207	808692	If possible, I'd like to get Amy's opinion.	if possible, id like to get a,ys opinion	38424524	1472861202330	1472861202474	f	70
74207	808692	If possible, I'd like to get Amy's opinion.	if possible, id like to get a,ys opinion	38424528	1472861202414	1472861202494	 	32
74207	808692	If possible, I'd like to get Amy's opinion.	if possible, id like to get a,ys opinion	38424530	1472861202615	1472861202668	p	80
74207	808692	If possible, I'd like to get Amy's opinion.	if possible, id like to get a,ys opinion	38424533	1472861202767	1472861202841	o	79
74207	808692	If possible, I'd like to get Amy's opinion.	if possible, id like to get a,ys opinion	38424552	1472861202818	1472861202875	s	83
74207	808692	If possible, I'd like to get Amy's opinion.	if possible, id like to get a,ys opinion	38424553	1472861202964	1472861203075	s	83
74207	808692	If possible, I'd like to get Amy's opinion.	if possible, id like to get a,ys opinion	38424554	1472861203059	1472861203146	i	73
74207	808692	If possible, I'd like to get Amy's opinion.	if possible, id like to get a,ys opinion	38424555	1472861203156	1472861203246	b	66
74207	808692	If possible, I'd like to get Amy's opinion.	if possible, id like to get a,ys opinion	38424556	1472861203301	1472861203372	l	76
74207	808692	If possible, I'd like to get Amy's opinion.	if possible, id like to get a,ys opinion	38424557	1472861203376	1472861203558	e	69
74207	808692	If possible, I'd like to get Amy's opinion.	if possible, id like to get a,ys opinion	38424569	1472861203900	1472861203982	,	188
74207	808692	If possible, I'd like to get Amy's opinion.	if possible, id like to get a,ys opinion	38424571	1472861204055	1472861204133	 	32
74207	808692	If possible, I'd like to get Amy's opinion.	if possible, id like to get a,ys opinion	38424573	1472861204218	1472861204299	i	73
74207	808692	If possible, I'd like to get Amy's opinion.	if possible, id like to get a,ys opinion	38424574	1472861204307	1472861204448	d	68
74207	808692	If possible, I'd like to get Amy's opinion.	if possible, id like to get a,ys opinion	38424585	1472861204439	1472861204545	 	32
74207	808692	If possible, I'd like to get Amy's opinion.	if possible, id like to get a,ys opinion	38424586	1472861204651	1472861204722	l	76
74207	808692	If possible, I'd like to get Amy's opinion.	if possible, id like to get a,ys opinion	38424587	1472861204806	1472861204888	i	73
74207	808692	If possible, I'd like to get Amy's opinion.	if possible, id like to get a,ys opinion	38424588	1472861204977	1472861205058	k	75
74207	808692	If possible, I'd like to get Amy's opinion.	if possible, id like to get a,ys opinion	38424590	1472861205039	1472861205137	e	69
74207	808692	If possible, I'd like to get Amy's opinion.	if possible, id like to get a,ys opinion	38424592	1472861205154	1472861205233	 	32
74207	808692	If possible, I'd like to get Amy's opinion.	if possible, id like to get a,ys opinion	38424601	1472861205240	1472861205354	t	84
74207	808692	If possible, I'd like to get Amy's opinion.	if possible, id like to get a,ys opinion	38424603	1472861205339	1472861205411	o	79
74207	808692	If possible, I'd like to get Amy's opinion.	if possible, id like to get a,ys opinion	38424604	1472861205525	1472861205577	 	32
74207	808692	If possible, I'd like to get Amy's opinion.	if possible, id like to get a,ys opinion	38424605	1472861205717	1472861205762	g	71
74207	808692	If possible, I'd like to get Amy's opinion.	if possible, id like to get a,ys opinion	38424606	1472861205781	1472861205961	e	69
74207	808692	If possible, I'd like to get Amy's opinion.	if possible, id like to get a,ys opinion	38424619	1472861205894	1472861205964	t	84
74207	808692	If possible, I'd like to get Amy's opinion.	if possible, id like to get a,ys opinion	38424621	1472861206093	1472861206197	 	32
74207	808692	If possible, I'd like to get Amy's opinion.	if possible, id like to get a,ys opinion	38424622	1472861206200	1472861206367	a	65
74207	808692	If possible, I'd like to get Amy's opinion.	if possible, id like to get a,ys opinion	38424623	1472861206297	1472861206390	,	188
74207	808692	If possible, I'd like to get Amy's opinion.	if possible, id like to get a,ys opinion	38424624	1472861206500	1472861206578	y	89
74207	808692	If possible, I'd like to get Amy's opinion.	if possible, id like to get a,ys opinion	38424625	1472861206590	1472861206756	s	83
74207	808692	If possible, I'd like to get Amy's opinion.	if possible, id like to get a,ys opinion	38424636	1472861206718	1472861206779	 	32
74207	808692	If possible, I'd like to get Amy's opinion.	if possible, id like to get a,ys opinion	38424637	1472861206907	1472861206956	o	79
74207	808692	If possible, I'd like to get Amy's opinion.	if possible, id like to get a,ys opinion	38424639	1472861207055	1472861207133	p	80
74207	808692	If possible, I'd like to get Amy's opinion.	if possible, id like to get a,ys opinion	38424640	1472861207233	1472861207314	i	73
74207	808692	If possible, I'd like to get Amy's opinion.	if possible, id like to get a,ys opinion	38424641	1472861207402	1472861207455	n	78
74207	808692	If possible, I'd like to get Amy's opinion.	if possible, id like to get a,ys opinion	38424643	1472861207568	1472861207650	i	73
74207	808692	If possible, I'd like to get Amy's opinion.	if possible, id like to get a,ys opinion	38424649	1472861207716	1472861207787	o	79
74207	808692	If possible, I'd like to get Amy's opinion.	if possible, id like to get a,ys opinion	38424651	1472861207871	1472861207949	n	78
74207	808699	Bob, I'll take Oakland as my winner this week.	bob, ill take oakland as my winner this week	38424756	1472861210738	1472861210827	b	66
74207	808699	Bob, I'll take Oakland as my winner this week.	bob, ill take oakland as my winner this week	38424758	1472861210838	1472861210909	o	79
74207	808699	Bob, I'll take Oakland as my winner this week.	bob, ill take oakland as my winner this week	38424760	1472861210938	1472861211049	b	66
74207	808699	Bob, I'll take Oakland as my winner this week.	bob, ill take oakland as my winner this week	38424762	1472861211126	1472861211208	,	188
74207	808699	Bob, I'll take Oakland as my winner this week.	bob, ill take oakland as my winner this week	38424765	1472861211303	1472861211381	 	32
74207	808699	Bob, I'll take Oakland as my winner this week.	bob, ill take oakland as my winner this week	38424794	1472861211598	1472861211680	i	73
74207	808699	Bob, I'll take Oakland as my winner this week.	bob, ill take oakland as my winner this week	38424796	1472861211790	1472861211883	l	76
74207	808699	Bob, I'll take Oakland as my winner this week.	bob, ill take oakland as my winner this week	38424800	1472861211968	1472861212042	l	76
74207	808699	Bob, I'll take Oakland as my winner this week.	bob, ill take oakland as my winner this week	38424803	1472861212152	1472861212179	 	32
74207	808699	Bob, I'll take Oakland as my winner this week.	bob, ill take oakland as my winner this week	38424806	1472861212186	1472861212253	t	84
74207	808699	Bob, I'll take Oakland as my winner this week.	bob, ill take oakland as my winner this week	38424809	1472861212382	1472861212490	a	65
74207	808699	Bob, I'll take Oakland as my winner this week.	bob, ill take oakland as my winner this week	38424812	1472861212477	1472861212538	k	75
74207	808699	Bob, I'll take Oakland as my winner this week.	bob, ill take oakland as my winner this week	38424822	1472861212568	1472861212717	e	69
74207	808699	Bob, I'll take Oakland as my winner this week.	bob, ill take oakland as my winner this week	38424817	1472861212657	1472861212709	 	32
74207	808699	Bob, I'll take Oakland as my winner this week.	bob, ill take oakland as my winner this week	38424827	1472861212839	1472861212932	o	79
74207	808699	Bob, I'll take Oakland as my winner this week.	bob, ill take oakland as my winner this week	38424847	1472861213002	1472861213195	a	65
74207	808699	Bob, I'll take Oakland as my winner this week.	bob, ill take oakland as my winner this week	38424845	1472861213097	1472861213160	k	75
74207	808699	Bob, I'll take Oakland as my winner this week.	bob, ill take oakland as my winner this week	38424851	1472861213235	1472861213354	l	76
74207	808699	Bob, I'll take Oakland as my winner this week.	bob, ill take oakland as my winner this week	38424856	1472861213331	1472861213462	a	65
74207	808699	Bob, I'll take Oakland as my winner this week.	bob, ill take oakland as my winner this week	38424862	1472861213480	1472861213560	n	78
74207	808699	Bob, I'll take Oakland as my winner this week.	bob, ill take oakland as my winner this week	38424886	1472861213543	1472861213645	d	68
74207	808699	Bob, I'll take Oakland as my winner this week.	bob, ill take oakland as my winner this week	38424888	1472861213636	1472861213741	 	32
74207	808699	Bob, I'll take Oakland as my winner this week.	bob, ill take oakland as my winner this week	38424890	1472861213767	1472861213872	a	65
74207	808699	Bob, I'll take Oakland as my winner this week.	bob, ill take oakland as my winner this week	38424892	1472861213942	1472861214086	s	83
74207	808699	Bob, I'll take Oakland as my winner this week.	bob, ill take oakland as my winner this week	38424894	1472861214019	1472861214109	 	32
74207	808699	Bob, I'll take Oakland as my winner this week.	bob, ill take oakland as my winner this week	38424896	1472861214193	1472861214271	m	77
74207	808699	Bob, I'll take Oakland as my winner this week.	bob, ill take oakland as my winner this week	38424916	1472861214246	1472861214349	y	89
74207	808699	Bob, I'll take Oakland as my winner this week.	bob, ill take oakland as my winner this week	38424919	1472861214360	1472861214438	 	32
74207	808699	Bob, I'll take Oakland as my winner this week.	bob, ill take oakland as my winner this week	38424927	1472861214508	1472861214679	w	87
74207	808699	Bob, I'll take Oakland as my winner this week.	bob, ill take oakland as my winner this week	38424923	1472861214604	1472861214667	i	73
74207	808699	Bob, I'll take Oakland as my winner this week.	bob, ill take oakland as my winner this week	38424931	1472861214759	1472861214837	n	78
74207	808699	Bob, I'll take Oakland as my winner this week.	bob, ill take oakland as my winner this week	38424934	1472861214907	1472861215011	n	78
74207	808699	Bob, I'll take Oakland as my winner this week.	bob, ill take oakland as my winner this week	38424949	1472861215023	1472861215116	d	68
74207	808699	Bob, I'll take Oakland as my winner this week.	bob, ill take oakland as my winner this week	38424951	1472861215201	1472861215294	e	69
74207	808699	Bob, I'll take Oakland as my winner this week.	bob, ill take oakland as my winner this week	38424955	1472861215453	1472861215534	BKSP	8
74207	808699	Bob, I'll take Oakland as my winner this week.	bob, ill take oakland as my winner this week	38424958	1472861215600	1472861215708	BKSP	8
74207	808699	Bob, I'll take Oakland as my winner this week.	bob, ill take oakland as my winner this week	38424961	1472861215670	1472861215750	e	69
74207	808699	Bob, I'll take Oakland as my winner this week.	bob, ill take oakland as my winner this week	38424964	1472861215837	1472861215934	r	82
74207	808699	Bob, I'll take Oakland as my winner this week.	bob, ill take oakland as my winner this week	38424968	1472861215900	1472861215979	 	32
74207	808699	Bob, I'll take Oakland as my winner this week.	bob, ill take oakland as my winner this week	38424969	1472861216030	1472861216148	t	84
74207	808699	Bob, I'll take Oakland as my winner this week.	bob, ill take oakland as my winner this week	38424970	1472861216107	1472861216160	h	72
74207	808699	Bob, I'll take Oakland as my winner this week.	bob, ill take oakland as my winner this week	38424971	1472861216274	1472861216356	i	73
74207	808699	Bob, I'll take Oakland as my winner this week.	bob, ill take oakland as my winner this week	38424972	1472861216363	1472861216474	s	83
74207	808699	Bob, I'll take Oakland as my winner this week.	bob, ill take oakland as my winner this week	38424991	1472861216466	1472861216549	 	32
74207	808699	Bob, I'll take Oakland as my winner this week.	bob, ill take oakland as my winner this week	38424993	1472861216575	1472861216683	w	87
74207	808699	Bob, I'll take Oakland as my winner this week.	bob, ill take oakland as my winner this week	38424995	1472861216750	1472861216843	e	69
74207	808699	Bob, I'll take Oakland as my winner this week.	bob, ill take oakland as my winner this week	38424997	1472861216906	1472861217029	e	69
74207	808699	Bob, I'll take Oakland as my winner this week.	bob, ill take oakland as my winner this week	38425000	1472861216987	1472861217070	k	75
74207	808706	I think Tim wants to move quickly.	i think tim wants to move quickly	38425156	1472861222101	1472861222182	i	73
74207	808706	I think Tim wants to move quickly.	i think tim wants to move quickly	38425158	1472861222278	1472861222356	 	32
74207	808706	I think Tim wants to move quickly.	i think tim wants to move quickly	38425159	1472861222363	1472861222525	t	84
74207	808706	I think Tim wants to move quickly.	i think tim wants to move quickly	38425161	1472861222484	1472861222538	h	72
74207	808706	I think Tim wants to move quickly.	i think tim wants to move quickly	38425164	1472861222651	1472861222707	i	73
74207	808706	I think Tim wants to move quickly.	i think tim wants to move quickly	38425179	1472861222795	1472861222873	n	78
74207	808706	I think Tim wants to move quickly.	i think tim wants to move quickly	38425181	1472861222965	1472861223047	k	75
74207	808706	I think Tim wants to move quickly.	i think tim wants to move quickly	38425182	1472861223120	1472861223174	 	32
74207	808706	I think Tim wants to move quickly.	i think tim wants to move quickly	38425184	1472861223201	1472861223342	t	84
74207	808706	I think Tim wants to move quickly.	i think tim wants to move quickly	38425198	1472861223301	1472861223383	i	73
74207	808706	I think Tim wants to move quickly.	i think tim wants to move quickly	38425200	1472861223449	1472861223527	m	77
74207	808706	I think Tim wants to move quickly.	i think tim wants to move quickly	38425203	1472861223626	1472861223738	 	32
74207	808706	I think Tim wants to move quickly.	i think tim wants to move quickly	38425206	1472861223681	1472861223746	w	87
74207	808706	I think Tim wants to move quickly.	i think tim wants to move quickly	38425211	1472861223834	1472861223913	a	65
74207	808706	I think Tim wants to move quickly.	i think tim wants to move quickly	38425214	1472861223931	1472861224010	n	78
74207	808706	I think Tim wants to move quickly.	i think tim wants to move quickly	38425231	1472861224046	1472861224113	t	84
74207	808706	I think Tim wants to move quickly.	i think tim wants to move quickly	38425235	1472861224220	1472861224391	s	83
74207	808706	I think Tim wants to move quickly.	i think tim wants to move quickly	38425233	1472861224298	1472861224357	 	32
74207	808706	I think Tim wants to move quickly.	i think tim wants to move quickly	38425277	1472861224527	1472861224683	t	84
74207	808706	I think Tim wants to move quickly.	i think tim wants to move quickly	38425237	1472861224604	1472861224675	o	79
74207	808706	I think Tim wants to move quickly.	i think tim wants to move quickly	38425280	1472861224790	1472861224868	 	32
74207	808706	I think Tim wants to move quickly.	i think tim wants to move quickly	38425282	1472861224952	1472861225030	m	77
74207	808706	I think Tim wants to move quickly.	i think tim wants to move quickly	38425283	1472861225122	1472861225215	o	79
74207	808706	I think Tim wants to move quickly.	i think tim wants to move quickly	38425284	1472861225155	1472861225245	v	86
74207	808706	I think Tim wants to move quickly.	i think tim wants to move quickly	38425285	1472861225375	1472861225468	e	69
74207	808706	I think Tim wants to move quickly.	i think tim wants to move quickly	38425291	1472861225486	1472861225564	 	32
74207	808706	I think Tim wants to move quickly.	i think tim wants to move quickly	38425293	1472861225612	1472861225775	q	81
74207	808706	I think Tim wants to move quickly.	i think tim wants to move quickly	38425297	1472861225733	1472861225820	u	85
74207	808706	I think Tim wants to move quickly.	i think tim wants to move quickly	38425301	1472861225890	1472861225972	i	73
74207	808706	I think Tim wants to move quickly.	i think tim wants to move quickly	38425305	1472861226001	1472861226124	c	67
74207	808706	I think Tim wants to move quickly.	i think tim wants to move quickly	38425311	1472861226082	1472861226165	k	75
74207	808706	I think Tim wants to move quickly.	i think tim wants to move quickly	38425313	1472861226253	1472861226324	l	76
74207	808706	I think Tim wants to move quickly.	i think tim wants to move quickly	38425317	1472861226342	1472861226446	y	89
74207	808708	Your fax was busy for a while.	your fax was busy for a while	38425415	1472861228869	1472861228973	y	89
74207	808708	Your fax was busy for a while.	your fax was busy for a while	38425419	1472861228950	1472861229026	o	79
74207	808708	Your fax was busy for a while.	your fax was busy for a while	38425422	1472861229110	1472861229214	u	85
74207	808708	Your fax was busy for a while.	your fax was busy for a while	38425423	1472861229175	1472861229273	r	82
74207	808708	Your fax was busy for a while.	your fax was busy for a while	38425425	1472861229313	1472861229417	 	32
74207	808708	Your fax was busy for a while.	your fax was busy for a while	38425462	1472861229372	1472861229470	f	70
74207	808708	Your fax was busy for a while.	your fax was busy for a while	38425465	1472861229599	1472861229703	a	65
74207	808708	Your fax was busy for a while.	your fax was busy for a while	38425467	1472861229818	1472861229925	x	88
74207	808708	Your fax was busy for a while.	your fax was busy for a while	38425471	1472861229991	1472861230070	 	32
74207	808708	Your fax was busy for a while.	your fax was busy for a while	38425476	1472861230251	1472861230332	w	87
74207	808708	Your fax was busy for a while.	your fax was busy for a while	38425479	1472861230421	1472861230525	a	65
74207	808708	Your fax was busy for a while.	your fax was busy for a while	38425496	1472861230596	1472861230740	s	83
74207	808708	Your fax was busy for a while.	your fax was busy for a while	38425494	1472861230672	1472861230732	 	32
74207	808708	Your fax was busy for a while.	your fax was busy for a while	38425499	1472861230921	1472861231013	b	66
74207	808708	Your fax was busy for a while.	your fax was busy for a while	38425503	1472861230997	1472861231077	u	85
74207	808708	Your fax was busy for a while.	your fax was busy for a while	38425524	1472861231132	1472861231336	s	83
74207	808708	Your fax was busy for a while.	your fax was busy for a while	38425505	1472861231227	1472861231317	y	89
74207	808708	Your fax was busy for a while.	your fax was busy for a while	38425527	1472861231420	1472861231498	 	32
74207	808708	Your fax was busy for a while.	your fax was busy for a while	38425530	1472861231479	1472861231595	f	70
74207	808708	Your fax was busy for a while.	your fax was busy for a while	38425533	1472861231606	1472861231679	o	79
74207	808708	Your fax was busy for a while.	your fax was busy for a while	38425536	1472861231661	1472861231773	r	82
74207	808708	Your fax was busy for a while.	your fax was busy for a while	38425538	1472861231791	1472861231869	 	32
74207	808708	Your fax was busy for a while.	your fax was busy for a while	38425544	1472861231917	1472861232058	a	65
74207	808708	Your fax was busy for a while.	your fax was busy for a while	38425545	1472861231994	1472861232085	 	32
74207	808708	Your fax was busy for a while.	your fax was busy for a while	38425548	1472861232155	1472861232322	w	87
74207	808708	Your fax was busy for a while.	your fax was busy for a while	38425546	1472861232251	1472861232281	h	72
74207	808708	Your fax was busy for a while.	your fax was busy for a while	38425550	1472861232403	1472861232485	i	73
74207	808708	Your fax was busy for a while.	your fax was busy for a while	38425556	1472861232573	1472861232666	l	76
74207	808708	Your fax was busy for a while.	your fax was busy for a while	38425559	1472861232647	1472861232763	e	69
