PARTICIPANT_ID	TEST_SECTION_ID	SENTENCE	USER_INPUT	KEYSTROKE_ID	PRESS_TIME	RELEASE_TIME	LETTER	KEYCODE
79516	868250	Drop him unless you play in a keeper league.	drop him unless you play in a keeper leagua	41286500	1472972760818	1472972760932	d	68
79516	868250	Drop him unless you play in a keeper league.	drop him unless you play in a keeper leagua	41286502	1472972761041	1472972761149	r	82
79516	868250	Drop him unless you play in a keeper league.	drop him unless you play in a keeper leagua	41286504	1472972761165	1472972761251	o	79
79516	868250	Drop him unless you play in a keeper league.	drop him unless you play in a keeper leagua	41286509	1472972761282	1472972761416	p	80
79516	868250	Drop him unless you play in a keeper league.	drop him unless you play in a keeper leagua	41286515	1472972761867	1472972761983	 	32
79516	868250	Drop him unless you play in a keeper league.	drop him unless you play in a keeper leagua	41286558	1472972762230	1472972762317	h	72
79516	868250	Drop him unless you play in a keeper league.	drop him unless you play in a keeper leagua	41286559	1472972762366	1472972762483	i	73
79516	868250	Drop him unless you play in a keeper league.	drop him unless you play in a keeper leagua	41286560	1472972762608	1472972762716	m	77
79516	868250	Drop him unless you play in a keeper league.	drop him unless you play in a keeper leagua	41286561	1472972762810	1472972762918	 	32
79516	868250	Drop him unless you play in a keeper league.	drop him unless you play in a keeper leagua	41286564	1472972763105	1472972763200	u	85
79516	868250	Drop him unless you play in a keeper league.	drop him unless you play in a keeper leagua	41286601	1472972763559	1472972763651	n	78
79516	868250	Drop him unless you play in a keeper league.	drop him unless you play in a keeper leagua	41286603	1472972763760	1472972763898	l	76
79516	868250	Drop him unless you play in a keeper league.	drop him unless you play in a keeper leagua	41286605	1472972763960	1472972764066	e	69
79516	868250	Drop him unless you play in a keeper league.	drop him unless you play in a keeper leagua	41286607	1472972764176	1472972764283	s	83
79516	868250	Drop him unless you play in a keeper league.	drop him unless you play in a keeper leagua	41286609	1472972764361	1472972764451	s	83
79516	868250	Drop him unless you play in a keeper league.	drop him unless you play in a keeper leagua	41286660	1472972764460	1472972764566	 	32
79516	868250	Drop him unless you play in a keeper league.	drop him unless you play in a keeper leagua	41286661	1472972765285	1472972765384	y	89
79516	868250	Drop him unless you play in a keeper league.	drop him unless you play in a keeper leagua	41286662	1472972765415	1472972765516	o	79
79516	868250	Drop him unless you play in a keeper league.	drop him unless you play in a keeper leagua	41286663	1472972765594	1472972765684	u	85
79516	868250	Drop him unless you play in a keeper league.	drop him unless you play in a keeper leagua	41286664	1472972765793	1472972765901	 	32
79516	868250	Drop him unless you play in a keeper league.	drop him unless you play in a keeper leagua	41286704	1472972766082	1472972766197	p	80
79516	868250	Drop him unless you play in a keeper league.	drop him unless you play in a keeper leagua	41286706	1472972766275	1472972766408	l	76
79516	868250	Drop him unless you play in a keeper league.	drop him unless you play in a keeper leagua	41286708	1472972766382	1472972766500	a	65
79516	868250	Drop him unless you play in a keeper league.	drop him unless you play in a keeper leagua	41286710	1472972766609	1472972766685	y	89
79516	868250	Drop him unless you play in a keeper league.	drop him unless you play in a keeper leagua	41286712	1472972766810	1472972766901	 	32
79516	868250	Drop him unless you play in a keeper league.	drop him unless you play in a keeper leagua	41286758	1472972767053	1472972767165	i	73
79516	868250	Drop him unless you play in a keeper league.	drop him unless you play in a keeper leagua	41286760	1472972767290	1472972767368	n	78
79516	868250	Drop him unless you play in a keeper league.	drop him unless you play in a keeper leagua	41286765	1472972767461	1472972767535	 	32
79516	868250	Drop him unless you play in a keeper league.	drop him unless you play in a keeper leagua	41286770	1472972767816	1472972767916	a	65
79516	868250	Drop him unless you play in a keeper league.	drop him unless you play in a keeper leagua	41286775	1472972768166	1472972768251	 	32
79516	868250	Drop him unless you play in a keeper league.	drop him unless you play in a keeper leagua	41286813	1472972768561	1472972768664	k	75
79516	868250	Drop him unless you play in a keeper league.	drop him unless you play in a keeper leagua	41286814	1472972768821	1472972768900	e	69
79516	868250	Drop him unless you play in a keeper league.	drop him unless you play in a keeper leagua	41286815	1472972768994	1472972769067	e	69
79516	868250	Drop him unless you play in a keeper league.	drop him unless you play in a keeper leagua	41286818	1472972769114	1472972769215	p	80
79516	868250	Drop him unless you play in a keeper league.	drop him unless you play in a keeper leagua	41286819	1472972769277	1472972769382	e	69
79516	868250	Drop him unless you play in a keeper league.	drop him unless you play in a keeper leagua	41286881	1472972769456	1472972769550	r	82
79516	868250	Drop him unless you play in a keeper league.	drop him unless you play in a keeper leagua	41286883	1472972769565	1472972769666	 	32
79516	868250	Drop him unless you play in a keeper league.	drop him unless you play in a keeper leagua	41286886	1472972769791	1472972769913	l	76
79516	868250	Drop him unless you play in a keeper league.	drop him unless you play in a keeper leagua	41286888	1472972770431	1472972770532	e	69
79516	868250	Drop him unless you play in a keeper league.	drop him unless you play in a keeper leagua	41286893	1472972770625	1472972770747	a	65
79516	868250	Drop him unless you play in a keeper league.	drop him unless you play in a keeper leagua	41286999	1472972771799	1472972771913	u	85
79516	868250	Drop him unless you play in a keeper league.	drop him unless you play in a keeper leagua	41287000	1472972772385	1472972772482	BKSP	8
79516	868250	Drop him unless you play in a keeper league.	drop him unless you play in a keeper leagua	41287002	1472972772764	1472972772791	g	71
79516	868250	Drop him unless you play in a keeper league.	drop him unless you play in a keeper leagua	41287004	1472972772935	1472972772990	u	85
79516	868250	Drop him unless you play in a keeper league.	drop him unless you play in a keeper leagua	41287006	1472972773003	1472972773114	a	65
79516	868267	But let me know which ones you don't get.	but let me know wich one you dont get	41287269	1472972778676	1472972778750	b	66
79516	868267	But let me know which ones you don't get.	but let me know wich one you dont get	41287272	1472972778797	1472972778913	u	85
79516	868267	But let me know which ones you don't get.	but let me know wich one you dont get	41287276	1472972779085	1472972779181	t	84
79516	868267	But let me know which ones you don't get.	but let me know wich one you dont get	41287279	1472972779228	1472972779331	 	32
79516	868267	But let me know which ones you don't get.	but let me know wich one you dont get	41287281	1472972779659	1472972779780	l	76
79516	868267	But let me know which ones you don't get.	but let me know wich one you dont get	41287320	1472972779840	1472972779932	e	69
79516	868267	But let me know which ones you don't get.	but let me know wich one you dont get	41287323	1472972780088	1472972780197	t	84
79516	868267	But let me know which ones you don't get.	but let me know wich one you dont get	41287328	1472972780260	1472972780365	 	32
79516	868267	But let me know which ones you don't get.	but let me know wich one you dont get	41287334	1472972780521	1472972780614	m	77
79516	868267	But let me know which ones you don't get.	but let me know wich one you dont get	41287339	1472972780677	1472972780780	e	69
79516	868267	But let me know which ones you don't get.	but let me know wich one you dont get	41287399	1472972780813	1472972780930	 	32
79516	868267	But let me know which ones you don't get.	but let me know wich one you dont get	41287403	1472972781744	1472972781816	k	75
79516	868267	But let me know which ones you don't get.	but let me know wich one you dont get	41287408	1472972781941	1472972782016	n	78
79516	868267	But let me know which ones you don't get.	but let me know wich one you dont get	41287414	1472972782109	1472972782197	o	79
79516	868267	But let me know which ones you don't get.	but let me know wich one you dont get	41287419	1472972782295	1472972782413	w	87
79516	868267	But let me know which ones you don't get.	but let me know wich one you dont get	41287461	1472972782461	1472972782565	 	32
79516	868267	But let me know which ones you don't get.	but let me know wich one you dont get	41287462	1472972782721	1472972782830	w	87
79516	868267	But let me know which ones you don't get.	but let me know wich one you dont get	41287463	1472972783129	1472972783214	i	73
79516	868267	But let me know which ones you don't get.	but let me know wich one you dont get	41287464	1472972783811	1472972783929	c	67
79516	868267	But let me know which ones you don't get.	but let me know wich one you dont get	41287466	1472972783976	1472972784033	h	72
79516	868267	But let me know which ones you don't get.	but let me know wich one you dont get	41287506	1472972784166	1472972784265	 	32
79516	868267	But let me know which ones you don't get.	but let me know wich one you dont get	41287507	1472972784405	1472972784513	o	79
79516	868267	But let me know which ones you don't get.	but let me know wich one you dont get	41287509	1472972784591	1472972784681	n	78
79516	868267	But let me know which ones you don't get.	but let me know wich one you dont get	41287512	1472972784774	1472972784880	e	69
79516	868267	But let me know which ones you don't get.	but let me know wich one you dont get	41287515	1472972784880	1472972784983	 	32
79516	868267	But let me know which ones you don't get.	but let me know wich one you dont get	41287594	1472972786031	1472972786129	y	89
79516	868267	But let me know which ones you don't get.	but let me know wich one you dont get	41287595	1472972786176	1472972786311	o	79
79516	868267	But let me know which ones you don't get.	but let me know wich one you dont get	41287596	1472972786389	1472972786479	u	85
79516	868267	But let me know which ones you don't get.	but let me know wich one you dont get	41287597	1472972786636	1472972786730	 	32
79516	868267	But let me know which ones you don't get.	but let me know wich one you dont get	41287598	1472972787044	1472972787146	d	68
79516	868267	But let me know which ones you don't get.	but let me know wich one you dont get	41287674	1472972787198	1472972787286	o	79
79516	868267	But let me know which ones you don't get.	but let me know wich one you dont get	41287677	1472972787431	1472972787513	n	78
79516	868267	But let me know which ones you don't get.	but let me know wich one you dont get	41287678	1472972787663	1472972787763	t	84
79516	868267	But let me know which ones you don't get.	but let me know wich one you dont get	41287679	1472972787778	1472972787879	 	32
79516	868267	But let me know which ones you don't get.	but let me know wich one you dont get	41287681	1472972788725	1472972788830	g	71
79516	868267	But let me know which ones you don't get.	but let me know wich one you dont get	41287774	1472972789880	1472972789979	e	69
79516	868267	But let me know which ones you don't get.	but let me know wich one you dont get	41287776	1472972790229	1472972790298	t	84
79516	868280	Please let me know what days you plan on taking off.	please let me know what days you plan on taking off	41287919	1472972794729	1472972794830	p	80
79516	868280	Please let me know what days you plan on taking off.	please let me know what days you plan on taking off	41287923	1472972794893	1472972795027	l	76
79516	868280	Please let me know what days you plan on taking off.	please let me know what days you plan on taking off	41287927	1472972795074	1472972795179	e	69
79516	868280	Please let me know what days you plan on taking off.	please let me know what days you plan on taking off	41287932	1472972795399	1472972795575	a	65
79516	868280	Please let me know what days you plan on taking off.	please let me know what days you plan on taking off	41287935	1472972795653	1472972795778	s	83
79516	868280	Please let me know what days you plan on taking off.	please let me know what days you plan on taking off	41288039	1472972795868	1472972795994	e	69
79516	868280	Please let me know what days you plan on taking off.	please let me know what days you plan on taking off	41288042	1472972796010	1472972796113	 	32
79516	868280	Please let me know what days you plan on taking off.	please let me know what days you plan on taking off	41288045	1472972797993	1472972798096	l	76
79516	868280	Please let me know what days you plan on taking off.	please let me know what days you plan on taking off	41288049	1472972798158	1472972798278	e	69
79516	868280	Please let me know what days you plan on taking off.	please let me know what days you plan on taking off	41288054	1472972798638	1472972798745	t	84
79516	868280	Please let me know what days you plan on taking off.	please let me know what days you plan on taking off	41288075	1472972798791	1472972798880	 	32
79516	868280	Please let me know what days you plan on taking off.	please let me know what days you plan on taking off	41288076	1472972799067	1472972799162	m	77
79516	868280	Please let me know what days you plan on taking off.	please let me know what days you plan on taking off	41288078	1472972799394	1472972799449	e	69
79516	868280	Please let me know what days you plan on taking off.	please let me know what days you plan on taking off	41288080	1472972799496	1472972799596	 	32
79516	868280	Please let me know what days you plan on taking off.	please let me know what days you plan on taking off	41288082	1472972800379	1472972800463	k	75
79516	868280	Please let me know what days you plan on taking off.	please let me know what days you plan on taking off	41288135	1472972801074	1472972801178	n	78
79516	868280	Please let me know what days you plan on taking off.	please let me know what days you plan on taking off	41288137	1472972801225	1472972801344	o	79
79516	868280	Please let me know what days you plan on taking off.	please let me know what days you plan on taking off	41288139	1472972801375	1472972801463	w	87
79516	868280	Please let me know what days you plan on taking off.	please let me know what days you plan on taking off	41288142	1472972801479	1472972801580	 	32
79516	868280	Please let me know what days you plan on taking off.	please let me know what days you plan on taking off	41288144	1472972801861	1472972801993	w	87
79516	868280	Please let me know what days you plan on taking off.	please let me know what days you plan on taking off	41288186	1472972802191	1472972802295	h	72
79516	868280	Please let me know what days you plan on taking off.	please let me know what days you plan on taking off	41288189	1472972802357	1472972802462	a	65
79516	868280	Please let me know what days you plan on taking off.	please let me know what days you plan on taking off	41288192	1472972802493	1472972802579	t	84
79516	868280	Please let me know what days you plan on taking off.	please let me know what days you plan on taking off	41288195	1472972802704	1472972802813	 	32
79516	868280	Please let me know what days you plan on taking off.	please let me know what days you plan on taking off	41288200	1472972803289	1472972803378	d	68
79516	868280	Please let me know what days you plan on taking off.	please let me know what days you plan on taking off	41288311	1472972803445	1472972803545	a	65
79516	868280	Please let me know what days you plan on taking off.	please let me know what days you plan on taking off	41288314	1472972804908	1472972804995	y	89
79516	868280	Please let me know what days you plan on taking off.	please let me know what days you plan on taking off	41288316	1472972805057	1472972805145	s	83
79516	868280	Please let me know what days you plan on taking off.	please let me know what days you plan on taking off	41288318	1472972805145	1472972805198	 	32
79516	868280	Please let me know what days you plan on taking off.	please let me know what days you plan on taking off	41288320	1472972805997	1472972806125	y	89
79516	868280	Please let me know what days you plan on taking off.	please let me know what days you plan on taking off	41288343	1472972806226	1472972806420	o	79
79516	868280	Please let me know what days you plan on taking off.	please let me know what days you plan on taking off	41288344	1472972806436	1472972806544	u	85
79516	868280	Please let me know what days you plan on taking off.	please let me know what days you plan on taking off	41288345	1472972806731	1472972806775	n	78
79516	868280	Please let me know what days you plan on taking off.	please let me know what days you plan on taking off	41288346	1472972807055	1472972807160	p	80
79516	868280	Please let me know what days you plan on taking off.	please let me know what days you plan on taking off	41288347	1472972807222	1472972807358	l	76
79516	868280	Please let me know what days you plan on taking off.	please let me know what days you plan on taking off	41288415	1472972807388	1472972807509	a	65
79516	868280	Please let me know what days you plan on taking off.	please let me know what days you plan on taking off	41288417	1472972807980	1472972808063	BKSP	8
79516	868280	Please let me know what days you plan on taking off.	please let me know what days you plan on taking off	41288420	1472972808141	1472972808213	BKSP	8
79516	868280	Please let me know what days you plan on taking off.	please let me know what days you plan on taking off	41288423	1472972808306	1472972808379	BKSP	8
79516	868280	Please let me know what days you plan on taking off.	please let me know what days you plan on taking off	41288426	1472972808473	1472972808516	BKSP	8
79516	868280	Please let me know what days you plan on taking off.	please let me know what days you plan on taking off	41288428	1472972808951	1472972809029	 	32
79516	868280	Please let me know what days you plan on taking off.	please let me know what days you plan on taking off	41288431	1472972809138	1472972809212	p	80
79516	868280	Please let me know what days you plan on taking off.	please let me know what days you plan on taking off	41288433	1472972809321	1472972809412	l	76
79516	868280	Please let me know what days you plan on taking off.	please let me know what days you plan on taking off	41288435	1472972809443	1472972809544	a	65
79516	868280	Please let me know what days you plan on taking off.	please let me know what days you plan on taking off	41288456	1472972809645	1472972809660	n	78
79516	868280	Please let me know what days you plan on taking off.	please let me know what days you plan on taking off	41288458	1472972809869	1472972809945	 	32
79516	868280	Please let me know what days you plan on taking off.	please let me know what days you plan on taking off	41288460	1472972810542	1472972810644	o	79
79516	868280	Please let me know what days you plan on taking off.	please let me know what days you plan on taking off	41288461	1472972810753	1472972810844	n	78
79516	868280	Please let me know what days you plan on taking off.	please let me know what days you plan on taking off	41288462	1472972810922	1472972811011	 	32
79516	868280	Please let me know what days you plan on taking off.	please let me know what days you plan on taking off	41288509	1472972811513	1472972811610	t	84
79516	868280	Please let me know what days you plan on taking off.	please let me know what days you plan on taking off	41288512	1472972811735	1472972811844	a	65
79516	868280	Please let me know what days you plan on taking off.	please let me know what days you plan on taking off	41288515	1472972811859	1472972811991	k	75
79516	868280	Please let me know what days you plan on taking off.	please let me know what days you plan on taking off	41288517	1472972812085	1472972812193	i	73
79516	868280	Please let me know what days you plan on taking off.	please let me know what days you plan on taking off	41288519	1472972812474	1472972812592	n	78
79516	868280	Please let me know what days you plan on taking off.	please let me know what days you plan on taking off	41288549	1472972812705	1472972812795	g	71
79516	868280	Please let me know what days you plan on taking off.	please let me know what days you plan on taking off	41288550	1472972812904	1472972812979	 	32
79516	868280	Please let me know what days you plan on taking off.	please let me know what days you plan on taking off	41288551	1472972813167	1472972813292	o	79
79516	868280	Please let me know what days you plan on taking off.	please let me know what days you plan on taking off	41288552	1472972813449	1472972813544	f	70
79516	868280	Please let me know what days you plan on taking off.	please let me know what days you plan on taking off	41288553	1472972813622	1472972813695	f	70
79516	868297	Ava please put it on my calendar.	ava please put it in my calender	41288808	1472972819659	1472972819759	a	65
79516	868297	Ava please put it on my calendar.	ava please put it in my calender	41288813	1472972819869	1472972819959	v	86
79516	868297	Ava please put it on my calendar.	ava please put it in my calender	41288818	1472972819991	1472972820089	a	65
79516	868297	Ava please put it on my calendar.	ava please put it in my calender	41288823	1472972820089	1472972820179	 	32
79516	868297	Ava please put it on my calendar.	ava please put it in my calender	41288827	1472972820850	1472972820958	p	80
79516	868297	Ava please put it on my calendar.	ava please put it in my calender	41288865	1472972821038	1472972821158	l	76
79516	868297	Ava please put it on my calendar.	ava please put it in my calender	41288867	1472972821377	1472972821477	e	69
79516	868297	Ava please put it on my calendar.	ava please put it in my calender	41288869	1472972821555	1472972821690	a	65
79516	868297	Ava please put it on my calendar.	ava please put it in my calender	41288873	1472972821721	1472972821857	s	83
79516	868297	Ava please put it on my calendar.	ava please put it in my calender	41288876	1472972821966	1472972822074	e	69
79516	868297	Ava please put it on my calendar.	ava please put it in my calender	41288905	1472972822102	1472972822193	 	32
79516	868297	Ava please put it on my calendar.	ava please put it in my calender	41288906	1472972822318	1472972822472	p	80
79516	868297	Ava please put it on my calendar.	ava please put it in my calender	41288907	1472972822597	1472972822724	u	85
79516	868297	Ava please put it on my calendar.	ava please put it in my calender	41288909	1472972823084	1472972823224	 	32
79516	868297	Ava please put it on my calendar.	ava please put it in my calender	41288911	1472972823333	1472972823424	i	73
79516	868297	Ava please put it on my calendar.	ava please put it in my calender	41289015	1472972823558	1472972823642	t	84
79516	868297	Ava please put it on my calendar.	ava please put it in my calender	41289017	1472972823830	1472972823926	 	32
79516	868297	Ava please put it on my calendar.	ava please put it in my calender	41289019	1472972824725	1472972824794	BKSP	8
79516	868297	Ava please put it on my calendar.	ava please put it in my calender	41289022	1472972824887	1472972824945	BKSP	8
79516	868297	Ava please put it on my calendar.	ava please put it in my calender	41289024	1472972825039	1472972825110	BKSP	8
79516	868297	Ava please put it on my calendar.	ava please put it in my calender	41289027	1472972825251	1472972825310	BKSP	8
79516	868297	Ava please put it on my calendar.	ava please put it in my calender	41289030	1472972825844	1472972825910	t	84
79516	868297	Ava please put it on my calendar.	ava please put it in my calender	41289033	1472972825941	1472972826057	 	32
79516	868297	Ava please put it on my calendar.	ava please put it in my calender	41289036	1472972826151	1472972826258	i	73
79516	868297	Ava please put it on my calendar.	ava please put it in my calender	41289050	1472972826379	1472972826460	t	84
79516	868297	Ava please put it on my calendar.	ava please put it in my calender	41289053	1472972826507	1472972826593	 	32
79516	868297	Ava please put it on my calendar.	ava please put it in my calender	41289056	1472972826968	1472972827074	i	73
79516	868297	Ava please put it on my calendar.	ava please put it in my calender	41289060	1472972827137	1472972827226	n	78
79516	868297	Ava please put it on my calendar.	ava please put it in my calender	41289065	1472972827304	1472972827409	 	32
79516	868297	Ava please put it on my calendar.	ava please put it in my calender	41289099	1472972827559	1472972827673	m	77
79516	868297	Ava please put it on my calendar.	ava please put it in my calender	41289102	1472972827939	1472972828025	y	89
79516	868297	Ava please put it on my calendar.	ava please put it in my calender	41289106	1472972828181	1472972828276	 	32
79516	868297	Ava please put it on my calendar.	ava please put it in my calender	41289108	1472972828604	1472972828708	c	67
79516	868297	Ava please put it on my calendar.	ava please put it in my calender	41289112	1472972828817	1472972828939	a	65
79516	868297	Ava please put it on my calendar.	ava please put it in my calender	41289168	1472972829092	1472972829199	l	76
79516	868297	Ava please put it on my calendar.	ava please put it in my calender	41289172	1472972829512	1472972829609	e	69
79516	868297	Ava please put it on my calendar.	ava please put it in my calender	41289178	1472972829765	1472972829843	n	78
79516	868297	Ava please put it on my calendar.	ava please put it in my calender	41289182	1472972830046	1472972830141	d	68
79516	868297	Ava please put it on my calendar.	ava please put it in my calender	41289186	1472972830266	1472972830358	e	69
79516	868297	Ava please put it on my calendar.	ava please put it in my calender	41289318	1472972830442	1472972830541	r	82
79516	868297	Ava please put it on my calendar.	ava please put it in my calender	41289320	1472972832612	1472972833377	ARW_LEFT	37
79516	868297	Ava please put it on my calendar.	ava please put it in my calender	41289323	1472972833564	1472972833665	ARW_LEFT	37
79516	868297	Ava please put it on my calendar.	ava please put it in my calender	41289326	1472972833751	1472972833835	ARW_LEFT	37
79516	868297	Ava please put it on my calendar.	ava please put it in my calender	41289329	1472972833911	1472972834007	ARW_LEFT	37
79516	868313	Lance and I have the same chance to win.	lance and i have the same chance to win	41289447	1472972837253	1472972837356	l	76
79516	868313	Lance and I have the same chance to win.	lance and i have the same chance to win	41289449	1472972837419	1472972837538	a	65
79516	868313	Lance and I have the same chance to win.	lance and i have the same chance to win	41289450	1472972837648	1472972837755	n	78
79516	868313	Lance and I have the same chance to win.	lance and i have the same chance to win	41289451	1472972837880	1472972838005	c	67
79516	868313	Lance and I have the same chance to win.	lance and i have the same chance to win	41289452	1472972838099	1472972838238	e	69
79516	868313	Lance and I have the same chance to win.	lance and i have the same chance to win	41289506	1472972838247	1472972838309	 	32
79516	868313	Lance and I have the same chance to win.	lance and i have the same chance to win	41289510	1472972838949	1472972839072	a	65
79516	868313	Lance and I have the same chance to win.	lance and i have the same chance to win	41289513	1472972839134	1472972839223	n	78
79516	868313	Lance and I have the same chance to win.	lance and i have the same chance to win	41289517	1472972839536	1472972839670	d	68
79516	868313	Lance and I have the same chance to win.	lance and i have the same chance to win	41289521	1472972839686	1472972839758	 	32
79516	868313	Lance and I have the same chance to win.	lance and i have the same chance to win	41289597	1472972839851	1472972839955	i	73
79516	868313	Lance and I have the same chance to win.	lance and i have the same chance to win	41289601	1472972840049	1472972840157	 	32
79516	868313	Lance and I have the same chance to win.	lance and i have the same chance to win	41289605	1472972840876	1472972840989	BKSP	8
79516	868313	Lance and I have the same chance to win.	lance and i have the same chance to win	41289607	1472972841082	1472972841158	BKSP	8
79516	868313	Lance and I have the same chance to win.	lance and i have the same chance to win	41289611	1472972841910	1472972841974	i	73
79516	868313	Lance and I have the same chance to win.	lance and i have the same chance to win	41289615	1472972842115	1472972842207	 	32
79516	868313	Lance and I have the same chance to win.	lance and i have the same chance to win	41289617	1472972842363	1472972842440	h	72
79516	868313	Lance and I have the same chance to win.	lance and i have the same chance to win	41289637	1472972842486	1472972842620	a	65
79516	868313	Lance and I have the same chance to win.	lance and i have the same chance to win	41289642	1472972842698	1472972842773	v	86
79516	868313	Lance and I have the same chance to win.	lance and i have the same chance to win	41289646	1472972842820	1472972842922	e	69
79516	868313	Lance and I have the same chance to win.	lance and i have the same chance to win	41289651	1472972842937	1472972843040	 	32
79516	868313	Lance and I have the same chance to win.	lance and i have the same chance to win	41289655	1472972843572	1472972843641	t	84
79516	868313	Lance and I have the same chance to win.	lance and i have the same chance to win	41289683	1472972843768	1472972843871	h	72
79516	868313	Lance and I have the same chance to win.	lance and i have the same chance to win	41289684	1472972843918	1472972844022	e	69
79516	868313	Lance and I have the same chance to win.	lance and i have the same chance to win	41289685	1472972844054	1472972844156	 	32
79516	868313	Lance and I have the same chance to win.	lance and i have the same chance to win	41289686	1472972844615	1472972844721	s	83
79516	868313	Lance and I have the same chance to win.	lance and i have the same chance to win	41289687	1472972844752	1472972844870	a	65
79516	868313	Lance and I have the same chance to win.	lance and i have the same chance to win	41289745	1472972844908	1472972845037	m	77
79516	868313	Lance and I have the same chance to win.	lance and i have the same chance to win	41289746	1472972845664	1472972845740	e	69
79516	868313	Lance and I have the same chance to win.	lance and i have the same chance to win	41289747	1472972845787	1472972845874	 	32
79516	868313	Lance and I have the same chance to win.	lance and i have the same chance to win	41289748	1472972846955	1472972847054	c	67
79516	868313	Lance and I have the same chance to win.	lance and i have the same chance to win	41289749	1472972847132	1472972847223	h	72
79516	868313	Lance and I have the same chance to win.	lance and i have the same chance to win	41289786	1472972847267	1472972847404	a	65
79516	868313	Lance and I have the same chance to win.	lance and i have the same chance to win	41289788	1472972847408	1472972847489	n	78
79516	868313	Lance and I have the same chance to win.	lance and i have the same chance to win	41289792	1472972847583	1472972847688	c	67
79516	868313	Lance and I have the same chance to win.	lance and i have the same chance to win	41289796	1472972847845	1472972847976	e	69
79516	868313	Lance and I have the same chance to win.	lance and i have the same chance to win	41289842	1472972847964	1472972848071	 	32
79516	868313	Lance and I have the same chance to win.	lance and i have the same chance to win	41289844	1472972848243	1472972848354	t	84
79516	868313	Lance and I have the same chance to win.	lance and i have the same chance to win	41289850	1472972848541	1472972848623	o	79
79516	868313	Lance and I have the same chance to win.	lance and i have the same chance to win	41289857	1472972848764	1472972848854	 	32
79516	868313	Lance and I have the same chance to win.	lance and i have the same chance to win	41289861	1472972849120	1472972849236	w	87
79516	868313	Lance and I have the same chance to win.	lance and i have the same chance to win	41289865	1472972849314	1472972849406	i	73
79516	868313	Lance and I have the same chance to win.	lance and i have the same chance to win	41289867	1472972849498	1472972849603	n	78
79516	868326	Opposition leaders have urged him to call off the visit.	opposition leaders have urged him to call off the visit	41290136	1472972855835	1472972855920	o	79
79516	868326	Opposition leaders have urged him to call off the visit.	opposition leaders have urged him to call off the visit	41290137	1472972856139	1472972856206	p	80
79516	868326	Opposition leaders have urged him to call off the visit.	opposition leaders have urged him to call off the visit	41290139	1472972856331	1472972856404	p	80
79516	868326	Opposition leaders have urged him to call off the visit.	opposition leaders have urged him to call off the visit	41290140	1472972857502	1472972857571	o	79
79516	868326	Opposition leaders have urged him to call off the visit.	opposition leaders have urged him to call off the visit	41290141	1472972858069	1472972858169	s	83
79516	868326	Opposition leaders have urged him to call off the visit.	opposition leaders have urged him to call off the visit	41290200	1472972858317	1472972858388	i	73
79516	868326	Opposition leaders have urged him to call off the visit.	opposition leaders have urged him to call off the visit	41290203	1472972858726	1472972858819	t	84
79516	868326	Opposition leaders have urged him to call off the visit.	opposition leaders have urged him to call off the visit	41290206	1472972858944	1472972859036	i	73
79516	868326	Opposition leaders have urged him to call off the visit.	opposition leaders have urged him to call off the visit	41290208	1472972859177	1472972859300	o	79
79516	868326	Opposition leaders have urged him to call off the visit.	opposition leaders have urged him to call off the visit	41290209	1472972859379	1472972859469	n	78
79516	868326	Opposition leaders have urged him to call off the visit.	opposition leaders have urged him to call off the visit	41290245	1472972859558	1472972859653	 	32
79516	868326	Opposition leaders have urged him to call off the visit.	opposition leaders have urged him to call off the visit	41290247	1472972860326	1472972860435	l	76
79516	868326	Opposition leaders have urged him to call off the visit.	opposition leaders have urged him to call off the visit	41290250	1472972860482	1472972860569	e	69
79516	868326	Opposition leaders have urged him to call off the visit.	opposition leaders have urged him to call off the visit	41290253	1472972860631	1472972860750	a	65
79516	868326	Opposition leaders have urged him to call off the visit.	opposition leaders have urged him to call off the visit	41290256	1472972860797	1472972860933	d	68
79516	868326	Opposition leaders have urged him to call off the visit.	opposition leaders have urged him to call off the visit	41290336	1472972861026	1472972861166	e	69
79516	868326	Opposition leaders have urged him to call off the visit.	opposition leaders have urged him to call off the visit	41290338	1472972861275	1472972861401	r	82
79516	868326	Opposition leaders have urged him to call off the visit.	opposition leaders have urged him to call off the visit	41290339	1472972861619	1472972861782	s	83
79516	868326	Opposition leaders have urged him to call off the visit.	opposition leaders have urged him to call off the visit	41290340	1472972862581	1472972862670	 	32
79516	868326	Opposition leaders have urged him to call off the visit.	opposition leaders have urged him to call off the visit	41290341	1472972863159	1472972863204	h	72
79516	868326	Opposition leaders have urged him to call off the visit.	opposition leaders have urged him to call off the visit	41290351	1472972863222	1472972863270	h	72
79516	868326	Opposition leaders have urged him to call off the visit.	opposition leaders have urged him to call off the visit	41290353	1472972863379	1472972863531	a	65
79516	868326	Opposition leaders have urged him to call off the visit.	opposition leaders have urged him to call off the visit	41290359	1472972863547	1472972863651	v	86
79516	868326	Opposition leaders have urged him to call off the visit.	opposition leaders have urged him to call off the visit	41290361	1472972863683	1472972863789	e	69
79516	868326	Opposition leaders have urged him to call off the visit.	opposition leaders have urged him to call off the visit	41290428	1472972863776	1472972863853	 	32
79516	868326	Opposition leaders have urged him to call off the visit.	opposition leaders have urged him to call off the visit	41290430	1472972864651	1472972864735	BKSP	8
79516	868326	Opposition leaders have urged him to call off the visit.	opposition leaders have urged him to call off the visit	41290433	1472972864813	1472972864886	BKSP	8
79516	868326	Opposition leaders have urged him to call off the visit.	opposition leaders have urged him to call off the visit	41290436	1472972864965	1472972865020	BKSP	8
79516	868326	Opposition leaders have urged him to call off the visit.	opposition leaders have urged him to call off the visit	41290439	1472972865098	1472972865184	BKSP	8
79516	868326	Opposition leaders have urged him to call off the visit.	opposition leaders have urged him to call off the visit	41290441	1472972865466	1472972865536	BKSP	8
79516	868326	Opposition leaders have urged him to call off the visit.	opposition leaders have urged him to call off the visit	41290443	1472972865742	1472972865851	a	65
79516	868326	Opposition leaders have urged him to call off the visit.	opposition leaders have urged him to call off the visit	41290445	1472972866054	1472972866151	v	86
79516	868326	Opposition leaders have urged him to call off the visit.	opposition leaders have urged him to call off the visit	41290446	1472972866229	1472972866303	e	69
79516	868326	Opposition leaders have urged him to call off the visit.	opposition leaders have urged him to call off the visit	41290447	1472972866319	1472972866418	 	32
79516	868326	Opposition leaders have urged him to call off the visit.	opposition leaders have urged him to call off the visit	41290448	1472972866527	1472972866634	u	85
79516	868326	Opposition leaders have urged him to call off the visit.	opposition leaders have urged him to call off the visit	41290483	1472972866661	1472972866750	r	82
79516	868326	Opposition leaders have urged him to call off the visit.	opposition leaders have urged him to call off the visit	41290485	1472972866912	1472972867002	g	71
79516	868326	Opposition leaders have urged him to call off the visit.	opposition leaders have urged him to call off the visit	41290487	1472972867065	1472972867152	e	69
79516	868326	Opposition leaders have urged him to call off the visit.	opposition leaders have urged him to call off the visit	41290489	1472972867308	1472972867495	d	68
79516	868326	Opposition leaders have urged him to call off the visit.	opposition leaders have urged him to call off the visit	41290491	1472972867982	1472972868100	 	32
79516	868326	Opposition leaders have urged him to call off the visit.	opposition leaders have urged him to call off the visit	41290538	1472972868572	1472972868652	h	72
79516	868326	Opposition leaders have urged him to call off the visit.	opposition leaders have urged him to call off the visit	41290539	1472972868730	1472972868833	i	73
79516	868326	Opposition leaders have urged him to call off the visit.	opposition leaders have urged him to call off the visit	41290540	1472972868927	1472972869033	m	77
79516	868326	Opposition leaders have urged him to call off the visit.	opposition leaders have urged him to call off the visit	41290541	1472972869143	1472972869250	 	32
79516	868326	Opposition leaders have urged him to call off the visit.	opposition leaders have urged him to call off the visit	41290542	1472972869816	1472972869917	t	84
79516	868326	Opposition leaders have urged him to call off the visit.	opposition leaders have urged him to call off the visit	41290565	1472972869960	1472972870051	o	79
79516	868326	Opposition leaders have urged him to call off the visit.	opposition leaders have urged him to call off the visit	41290567	1472972870160	1472972870268	 	32
79516	868326	Opposition leaders have urged him to call off the visit.	opposition leaders have urged him to call off the visit	41290570	1472972870393	1472972870500	c	67
79516	868326	Opposition leaders have urged him to call off the visit.	opposition leaders have urged him to call off the visit	41290572	1472972870640	1472972870796	a	65
79516	868326	Opposition leaders have urged him to call off the visit.	opposition leaders have urged him to call off the visit	41290574	1472972870827	1472972870887	l	76
79516	868326	Opposition leaders have urged him to call off the visit.	opposition leaders have urged him to call off the visit	41290611	1472972870983	1472972871052	l	76
79516	868326	Opposition leaders have urged him to call off the visit.	opposition leaders have urged him to call off the visit	41290614	1472972871224	1472972871303	 	32
79516	868326	Opposition leaders have urged him to call off the visit.	opposition leaders have urged him to call off the visit	41290616	1472972871959	1472972872066	o	79
79516	868326	Opposition leaders have urged him to call off the visit.	opposition leaders have urged him to call off the visit	41290617	1472972872269	1472972872368	f	70
79516	868326	Opposition leaders have urged him to call off the visit.	opposition leaders have urged him to call off the visit	41290619	1472972872462	1472972872551	f	70
79516	868326	Opposition leaders have urged him to call off the visit.	opposition leaders have urged him to call off the visit	41290640	1472972872654	1472972872782	 	32
79516	868326	Opposition leaders have urged him to call off the visit.	opposition leaders have urged him to call off the visit	41290641	1472972872985	1472972873067	t	84
79516	868326	Opposition leaders have urged him to call off the visit.	opposition leaders have urged him to call off the visit	41290643	1472972873177	1472972873283	h	72
79516	868326	Opposition leaders have urged him to call off the visit.	opposition leaders have urged him to call off the visit	41290645	1472972873330	1472972873401	e	69
79516	868326	Opposition leaders have urged him to call off the visit.	opposition leaders have urged him to call off the visit	41290647	1472972873448	1472972873533	 	32
79516	868326	Opposition leaders have urged him to call off the visit.	opposition leaders have urged him to call off the visit	41290675	1472972874177	1472972874299	v	86
79516	868326	Opposition leaders have urged him to call off the visit.	opposition leaders have urged him to call off the visit	41290676	1472972874408	1472972874468	i	73
79516	868326	Opposition leaders have urged him to call off the visit.	opposition leaders have urged him to call off the visit	41290677	1472972874562	1472972874682	s	83
79516	868326	Opposition leaders have urged him to call off the visit.	opposition leaders have urged him to call off the visit	41290678	1472972874729	1472972874786	i	73
79516	868326	Opposition leaders have urged him to call off the visit.	opposition leaders have urged him to call off the visit	41290679	1472972874895	1472972874969	t	84
79516	868341	There is now a meeting at 8PM as well.	there is now a meeting at 8pm as well	41290849	1472972880201	1472972880267	t	84
79516	868341	There is now a meeting at 8PM as well.	there is now a meeting at 8pm as well	41290850	1472972880410	1472972880516	h	72
79516	868341	There is now a meeting at 8PM as well.	there is now a meeting at 8pm as well	41290852	1472972880578	1472972880666	e	69
79516	868341	There is now a meeting at 8PM as well.	there is now a meeting at 8pm as well	41290854	1472972880775	1472972880849	r	82
79516	868341	There is now a meeting at 8PM as well.	there is now a meeting at 8pm as well	41290856	1472972880912	1472972880983	e	69
79516	868341	There is now a meeting at 8PM as well.	there is now a meeting at 8pm as well	41290908	1472972881120	1472972881169	 	32
79516	868341	There is now a meeting at 8PM as well.	there is now a meeting at 8pm as well	41290909	1472972881874	1472972881950	i	73
79516	868341	There is now a meeting at 8PM as well.	there is now a meeting at 8pm as well	41290910	1472972882028	1472972882132	s	83
79516	868341	There is now a meeting at 8PM as well.	there is now a meeting at 8pm as well	41290911	1472972882147	1472972882265	 	32
79516	868341	There is now a meeting at 8PM as well.	there is now a meeting at 8pm as well	41290912	1472972882468	1472972882565	n	78
79516	868341	There is now a meeting at 8PM as well.	there is now a meeting at 8pm as well	41290953	1472972882644	1472972882780	o	79
79516	868341	There is now a meeting at 8PM as well.	there is now a meeting at 8pm as well	41290955	1472972882811	1472972882899	w	87
79516	868341	There is now a meeting at 8PM as well.	there is now a meeting at 8pm as well	41290957	1472972882930	1472972883033	 	32
79516	868341	There is now a meeting at 8PM as well.	there is now a meeting at 8pm as well	41290959	1472972883158	1472972883280	a	65
79516	868341	There is now a meeting at 8PM as well.	there is now a meeting at 8pm as well	41290960	1472972883561	1472972883666	 	32
79516	868341	There is now a meeting at 8PM as well.	there is now a meeting at 8pm as well	41290996	1472972883811	1472972883930	m	77
79516	868341	There is now a meeting at 8PM as well.	there is now a meeting at 8pm as well	41290997	1472972884320	1472972884400	e	69
79516	868341	There is now a meeting at 8PM as well.	there is now a meeting at 8pm as well	41290998	1472972884494	1472972884568	e	69
79516	868341	There is now a meeting at 8PM as well.	there is now a meeting at 8pm as well	41290999	1472972884599	1472972884683	t	84
79516	868341	There is now a meeting at 8PM as well.	there is now a meeting at 8pm as well	41291000	1472972885196	1472972885298	i	73
79516	868341	There is now a meeting at 8PM as well.	there is now a meeting at 8pm as well	41291048	1472972885407	1472972885514	n	78
79516	868341	There is now a meeting at 8PM as well.	there is now a meeting at 8pm as well	41291050	1472972885686	1472972885782	g	71
79516	868341	There is now a meeting at 8PM as well.	there is now a meeting at 8pm as well	41291055	1472972885923	1472972886000	 	32
79516	868341	There is now a meeting at 8PM as well.	there is now a meeting at 8pm as well	41291059	1472972886171	1472972886311	a	65
79516	868341	There is now a meeting at 8PM as well.	there is now a meeting at 8pm as well	41291063	1472972886596	1472972886650	t	84
79516	868341	There is now a meeting at 8PM as well.	there is now a meeting at 8pm as well	41291115	1472972886865	1472972886965	 	32
79516	868341	There is now a meeting at 8PM as well.	there is now a meeting at 8pm as well	41291118	1472972887441	1472972887499	8	56
79516	868341	There is now a meeting at 8PM as well.	there is now a meeting at 8pm as well	41291120	1472972888157	1472972888264	p	80
79516	868341	There is now a meeting at 8PM as well.	there is now a meeting at 8pm as well	41291126	1472972888420	1472972888498	m	77
79516	868341	There is now a meeting at 8PM as well.	there is now a meeting at 8pm as well	41291129	1472972888608	1472972888682	 	32
79516	868341	There is now a meeting at 8PM as well.	there is now a meeting at 8pm as well	41291200	1472972888978	1472972889096	a	65
79516	868341	There is now a meeting at 8PM as well.	there is now a meeting at 8pm as well	41291203	1472972889169	1472972889279	s	83
79516	868341	There is now a meeting at 8PM as well.	there is now a meeting at 8pm as well	41291206	1472972889404	1472972889499	 	32
79516	868341	There is now a meeting at 8PM as well.	there is now a meeting at 8pm as well	41291209	1472972890016	1472972890074	e	69
79516	868341	There is now a meeting at 8PM as well.	there is now a meeting at 8pm as well	41291215	1472972890427	1472972890532	BKSP	8
79516	868341	There is now a meeting at 8PM as well.	there is now a meeting at 8pm as well	41291217	1472972890641	1472972890747	w	87
79516	868341	There is now a meeting at 8PM as well.	there is now a meeting at 8pm as well	41291243	1472972891079	1472972891181	e	69
79516	868341	There is now a meeting at 8PM as well.	there is now a meeting at 8pm as well	41291248	1472972891213	1472972891282	l	76
79516	868341	There is now a meeting at 8PM as well.	there is now a meeting at 8pm as well	41291253	1472972891329	1472972891414	l	76
79516	868351	I haven't adapted really.	i havent adapted really	41291434	1472972895833	1472972895883	i	73
79516	868351	I haven't adapted really.	i havent adapted really	41291440	1472972896055	1472972896162	 	32
79516	868351	I haven't adapted really.	i havent adapted really	41291442	1472972896397	1472972896481	h	72
79516	868351	I haven't adapted really.	i havent adapted really	41291445	1472972896559	1472972896648	a	65
79516	868351	I haven't adapted really.	i havent adapted really	41291449	1472972896695	1472972896750	v	86
79516	868351	I haven't adapted really.	i havent adapted really	41291466	1472972896898	1472972896996	e	69
79516	868351	I haven't adapted really.	i havent adapted really	41291468	1472972897043	1472972897162	n	78
79516	868351	I haven't adapted really.	i havent adapted really	41291471	1472972897256	1472972897346	t	84
79516	868351	I haven't adapted really.	i havent adapted really	41291473	1472972897393	1472972897481	 	32
79516	868351	I haven't adapted really.	i havent adapted really	41291476	1472972897668	1472972897795	a	65
79516	868351	I haven't adapted really.	i havent adapted really	41291507	1472972897870	1472972897963	d	68
79516	868351	I haven't adapted really.	i havent adapted really	41291509	1472972898073	1472972898179	a	65
79516	868351	I haven't adapted really.	i havent adapted really	41291511	1472972898257	1472972898362	p	80
79516	868351	I haven't adapted really.	i havent adapted really	41291513	1472972898581	1472972898696	t	84
79516	868351	I haven't adapted really.	i havent adapted really	41291514	1472972898789	1472972898895	e	69
79516	868351	I haven't adapted really.	i havent adapted really	41291532	1472972898974	1472972899134	d	68
79516	868351	I haven't adapted really.	i havent adapted really	41291534	1472972899079	1472972899196	 	32
79516	868351	I haven't adapted really.	i havent adapted really	41291536	1472972899415	1472972899512	r	82
79516	868351	I haven't adapted really.	i havent adapted really	41291538	1472972899622	1472972899729	e	69
79516	868351	I haven't adapted really.	i havent adapted really	41291540	1472972899901	1472972900058	a	65
79516	868351	I haven't adapted really.	i havent adapted really	41291563	1472972900212	1472972900297	l	76
79516	868351	I haven't adapted really.	i havent adapted really	41291566	1472972900375	1472972900452	l	76
79516	868351	I haven't adapted really.	i havent adapted really	41291568	1472972900686	1472972900749	y	89
79516	868359	I've sort of lost track of what all I've received.	ive sort of lost track of what all ive received	41291701	1472972904621	1472972904728	i	73
79516	868359	I've sort of lost track of what all I've received.	ive sort of lost track of what all ive received	41291703	1472972904822	1472972904929	b	66
79516	868359	I've sort of lost track of what all I've received.	ive sort of lost track of what all ive received	41291707	1472972905430	1472972905544	BKSP	8
79516	868359	I've sort of lost track of what all I've received.	ive sort of lost track of what all ive received	41291709	1472972905747	1472972905844	v	86
79516	868359	I've sort of lost track of what all I've received.	ive sort of lost track of what all ive received	41291711	1472972905891	1472972905979	e	69
79516	868359	I've sort of lost track of what all I've received.	ive sort of lost track of what all ive received	41291713	1472972905994	1472972906080	 	32
79516	868359	I've sort of lost track of what all I've received.	ive sort of lost track of what all ive received	41291775	1472972906721	1472972906844	s	83
79516	868359	I've sort of lost track of what all I've received.	ive sort of lost track of what all ive received	41291776	1472972906922	1472972907013	o	79
79516	868359	I've sort of lost track of what all I've received.	ive sort of lost track of what all ive received	41291777	1472972907200	1472972907240	r	82
79516	868359	I've sort of lost track of what all I've received.	ive sort of lost track of what all ive received	41291779	1472972907514	1472972907612	t	84
79516	868359	I've sort of lost track of what all I've received.	ive sort of lost track of what all ive received	41291781	1472972907924	1472972908029	 	32
79516	868359	I've sort of lost track of what all I've received.	ive sort of lost track of what all ive received	41291845	1472972909235	1472972909328	o	79
79516	868359	I've sort of lost track of what all I've received.	ive sort of lost track of what all ive received	41291851	1472972909469	1472972909578	f	70
79516	868359	I've sort of lost track of what all I've received.	ive sort of lost track of what all ive received	41291854	1472972909609	1472972909712	 	32
79516	868359	I've sort of lost track of what all I've received.	ive sort of lost track of what all ive received	41291859	1472972909854	1472972909991	l	76
79516	868359	I've sort of lost track of what all I've received.	ive sort of lost track of what all ive received	41291863	1472972910085	1472972910194	o	79
79516	868359	I've sort of lost track of what all I've received.	ive sort of lost track of what all ive received	41291885	1472972910269	1472972910378	s	83
79516	868359	I've sort of lost track of what all I've received.	ive sort of lost track of what all ive received	41291887	1472972910518	1472972910597	t	84
79516	868359	I've sort of lost track of what all I've received.	ive sort of lost track of what all ive received	41291890	1472972910753	1472972910848	 	32
79516	868359	I've sort of lost track of what all I've received.	ive sort of lost track of what all ive received	41291893	1472972911130	1472972911228	t	84
79516	868359	I've sort of lost track of what all I've received.	ive sort of lost track of what all ive received	41291896	1472972911325	1472972911411	r	82
79516	868359	I've sort of lost track of what all I've received.	ive sort of lost track of what all ive received	41291928	1472972911482	1472972911579	a	65
79516	868359	I've sort of lost track of what all I've received.	ive sort of lost track of what all ive received	41291929	1472972911766	1472972911892	c	67
79516	868359	I've sort of lost track of what all I've received.	ive sort of lost track of what all ive received	41291930	1472972911960	1472972912024	k	75
79516	868359	I've sort of lost track of what all I've received.	ive sort of lost track of what all ive received	41291931	1472972912087	1472972912194	s	83
79516	868359	I've sort of lost track of what all I've received.	ive sort of lost track of what all ive received	41291932	1472972912194	1472972912262	 	32
79516	868359	I've sort of lost track of what all I've received.	ive sort of lost track of what all ive received	41291981	1472972913072	1472972913146	BKSP	8
79516	868359	I've sort of lost track of what all I've received.	ive sort of lost track of what all ive received	41291984	1472972913224	1472972913296	BKSP	8
79516	868359	I've sort of lost track of what all I've received.	ive sort of lost track of what all ive received	41291986	1472972913390	1472972913464	 	32
79516	868359	I've sort of lost track of what all I've received.	ive sort of lost track of what all ive received	41291991	1472972914858	1472972914962	o	79
79516	868359	I've sort of lost track of what all I've received.	ive sort of lost track of what all ive received	41291997	1472972914977	1472972915094	f	70
79516	868359	I've sort of lost track of what all I've received.	ive sort of lost track of what all ive received	41292002	1472972915110	1472972915242	 	32
79516	868359	I've sort of lost track of what all I've received.	ive sort of lost track of what all ive received	41292007	1472972915429	1472972915558	w	87
79516	868359	I've sort of lost track of what all I've received.	ive sort of lost track of what all ive received	41292053	1472972915664	1472972915806	a	65
79516	868359	I've sort of lost track of what all I've received.	ive sort of lost track of what all ive received	41292055	1472972916182	1472972916264	=	187
79516	868359	I've sort of lost track of what all I've received.	ive sort of lost track of what all ive received	41292058	1472972916389	1472972916510	h	72
79516	868359	I've sort of lost track of what all I've received.	ive sort of lost track of what all ive received	41292060	1472972916572	1472972916677	a	65
79516	868359	I've sort of lost track of what all I've received.	ive sort of lost track of what all ive received	41292062	1472972916693	1472972916779	t	84
79516	868359	I've sort of lost track of what all I've received.	ive sort of lost track of what all ive received	41292169	1472972916936	1472972917014	 	32
79516	868359	I've sort of lost track of what all I've received.	ive sort of lost track of what all ive received	41292171	1472972918894	1472972918979	BKSP	8
79516	868359	I've sort of lost track of what all I've received.	ive sort of lost track of what all ive received	41292174	1472972919057	1472972919114	BKSP	8
79516	868359	I've sort of lost track of what all I've received.	ive sort of lost track of what all ive received	41292178	1472972919208	1472972919264	BKSP	8
79516	868359	I've sort of lost track of what all I've received.	ive sort of lost track of what all ive received	41292179	1472972919373	1472972919430	BKSP	8
79516	868359	I've sort of lost track of what all I've received.	ive sort of lost track of what all ive received	41292182	1472972919571	1472972919629	BKSP	8
79516	868359	I've sort of lost track of what all I've received.	ive sort of lost track of what all ive received	41292185	1472972919941	1472972920027	BKSP	8
79516	868359	I've sort of lost track of what all I've received.	ive sort of lost track of what all ive received	41292187	1472972920418	1472972920496	h	72
79516	868359	I've sort of lost track of what all I've received.	ive sort of lost track of what all ive received	41292189	1472972920590	1472972920710	a	65
79516	868359	I've sort of lost track of what all I've received.	ive sort of lost track of what all ive received	41292190	1472972920710	1472972920794	t	84
79516	868359	I've sort of lost track of what all I've received.	ive sort of lost track of what all ive received	41292194	1472972920935	1472972921029	 	32
79516	868359	I've sort of lost track of what all I've received.	ive sort of lost track of what all ive received	41292225	1472972921671	1472972921777	a	65
79516	868359	I've sort of lost track of what all I've received.	ive sort of lost track of what all ive received	41292227	1472972921855	1472972921945	l	76
79516	868359	I've sort of lost track of what all I've received.	ive sort of lost track of what all ive received	41292230	1472972922023	1472972922095	l	76
79516	868359	I've sort of lost track of what all I've received.	ive sort of lost track of what all ive received	41292233	1472972922220	1472972922326	 	32
79516	868359	I've sort of lost track of what all I've received.	ive sort of lost track of what all ive received	41292242	1472972922420	1472972922526	i	73
79516	868359	I've sort of lost track of what all I've received.	ive sort of lost track of what all ive received	41292270	1472972922615	1472972922712	v	86
79516	868359	I've sort of lost track of what all I've received.	ive sort of lost track of what all ive received	41292274	1472972922806	1472972922895	e	69
79516	868359	I've sort of lost track of what all I've received.	ive sort of lost track of what all ive received	41292281	1472972922926	1472972923043	 	32
79516	868359	I've sort of lost track of what all I've received.	ive sort of lost track of what all ive received	41292285	1472972923121	1472972923225	b	66
79516	868359	I've sort of lost track of what all I've received.	ive sort of lost track of what all ive received	41292287	1472972923319	1472972923379	e	69
79516	868359	I've sort of lost track of what all I've received.	ive sort of lost track of what all ive received	41292370	1472972924053	1472972924129	BKSP	8
79516	868359	I've sort of lost track of what all I've received.	ive sort of lost track of what all ive received	41292372	1472972924222	1472972924296	BKSP	8
79516	868359	I've sort of lost track of what all I've received.	ive sort of lost track of what all ive received	41292375	1472972924969	1472972925061	r	82
79516	868359	I've sort of lost track of what all I've received.	ive sort of lost track of what all ive received	41292377	1472972925170	1472972925244	e	69
79516	868359	I've sort of lost track of what all I've received.	ive sort of lost track of what all ive received	41292379	1472972925338	1472972925427	c	67
79516	868359	I've sort of lost track of what all I've received.	ive sort of lost track of what all ive received	41292381	1472972925505	1472972925579	e	69
79516	868359	I've sort of lost track of what all I've received.	ive sort of lost track of what all ive received	41292383	1472972925719	1472972925827	i	73
79516	868359	I've sort of lost track of what all I've received.	ive sort of lost track of what all ive received	41292403	1472972925950	1472972926044	v	86
79516	868359	I've sort of lost track of what all I've received.	ive sort of lost track of what all ive received	41292406	1472972926153	1472972926244	e	69
79516	868359	I've sort of lost track of what all I've received.	ive sort of lost track of what all ive received	41292409	1472972926369	1472972926476	d	68
79516	868377	Please look over and let me know.	please look over and let me know	41292600	1472972932200	1472972932293	p	80
79516	868377	Please look over and let me know.	please look over and let me know	41292602	1472972932371	1472972932506	l	76
79516	868377	Please look over and let me know.	please look over and let me know	41292604	1472972932522	1472972932656	e	69
79516	868377	Please look over and let me know.	please look over and let me know	41292606	1472972932735	1472972932889	a	65
79516	868377	Please look over and let me know.	please look over and let me know	41292609	1472972932905	1472972933055	s	83
79516	868377	Please look over and let me know.	please look over and let me know	41292637	1472972933153	1472972933243	e	69
79516	868377	Please look over and let me know.	please look over and let me know	41292638	1472972933258	1472972933375	 	32
79516	868377	Please look over and let me know.	please look over and let me know	41292639	1472972933609	1472972933724	l	76
79516	868377	Please look over and let me know.	please look over and let me know	41292640	1472972933850	1472972933927	p	80
79516	868377	Please look over and let me know.	please look over and let me know	41292641	1472972934036	1472972934126	p	80
79516	868377	Please look over and let me know.	please look over and let me know	41292740	1472972934659	1472972934712	BKSP	8
79516	868377	Please look over and let me know.	please look over and let me know	41292743	1472972934837	1472972934925	BKSP	8
79516	868377	Please look over and let me know.	please look over and let me know	41292745	1472972935553	1472972935627	o	79
79516	868377	Please look over and let me know.	please look over and let me know	41292746	1472972935726	1472972935793	o	79
79516	868377	Please look over and let me know.	please look over and let me know	41292748	1472972936266	1472972936359	k	75
79516	868377	Please look over and let me know.	please look over and let me know	41292750	1472972936499	1472972936560	 	32
79516	868377	Please look over and let me know.	please look over and let me know	41292753	1472972936939	1472972937027	o	79
79516	868377	Please look over and let me know.	please look over and let me know	41292838	1472972937264	1472972937297	v	86
79516	868377	Please look over and let me know.	please look over and let me know	41292844	1472972937939	1472972938041	e	69
79516	868377	Please look over and let me know.	please look over and let me know	41292850	1472972938150	1472972938226	r	82
79516	868377	Please look over and let me know.	please look over and let me know	41292852	1472972938242	1472972938326	 	32
79516	868377	Please look over and let me know.	please look over and let me know	41292855	1472972938810	1472972938939	a	65
79516	868377	Please look over and let me know.	please look over and let me know	41292904	1472972938971	1472972939057	n	78
79516	868377	Please look over and let me know.	please look over and let me know	41292905	1472972939276	1472972939486	d	68
79516	868377	Please look over and let me know.	please look over and let me know	41292907	1472972939548	1472972939658	 	32
79516	868377	Please look over and let me know.	please look over and let me know	41292912	1472972940487	1472972940606	l	76
79516	868377	Please look over and let me know.	please look over and let me know	41292916	1472972940653	1472972940758	e	69
79516	868377	Please look over and let me know.	please look over and let me know	41292944	1472972940949	1472972941040	t	84
79516	868377	Please look over and let me know.	please look over and let me know	41292948	1472972941072	1472972941173	 	32
79516	868377	Please look over and let me know.	please look over and let me know	41292953	1472972941330	1472972941423	m	77
79516	868377	Please look over and let me know.	please look over and let me know	41292956	1472972941454	1472972941557	e	69
79516	868377	Please look over and let me know.	please look over and let me know	41292959	1472972941589	1472972941708	 	32
79516	868377	Please look over and let me know.	please look over and let me know	41293026	1472972941878	1472972941959	k	75
79516	868377	Please look over and let me know.	please look over and let me know	41293027	1472972942241	1472972942372	o	79
79516	868377	Please look over and let me know.	please look over and let me know	41293029	1472972943186	1472972943291	BKSP	8
79516	868377	Please look over and let me know.	please look over and let me know	41293031	1472972943507	1472972943639	n	78
79516	868377	Please look over and let me know.	please look over and let me know	41293033	1472972943734	1472972943855	o	79
79516	868377	Please look over and let me know.	please look over and let me know	41293035	1472972943948	1472972944072	w	87
79516	868387	These are big storms and traffic isn't moving.	these are big stroms and traffic isnt moving	41293194	1472972948980	1472972949090	t	84
79516	868387	These are big storms and traffic isn't moving.	these are big stroms and traffic isnt moving	41293198	1472972949215	1472972949338	h	72
79516	868387	These are big storms and traffic isn't moving.	these are big stroms and traffic isnt moving	41293203	1472972949416	1472972949506	e	69
79516	868387	These are big storms and traffic isn't moving.	these are big stroms and traffic isnt moving	41293209	1472972949616	1472972949737	s	83
79516	868387	These are big storms and traffic isn't moving.	these are big stroms and traffic isnt moving	41293214	1472972949830	1472972949939	e	69
79516	868387	These are big storms and traffic isn't moving.	these are big stroms and traffic isnt moving	41293235	1472972950009	1472972950138	 	32
79516	868387	These are big storms and traffic isn't moving.	these are big stroms and traffic isnt moving	41293238	1472972950263	1472972950372	a	65
79516	868387	These are big storms and traffic isn't moving.	these are big stroms and traffic isnt moving	41293241	1472972950528	1472972950623	r	82
79516	868387	These are big storms and traffic isn't moving.	these are big stroms and traffic isnt moving	41293244	1472972950702	1472972950806	e	69
79516	868387	These are big storms and traffic isn't moving.	these are big stroms and traffic isnt moving	41293247	1472972950869	1472972950989	 	32
79516	868387	These are big storms and traffic isn't moving.	these are big stroms and traffic isnt moving	41293275	1472972951095	1472972951205	b	66
79516	868387	These are big storms and traffic isn't moving.	these are big stroms and traffic isnt moving	41293279	1472972951268	1472972951404	i	73
79516	868387	These are big storms and traffic isn't moving.	these are big stroms and traffic isnt moving	41293283	1472972951482	1472972951603	g	71
79516	868387	These are big storms and traffic isn't moving.	these are big stroms and traffic isnt moving	41293286	1472972951713	1472972951806	 	32
79516	868387	These are big storms and traffic isn't moving.	these are big stroms and traffic isnt moving	41293289	1472972951900	1472972952021	s	83
79516	868387	These are big storms and traffic isn't moving.	these are big stroms and traffic isnt moving	41293344	1472972952135	1472972952223	t	84
79516	868387	These are big storms and traffic isn't moving.	these are big stroms and traffic isnt moving	41293345	1472972953352	1472972953440	r	82
79516	868387	These are big storms and traffic isn't moving.	these are big stroms and traffic isnt moving	41293346	1472972953580	1472972953658	o	79
79516	868387	These are big storms and traffic isn't moving.	these are big stroms and traffic isnt moving	41293348	1472972953845	1472972953955	m	77
79516	868387	These are big storms and traffic isn't moving.	these are big stroms and traffic isnt moving	41293350	1472972954033	1472972954123	s	83
79516	868387	These are big storms and traffic isn't moving.	these are big stroms and traffic isnt moving	41293374	1472972954177	1472972954272	 	32
79516	868387	These are big storms and traffic isn't moving.	these are big stroms and traffic isnt moving	41293375	1472972954569	1472972954687	a	65
79516	868387	These are big storms and traffic isn't moving.	these are big stroms and traffic isnt moving	41293376	1472972954718	1472972954806	n	78
79516	868387	These are big storms and traffic isn't moving.	these are big stroms and traffic isnt moving	41293377	1472972954884	1472972954988	d	68
79516	868387	These are big storms and traffic isn't moving.	these are big stroms and traffic isnt moving	41293378	1472972955019	1472972955106	 	32
79516	868387	These are big storms and traffic isn't moving.	these are big stroms and traffic isnt moving	41293421	1472972955445	1472972955554	t	84
79516	868387	These are big storms and traffic isn't moving.	these are big stroms and traffic isnt moving	41293422	1472972955683	1472972955757	r	82
79516	868387	These are big storms and traffic isn't moving.	these are big stroms and traffic isnt moving	41293423	1472972955882	1472972956004	a	65
79516	868387	These are big storms and traffic isn't moving.	these are big stroms and traffic isnt moving	41293424	1472972956207	1472972956290	f	70
79516	868387	These are big storms and traffic isn't moving.	these are big stroms and traffic isnt moving	41293425	1472972956399	1472972956489	f	70
79516	868387	These are big storms and traffic isn't moving.	these are big stroms and traffic isnt moving	41293494	1472972956556	1472972956624	i	73
79516	868387	These are big storms and traffic isn't moving.	these are big stroms and traffic isnt moving	41293497	1472972956874	1472972957019	c	67
79516	868387	These are big storms and traffic isn't moving.	these are big stroms and traffic isnt moving	41293500	1472972957535	1472972957639	 	32
79516	868387	These are big storms and traffic isn't moving.	these are big stroms and traffic isnt moving	41293503	1472972958390	1472972958489	i	73
79516	868387	These are big storms and traffic isn't moving.	these are big stroms and traffic isnt moving	41293505	1472972958551	1472972958686	s	83
79516	868387	These are big storms and traffic isn't moving.	these are big stroms and traffic isnt moving	41293539	1472972958699	1472972958805	n	78
79516	868387	These are big storms and traffic isn't moving.	these are big stroms and traffic isnt moving	41293543	1472972959008	1472972959088	t	84
79516	868387	These are big storms and traffic isn't moving.	these are big stroms and traffic isnt moving	41293545	1472972959151	1472972959271	 	32
79516	868387	These are big storms and traffic isn't moving.	these are big stroms and traffic isnt moving	41293547	1472972959521	1472972959621	m	77
79516	868387	These are big storms and traffic isn't moving.	these are big stroms and traffic isnt moving	41293549	1472972959699	1472972959837	o	79
79516	868387	These are big storms and traffic isn't moving.	these are big stroms and traffic isnt moving	41293587	1472972960129	1472972960264	v	86
79516	868387	These are big storms and traffic isn't moving.	these are big stroms and traffic isnt moving	41293588	1472972960236	1472972960306	i	73
79516	868387	These are big storms and traffic isn't moving.	these are big stroms and traffic isnt moving	41293590	1472972960478	1472972960571	n	78
79516	868387	These are big storms and traffic isn't moving.	these are big stroms and traffic isnt moving	41293592	1472972960649	1472972960754	g	71
79516	868399	I was trying to remember what Bobby said.	i was trying to remember what bobby said	41293714	1472972966457	1472972966538	i	73
79516	868399	I was trying to remember what Bobby said.	i was trying to remember what bobby said	41293716	1472972966601	1472972966718	w	87
79516	868399	I was trying to remember what Bobby said.	i was trying to remember what bobby said	41293718	1472972967550	1472972967669	BKSP	8
79516	868399	I was trying to remember what Bobby said.	i was trying to remember what bobby said	41293721	1472972967762	1472972967855	 	32
79516	868399	I was trying to remember what Bobby said.	i was trying to remember what bobby said	41293725	1472972968152	1472972968267	w	87
79516	868399	I was trying to remember what Bobby said.	i was trying to remember what bobby said	41293729	1472972968377	1472972968520	a	65
79516	868399	I was trying to remember what Bobby said.	i was trying to remember what bobby said	41293767	1472972968485	1472972968602	s	83
79516	868399	I was trying to remember what Bobby said.	i was trying to remember what bobby said	41293769	1472972968649	1472972968785	 	32
79516	868399	I was trying to remember what Bobby said.	i was trying to remember what bobby said	41293772	1472972969082	1472972969201	t	84
79516	868399	I was trying to remember what Bobby said.	i was trying to remember what bobby said	41293775	1472972969294	1472972969403	r	82
79516	868399	I was trying to remember what Bobby said.	i was trying to remember what bobby said	41293778	1472972969481	1472972969571	y	89
79516	868399	I was trying to remember what Bobby said.	i was trying to remember what bobby said	41293780	1472972969757	1472972969885	i	73
79516	868399	I was trying to remember what Bobby said.	i was trying to remember what bobby said	41293800	1472972969961	1472972970085	n	78
79516	868399	I was trying to remember what Bobby said.	i was trying to remember what bobby said	41293802	1472972970179	1472972970270	g	71
79516	868399	I was trying to remember what Bobby said.	i was trying to remember what bobby said	41293803	1472972970364	1472972970454	 	32
79516	868399	I was trying to remember what Bobby said.	i was trying to remember what bobby said	41293804	1472972970549	1472972970667	t	84
79516	868399	I was trying to remember what Bobby said.	i was trying to remember what bobby said	41293805	1472972970683	1472972970801	o	79
79516	868399	I was trying to remember what Bobby said.	i was trying to remember what bobby said	41293820	1472972970877	1472972970985	 	32
79516	868399	I was trying to remember what Bobby said.	i was trying to remember what bobby said	41293822	1472972971079	1472972971201	r	82
79516	868399	I was trying to remember what Bobby said.	i was trying to remember what bobby said	41293824	1472972971295	1472972971417	e	69
79516	868399	I was trying to remember what Bobby said.	i was trying to remember what bobby said	41293825	1472972971479	1472972971586	m	77
79516	868399	I was trying to remember what Bobby said.	i was trying to remember what bobby said	41293826	1472972971648	1472972971736	e	69
79516	868399	I was trying to remember what Bobby said.	i was trying to remember what bobby said	41293851	1472972971801	1472972971887	m	77
79516	868399	I was trying to remember what Bobby said.	i was trying to remember what bobby said	41293853	1472972972546	1472972972619	b	66
79516	868399	I was trying to remember what Bobby said.	i was trying to remember what bobby said	41293856	1472972972682	1472972972755	e	69
79516	868399	I was trying to remember what Bobby said.	i was trying to remember what bobby said	41293858	1472972972895	1472972972918	r	82
79516	868399	I was trying to remember what Bobby said.	i was trying to remember what bobby said	41293859	1472972972939	1472972973037	 	32
79516	868399	I was trying to remember what Bobby said.	i was trying to remember what bobby said	41293915	1472972974244	1472972974383	w	87
79516	868399	I was trying to remember what Bobby said.	i was trying to remember what bobby said	41293916	1472972974816	1472972974903	h	72
79516	868399	I was trying to remember what Bobby said.	i was trying to remember what bobby said	41293917	1472972974950	1472972975052	a	65
79516	868399	I was trying to remember what Bobby said.	i was trying to remember what bobby said	41293919	1472972975098	1472972975171	t	84
79516	868399	I was trying to remember what Bobby said.	i was trying to remember what bobby said	41293922	1472972975348	1472972975410	 	32
79516	868399	I was trying to remember what Bobby said.	i was trying to remember what bobby said	41293952	1472972975793	1472972975885	b	66
79516	868399	I was trying to remember what Bobby said.	i was trying to remember what bobby said	41293953	1472972976010	1472972976118	o	79
79516	868399	I was trying to remember what Bobby said.	i was trying to remember what bobby said	41293954	1472972976290	1472972976376	b	66
79516	868399	I was trying to remember what Bobby said.	i was trying to remember what bobby said	41293955	1472972976438	1472972976520	b	66
79516	868399	I was trying to remember what Bobby said.	i was trying to remember what bobby said	41293956	1472972976599	1472972976701	y	89
79516	868399	I was trying to remember what Bobby said.	i was trying to remember what bobby said	41293973	1472972976793	1472972976886	 	32
79516	868399	I was trying to remember what Bobby said.	i was trying to remember what bobby said	41293974	1472972977058	1472972977198	s	83
79516	868399	I was trying to remember what Bobby said.	i was trying to remember what bobby said	41293975	1472972977229	1472972977366	a	65
79516	868399	I was trying to remember what Bobby said.	i was trying to remember what bobby said	41293976	1472972977428	1472972977520	i	73
79516	868399	I was trying to remember what Bobby said.	i was trying to remember what bobby said	41293977	1472972977676	1472972977784	d	68
79516	868401	You're down by 5 and need to score in 4 plays or less.	youre down by 5 and need to score in 4 plays or less	41294180	1472972984840	1472972984920	y	89
79516	868401	You're down by 5 and need to score in 4 plays or less.	youre down by 5 and need to score in 4 plays or less	41294181	1472972985029	1472972985134	o	79
79516	868401	You're down by 5 and need to score in 4 plays or less.	youre down by 5 and need to score in 4 plays or less	41294182	1472972985290	1472972985384	u	85
79516	868401	You're down by 5 and need to score in 4 plays or less.	youre down by 5 and need to score in 4 plays or less	41294183	1472972985525	1472972985650	r	82
79516	868401	You're down by 5 and need to score in 4 plays or less.	youre down by 5 and need to score in 4 plays or less	41294184	1472972985759	1472972985928	e	69
79516	868401	You're down by 5 and need to score in 4 plays or less.	youre down by 5 and need to score in 4 plays or less	41294210	1472972985900	1472972986001	 	32
79516	868401	You're down by 5 and need to score in 4 plays or less.	youre down by 5 and need to score in 4 plays or less	41294211	1472972986188	1472972986298	d	68
79516	868401	You're down by 5 and need to score in 4 plays or less.	youre down by 5 and need to score in 4 plays or less	41294212	1472972986345	1472972986466	o	79
79516	868401	You're down by 5 and need to score in 4 plays or less.	youre down by 5 and need to score in 4 plays or less	41294213	1472972986528	1472972986648	w	87
79516	868401	You're down by 5 and need to score in 4 plays or less.	youre down by 5 and need to score in 4 plays or less	41294214	1472972986679	1472972986768	n	78
79516	868401	You're down by 5 and need to score in 4 plays or less.	youre down by 5 and need to score in 4 plays or less	41294215	1472972986878	1472972986985	 	32
79516	868401	You're down by 5 and need to score in 4 plays or less.	youre down by 5 and need to score in 4 plays or less	41294288	1472972988003	1472972988114	b	66
79516	868401	You're down by 5 and need to score in 4 plays or less.	youre down by 5 and need to score in 4 plays or less	41294290	1472972988157	1472972988276	a	65
79516	868401	You're down by 5 and need to score in 4 plays or less.	youre down by 5 and need to score in 4 plays or less	41294292	1472972988307	1472972988417	y	89
79516	868401	You're down by 5 and need to score in 4 plays or less.	youre down by 5 and need to score in 4 plays or less	41294296	1472972988526	1472972988648	 	32
79516	868401	You're down by 5 and need to score in 4 plays or less.	youre down by 5 and need to score in 4 plays or less	41294299	1472972989291	1472972989369	BKSP	8
79516	868401	You're down by 5 and need to score in 4 plays or less.	youre down by 5 and need to score in 4 plays or less	41294302	1472972989478	1472972989552	BKSP	8
79516	868401	You're down by 5 and need to score in 4 plays or less.	youre down by 5 and need to score in 4 plays or less	41294305	1472972990086	1472972990167	BKSP	8
79516	868401	You're down by 5 and need to score in 4 plays or less.	youre down by 5 and need to score in 4 plays or less	41294308	1472972990339	1472972990402	y	89
79516	868401	You're down by 5 and need to score in 4 plays or less.	youre down by 5 and need to score in 4 plays or less	41294329	1472972990526	1472972990665	 	32
79516	868401	You're down by 5 and need to score in 4 plays or less.	youre down by 5 and need to score in 4 plays or less	41294330	1472972990868	1472972990918	5	53
79516	868401	You're down by 5 and need to score in 4 plays or less.	youre down by 5 and need to score in 4 plays or less	41294332	1472972991076	1472972991168	 	32
79516	868401	You're down by 5 and need to score in 4 plays or less.	youre down by 5 and need to score in 4 plays or less	41294334	1472972991903	1472972992000	a	65
79516	868401	You're down by 5 and need to score in 4 plays or less.	youre down by 5 and need to score in 4 plays or less	41294337	1472972992109	1472972992184	n	78
79516	868401	You're down by 5 and need to score in 4 plays or less.	youre down by 5 and need to score in 4 plays or less	41294362	1472972992391	1472972992498	d	68
79516	868401	You're down by 5 and need to score in 4 plays or less.	youre down by 5 and need to score in 4 plays or less	41294364	1472972992545	1472972992650	 	32
79516	868401	You're down by 5 and need to score in 4 plays or less.	youre down by 5 and need to score in 4 plays or less	41294365	1472972992853	1472972992957	n	78
79516	868401	You're down by 5 and need to score in 4 plays or less.	youre down by 5 and need to score in 4 plays or less	41294368	1472972993145	1472972993250	e	69
79516	868401	You're down by 5 and need to score in 4 plays or less.	youre down by 5 and need to score in 4 plays or less	41294370	1472972993707	1472972993768	e	69
79516	868401	You're down by 5 and need to score in 4 plays or less.	youre down by 5 and need to score in 4 plays or less	41294405	1472972993863	1472972993949	d	68
79516	868401	You're down by 5 and need to score in 4 plays or less.	youre down by 5 and need to score in 4 plays or less	41294406	1472972993996	1472972994101	 	32
79516	868401	You're down by 5 and need to score in 4 plays or less.	youre down by 5 and need to score in 4 plays or less	41294407	1472972994725	1472972994801	t	84
79516	868401	You're down by 5 and need to score in 4 plays or less.	youre down by 5 and need to score in 4 plays or less	41294408	1472972994848	1472972994919	o	79
79516	868401	You're down by 5 and need to score in 4 plays or less.	youre down by 5 and need to score in 4 plays or less	41294409	1472972995060	1472972995165	 	32
79516	868401	You're down by 5 and need to score in 4 plays or less.	youre down by 5 and need to score in 4 plays or less	41294430	1472972995272	1472972995398	s	83
79516	868401	You're down by 5 and need to score in 4 plays or less.	youre down by 5 and need to score in 4 plays or less	41294432	1472972995507	1472972995647	c	67
79516	868401	You're down by 5 and need to score in 4 plays or less.	youre down by 5 and need to score in 4 plays or less	41294433	1472972995663	1472972995750	o	79
79516	868401	You're down by 5 and need to score in 4 plays or less.	youre down by 5 and need to score in 4 plays or less	41294435	1472972995843	1472972995918	r	82
79516	868401	You're down by 5 and need to score in 4 plays or less.	youre down by 5 and need to score in 4 plays or less	41294436	1472972996059	1472972996165	e	69
79516	868401	You're down by 5 and need to score in 4 plays or less.	youre down by 5 and need to score in 4 plays or less	41294498	1472972996730	1472972996833	 	32
79516	868401	You're down by 5 and need to score in 4 plays or less.	youre down by 5 and need to score in 4 plays or less	41294501	1472972997295	1472972997383	i	73
79516	868401	You're down by 5 and need to score in 4 plays or less.	youre down by 5 and need to score in 4 plays or less	41294502	1472972997461	1472972997549	n	78
79516	868401	You're down by 5 and need to score in 4 plays or less.	youre down by 5 and need to score in 4 plays or less	41294503	1472972997643	1472972997733	 	32
79516	868401	You're down by 5 and need to score in 4 plays or less.	youre down by 5 and need to score in 4 plays or less	41294504	1472972998547	1472972998632	4	52
79516	868401	You're down by 5 and need to score in 4 plays or less.	youre down by 5 and need to score in 4 plays or less	41294517	1472972998803	1472972998901	 	32
79516	868401	You're down by 5 and need to score in 4 plays or less.	youre down by 5 and need to score in 4 plays or less	41294518	1472972999197	1472972999314	p	80
79516	868401	You're down by 5 and need to score in 4 plays or less.	youre down by 5 and need to score in 4 plays or less	41294519	1472972999365	1472972999465	l	76
79516	868401	You're down by 5 and need to score in 4 plays or less.	youre down by 5 and need to score in 4 plays or less	41294520	1472972999528	1472972999631	a	65
79516	868401	You're down by 5 and need to score in 4 plays or less.	youre down by 5 and need to score in 4 plays or less	41294521	1472972999709	1472972999784	y	89
79516	868401	You're down by 5 and need to score in 4 plays or less.	youre down by 5 and need to score in 4 plays or less	41294530	1472972999843	1472972999964	s	83
79516	868401	You're down by 5 and need to score in 4 plays or less.	youre down by 5 and need to score in 4 plays or less	41294531	1472972999995	1472973000069	 	32
79516	868401	You're down by 5 and need to score in 4 plays or less.	youre down by 5 and need to score in 4 plays or less	41294533	1472973000725	1472973000800	o	79
79516	868401	You're down by 5 and need to score in 4 plays or less.	youre down by 5 and need to score in 4 plays or less	41294534	1472973000972	1472973001049	r	82
79516	868401	You're down by 5 and need to score in 4 plays or less.	youre down by 5 and need to score in 4 plays or less	41294536	1472973001128	1472973001216	 	32
79516	868401	You're down by 5 and need to score in 4 plays or less.	youre down by 5 and need to score in 4 plays or less	41294544	1472973001379	1472973001497	l	76
79516	868401	You're down by 5 and need to score in 4 plays or less.	youre down by 5 and need to score in 4 plays or less	41294547	1472973001544	1472973001633	e	69
79516	868401	You're down by 5 and need to score in 4 plays or less.	youre down by 5 and need to score in 4 plays or less	41294550	1472973001742	1472973001847	s	83
79516	868412	Did you differ from me?	did you differ for me	41294662	1472973006315	1472973006429	d	68
79516	868412	Did you differ from me?	did you differ for me	41294667	1472973006648	1472973006717	i	73
79516	868412	Did you differ from me?	did you differ for me	41294670	1472973006810	1472973006883	d	68
79516	868412	Did you differ from me?	did you differ for me	41294673	1472973006945	1472973007063	 	32
79516	868412	Did you differ from me?	did you differ for me	41294675	1472973007282	1472973007392	y	89
79516	868412	Did you differ from me?	did you differ for me	41294691	1472973007424	1472973007577	o	79
79516	868412	Did you differ from me?	did you differ for me	41294694	1472973007655	1472973007733	u	85
79516	868412	Did you differ from me?	did you differ for me	41294696	1472973007906	1472973007998	 	32
79516	868412	Did you differ from me?	did you differ for me	41294697	1472973008217	1472973008312	d	68
79516	868412	Did you differ from me?	did you differ for me	41294698	1472973008422	1472973008477	i	73
79516	868412	Did you differ from me?	did you differ for me	41294718	1472973009909	1472973009983	f	70
79516	868412	Did you differ from me?	did you differ for me	41294721	1472973010061	1472973010132	f	70
79516	868412	Did you differ from me?	did you differ for me	41294723	1472973010272	1472973010363	e	69
79516	868412	Did you differ from me?	did you differ for me	41294725	1472973010441	1472973010532	r	82
79516	868412	Did you differ from me?	did you differ for me	41294726	1472973010563	1472973010679	 	32
79516	868412	Did you differ from me?	did you differ for me	41294732	1472973010796	1472973010881	f	70
79516	868412	Did you differ from me?	did you differ for me	41294733	1472973010975	1472973011048	o	79
79516	868412	Did you differ from me?	did you differ for me	41294734	1472973011298	1472973011382	r	82
79516	868412	Did you differ from me?	did you differ for me	41294735	1472973011444	1472973011546	 	32
79516	868412	Did you differ from me?	did you differ for me	41294736	1472973011656	1472973011763	m	77
79516	868412	Did you differ from me?	did you differ for me	41294737	1472973011818	1472973011898	e	69
79516	868417	No, at least not to my knowledge.	no at least not to my knowledge	41294840	1472973016625	1472973016714	n	78
79516	868417	No, at least not to my knowledge.	no at least not to my knowledge	41294844	1472973016761	1472973016877	o	79
79516	868417	No, at least not to my knowledge.	no at least not to my knowledge	41294846	1472973016971	1472973017080	 	32
79516	868417	No, at least not to my knowledge.	no at least not to my knowledge	41294848	1472973017221	1472973017342	a	65
79516	868417	No, at least not to my knowledge.	no at least not to my knowledge	41294850	1472973017624	1472973017676	t	84
79516	868417	No, at least not to my knowledge.	no at least not to my knowledge	41294877	1472973018704	1472973018781	 	32
79516	868417	No, at least not to my knowledge.	no at least not to my knowledge	41294879	1472973018875	1472973018994	l	76
79516	868417	No, at least not to my knowledge.	no at least not to my knowledge	41294882	1472973019041	1472973019145	e	69
79516	868417	No, at least not to my knowledge.	no at least not to my knowledge	41294885	1472973019284	1472973019394	a	65
79516	868417	No, at least not to my knowledge.	no at least not to my knowledge	41294891	1472973019642	1472973019730	t	84
79516	868417	No, at least not to my knowledge.	no at least not to my knowledge	41294974	1472973020623	1472973020713	BKSP	8
79516	868417	No, at least not to my knowledge.	no at least not to my knowledge	41294977	1472973020807	1472973020881	BKSP	8
79516	868417	No, at least not to my knowledge.	no at least not to my knowledge	41294980	1472973021742	1472973021878	a	65
79516	868417	No, at least not to my knowledge.	no at least not to my knowledge	41294985	1472973022018	1472973022158	s	83
79516	868417	No, at least not to my knowledge.	no at least not to my knowledge	41294991	1472973023475	1472973023532	t	84
79516	868417	No, at least not to my knowledge.	no at least not to my knowledge	41294999	1472973023719	1472973023797	 	32
79516	868417	No, at least not to my knowledge.	no at least not to my knowledge	41295006	1472973023953	1472973024045	n	78
79516	868417	No, at least not to my knowledge.	no at least not to my knowledge	41295029	1472973024092	1472973024210	o	79
79516	868417	No, at least not to my knowledge.	no at least not to my knowledge	41295032	1472973024522	1472973024627	t	84
79516	868417	No, at least not to my knowledge.	no at least not to my knowledge	41295036	1472973024689	1472973024780	 	32
79516	868417	No, at least not to my knowledge.	no at least not to my knowledge	41295041	1472973024968	1472973025077	t	84
79516	868417	No, at least not to my knowledge.	no at least not to my knowledge	41295044	1472973025139	1472973025229	o	79
79516	868417	No, at least not to my knowledge.	no at least not to my knowledge	41295067	1472973025348	1472973025429	 	32
79516	868417	No, at least not to my knowledge.	no at least not to my knowledge	41295069	1472973025547	1472973025661	m	77
79516	868417	No, at least not to my knowledge.	no at least not to my knowledge	41295073	1472973025848	1472973025913	y	89
79516	868417	No, at least not to my knowledge.	no at least not to my knowledge	41295077	1472973026070	1472973026163	 	32
79516	868417	No, at least not to my knowledge.	no at least not to my knowledge	41295079	1472973026366	1472973026460	k	75
79516	868417	No, at least not to my knowledge.	no at least not to my knowledge	41295118	1472973026608	1472973026711	n	78
79516	868417	No, at least not to my knowledge.	no at least not to my knowledge	41295119	1472973026789	1472973026919	o	79
79516	868417	No, at least not to my knowledge.	no at least not to my knowledge	41295120	1472973027232	1472973027327	w	87
79516	868417	No, at least not to my knowledge.	no at least not to my knowledge	41295121	1472973027515	1472973027767	l	76
79516	868417	No, at least not to my knowledge.	no at least not to my knowledge	41295123	1472973027939	1472973028029	e	69
79516	868417	No, at least not to my knowledge.	no at least not to my knowledge	41295182	1472973028171	1472973028277	d	68
79516	868417	No, at least not to my knowledge.	no at least not to my knowledge	41295185	1472973028387	1472973028478	e	69
79516	868417	No, at least not to my knowledge.	no at least not to my knowledge	41295188	1472973029404	1472973029510	BKSP	8
79516	868417	No, at least not to my knowledge.	no at least not to my knowledge	41295190	1472973029698	1472973029778	g	71
79516	868417	No, at least not to my knowledge.	no at least not to my knowledge	41295192	1472973029841	1472973029944	e	69
