PARTICIPANT_ID	TEST_SECTION_ID	SENTENCE	USER_INPUT	KEYSTROKE_ID	PRESS_TIME	RELEASE_TIME	LETTER	KEYCODE
7993	85912	Jane, what about this Thursday for lunch?	Jane, what about this Thursday for lunch?	4091416	1472022581415	1472022581631	SHIFT	16
7993	85912	Jane, what about this Thursday for lunch?	Jane, what about this Thursday for lunch?	4091419	1472022581535	1472022581654	J	74
7993	85912	Jane, what about this Thursday for lunch?	Jane, what about this Thursday for lunch?	4091422	1472022581734	1472022581822	a	65
7993	85912	Jane, what about this Thursday for lunch?	Jane, what about this Thursday for lunch?	4091427	1472022581870	1472022581918	n	78
7993	85912	Jane, what about this Thursday for lunch?	Jane, what about this Thursday for lunch?	4091428	1472022581998	1472022582054	e	69
7993	85912	Jane, what about this Thursday for lunch?	Jane, what about this Thursday for lunch?	4091430	1472022582110	1472022582214	,	188
7993	85912	Jane, what about this Thursday for lunch?	Jane, what about this Thursday for lunch?	4091443	1472022582270	1472022582382	 	32
7993	85912	Jane, what about this Thursday for lunch?	Jane, what about this Thursday for lunch?	4091446	1472022582439	1472022582542	w	87
7993	85912	Jane, what about this Thursday for lunch?	Jane, what about this Thursday for lunch?	4091450	1472022582575	1472022582670	h	72
7993	85912	Jane, what about this Thursday for lunch?	Jane, what about this Thursday for lunch?	4091454	1472022582686	1472022582766	a	65
7993	85912	Jane, what about this Thursday for lunch?	Jane, what about this Thursday for lunch?	4091461	1472022582807	1472022582862	t	82
7993	85912	Jane, what about this Thursday for lunch?	Jane, what about this Thursday for lunch?	4091566	1472022582894	1472022583006	 	32
7993	85912	Jane, what about this Thursday for lunch?	Jane, what about this Thursday for lunch?	4091567	1472022583414	1472022583486	BKSP	8
7993	85912	Jane, what about this Thursday for lunch?	Jane, what about this Thursday for lunch?	4091568	1472022583566	1472022583638	BKSP	8
7993	85912	Jane, what about this Thursday for lunch?	Jane, what about this Thursday for lunch?	4091569	1472022583710	1472022583782	BKSP	8
7993	85912	Jane, what about this Thursday for lunch?	Jane, what about this Thursday for lunch?	4091570	1472022583846	1472022583902	BKSP	8
7993	85912	Jane, what about this Thursday for lunch?	Jane, what about this Thursday for lunch?	4091573	1472022583966	1472022584030	BKSP	8
7993	85912	Jane, what about this Thursday for lunch?	Jane, what about this Thursday for lunch?	4091575	1472022584086	1472022584134	BKSP	8
7993	85912	Jane, what about this Thursday for lunch?	Jane, what about this Thursday for lunch?	4091578	1472022584630	1472022584734	w	87
7993	85912	Jane, what about this Thursday for lunch?	Jane, what about this Thursday for lunch?	4091582	1472022584758	1472022584847	h	72
7993	85912	Jane, what about this Thursday for lunch?	Jane, what about this Thursday for lunch?	4091587	1472022584838	1472022584910	a	65
7993	85912	Jane, what about this Thursday for lunch?	Jane, what about this Thursday for lunch?	4091590	1472022584950	1472022585038	t	84
7993	85912	Jane, what about this Thursday for lunch?	Jane, what about this Thursday for lunch?	4091604	1472022585054	1472022585150	 	32
7993	85912	Jane, what about this Thursday for lunch?	Jane, what about this Thursday for lunch?	4091606	1472022585158	1472022585238	a	65
7993	85912	Jane, what about this Thursday for lunch?	Jane, what about this Thursday for lunch?	4091610	1472022585270	1472022585334	b	66
7993	85912	Jane, what about this Thursday for lunch?	Jane, what about this Thursday for lunch?	4091611	1472022585478	1472022585534	o	79
7993	85912	Jane, what about this Thursday for lunch?	Jane, what about this Thursday for lunch?	4091612	1472022585646	1472022585710	u	85
7993	85912	Jane, what about this Thursday for lunch?	Jane, what about this Thursday for lunch?	4091620	1472022585734	1472022585814	t	84
7993	85912	Jane, what about this Thursday for lunch?	Jane, what about this Thursday for lunch?	4091623	1472022585846	1472022585934	 	32
7993	85912	Jane, what about this Thursday for lunch?	Jane, what about this Thursday for lunch?	4091625	1472022585966	1472022586014	y	89
7993	85912	Jane, what about this Thursday for lunch?	Jane, what about this Thursday for lunch?	4091660	1472022586054	1472022586110	j	72
7993	85912	Jane, what about this Thursday for lunch?	Jane, what about this Thursday for lunch?	4091663	1472022586462	1472022586534	BKSP	8
7993	85912	Jane, what about this Thursday for lunch?	Jane, what about this Thursday for lunch?	4091665	1472022586623	1472022586686	BKSP	8
7993	85912	Jane, what about this Thursday for lunch?	Jane, what about this Thursday for lunch?	4091667	1472022586742	1472022586822	BKSP	8
7993	85912	Jane, what about this Thursday for lunch?	Jane, what about this Thursday for lunch?	4091669	1472022586886	1472022586958	t	84
7993	85912	Jane, what about this Thursday for lunch?	Jane, what about this Thursday for lunch?	4091672	1472022586982	1472022587046	h	72
7993	85912	Jane, what about this Thursday for lunch?	Jane, what about this Thursday for lunch?	4091674	1472022587150	1472022587222	i	73
7993	85912	Jane, what about this Thursday for lunch?	Jane, what about this Thursday for lunch?	4091676	1472022587254	1472022587318	s	83
7993	85912	Jane, what about this Thursday for lunch?	Jane, what about this Thursday for lunch?	4091681	1472022587390	1472022587486	 	32
7993	85912	Jane, what about this Thursday for lunch?	Jane, what about this Thursday for lunch?	4091720	1472022587454	1472022587670	SHIFT	16
7993	85912	Jane, what about this Thursday for lunch?	Jane, what about this Thursday for lunch?	4091716	1472022587566	1472022587638	T	84
7993	85912	Jane, what about this Thursday for lunch?	Jane, what about this Thursday for lunch?	4091724	1472022587750	1472022587814	h	72
7993	85912	Jane, what about this Thursday for lunch?	Jane, what about this Thursday for lunch?	4091729	1472022587894	1472022587966	u	85
7993	85912	Jane, what about this Thursday for lunch?	Jane, what about this Thursday for lunch?	4091731	1472022587990	1472022588070	r	82
7993	85912	Jane, what about this Thursday for lunch?	Jane, what about this Thursday for lunch?	4091734	1472022588583	1472022588702	s	83
7993	85912	Jane, what about this Thursday for lunch?	Jane, what about this Thursday for lunch?	4091756	1472022588734	1472022588814	a	65
7993	85912	Jane, what about this Thursday for lunch?	Jane, what about this Thursday for lunch?	4091759	1472022588863	1472022588950	y	89
7993	85912	Jane, what about this Thursday for lunch?	Jane, what about this Thursday for lunch?	4091762	1472022589054	1472022589166	 	32
7993	85912	Jane, what about this Thursday for lunch?	Jane, what about this Thursday for lunch?	4091765	1472022589238	1472022589350	f	70
7993	85912	Jane, what about this Thursday for lunch?	Jane, what about this Thursday for lunch?	4091768	1472022589422	1472022589510	o	79
7993	85912	Jane, what about this Thursday for lunch?	Jane, what about this Thursday for lunch?	4091865	1472022589694	1472022589758	BKSP	8
7993	85912	Jane, what about this Thursday for lunch?	Jane, what about this Thursday for lunch?	4091867	1472022589838	1472022589910	BKSP	8
7993	85912	Jane, what about this Thursday for lunch?	Jane, what about this Thursday for lunch?	4091872	1472022589974	1472022590046	BKSP	8
7993	85912	Jane, what about this Thursday for lunch?	Jane, what about this Thursday for lunch?	4091880	1472022590118	1472022590182	BKSP	8
7993	85912	Jane, what about this Thursday for lunch?	Jane, what about this Thursday for lunch?	4091884	1472022590254	1472022590318	BKSP	8
7993	85912	Jane, what about this Thursday for lunch?	Jane, what about this Thursday for lunch?	4091890	1472022591006	1472022591086	d	68
7993	85912	Jane, what about this Thursday for lunch?	Jane, what about this Thursday for lunch?	4091895	1472022591174	1472022591254	a	65
7993	85912	Jane, what about this Thursday for lunch?	Jane, what about this Thursday for lunch?	4091898	1472022591262	1472022591358	y	89
7993	85912	Jane, what about this Thursday for lunch?	Jane, what about this Thursday for lunch?	4091901	1472022591374	1472022591502	 	32
7993	85912	Jane, what about this Thursday for lunch?	Jane, what about this Thursday for lunch?	4091931	1472022591486	1472022591574	f	70
7993	85912	Jane, what about this Thursday for lunch?	Jane, what about this Thursday for lunch?	4091933	1472022591590	1472022591670	o	79
7993	85912	Jane, what about this Thursday for lunch?	Jane, what about this Thursday for lunch?	4091936	1472022591702	1472022591766	r	82
7993	85912	Jane, what about this Thursday for lunch?	Jane, what about this Thursday for lunch?	4091938	1472022592022	1472022592110	 	32
7993	85912	Jane, what about this Thursday for lunch?	Jane, what about this Thursday for lunch?	4091940	1472022592198	1472022592278	l	76
7993	85912	Jane, what about this Thursday for lunch?	Jane, what about this Thursday for lunch?	4091942	1472022592398	1472022592470	u	85
7993	85912	Jane, what about this Thursday for lunch?	Jane, what about this Thursday for lunch?	4091971	1472022592638	1472022592710	n	78
7993	85912	Jane, what about this Thursday for lunch?	Jane, what about this Thursday for lunch?	4091975	1472022592998	1472022593054	h	72
7993	85912	Jane, what about this Thursday for lunch?	Jane, what about this Thursday for lunch?	4091976	1472022593070	1472022593182	c	67
7993	85912	Jane, what about this Thursday for lunch?	Jane, what about this Thursday for lunch?	4091980	1472022593342	1472022593398	BKSP	8
7993	85912	Jane, what about this Thursday for lunch?	Jane, what about this Thursday for lunch?	4091985	1472022593478	1472022593542	BKSP	8
7993	85912	Jane, what about this Thursday for lunch?	Jane, what about this Thursday for lunch?	4091990	1472022593566	1472022593646	c	67
7993	85912	Jane, what about this Thursday for lunch?	Jane, what about this Thursday for lunch?	4091997	1472022593670	1472022593734	h	72
7993	85912	Jane, what about this Thursday for lunch?	Jane, what about this Thursday for lunch?	4092018	1472022593982	1472022594254	SHIFT	16
7993	85912	Jane, what about this Thursday for lunch?	Jane, what about this Thursday for lunch?	4092020	1472022594182	1472022594270	?	191
7993	85927	But his father likes what he sees from his son's engine.	But his father likes what he sees from his son's engine	4092196	1472022597054	1472022597302	SHIFT	16
7993	85927	But his father likes what he sees from his son's engine.	But his father likes what he sees from his son's engine	4092194	1472022597182	1472022597254	B	66
7993	85927	But his father likes what he sees from his son's engine.	But his father likes what he sees from his son's engine	4092201	1472022597382	1472022597462	u	85
7993	85927	But his father likes what he sees from his son's engine.	But his father likes what he sees from his son's engine	4092205	1472022597566	1472022597614	t	84
7993	85927	But his father likes what he sees from his son's engine.	But his father likes what he sees from his son's engine	4092208	1472022597646	1472022597776	 	32
7993	85927	But his father likes what he sees from his son's engine.	But his father likes what he sees from his son's engine	4092268	1472022597766	1472022597814	j	72
7993	85927	But his father likes what he sees from his son's engine.	But his father likes what he sees from his son's engine	4092271	1472022597926	1472022597990	i	73
7993	85927	But his father likes what he sees from his son's engine.	But his father likes what he sees from his son's engine	4092274	1472022598206	1472022598286	BKSP	8
7993	85927	But his father likes what he sees from his son's engine.	But his father likes what he sees from his son's engine	4092277	1472022598366	1472022598423	BKSP	8
7993	85927	But his father likes what he sees from his son's engine.	But his father likes what he sees from his son's engine	4092280	1472022598479	1472022598510	BKSP	8
7993	85927	But his father likes what he sees from his son's engine.	But his father likes what he sees from his son's engine	4092284	1472022598662	1472022598727	i	73
7993	85927	But his father likes what he sees from his son's engine.	But his father likes what he sees from his son's engine	4092288	1472022598950	1472022599038	BKSP	8
7993	85927	But his father likes what he sees from his son's engine.	But his father likes what he sees from his son's engine	4092290	1472022599190	1472022599254	h	72
7993	85927	But his father likes what he sees from his son's engine.	But his father likes what he sees from his son's engine	4092294	1472022599342	1472022599422	i	73
7993	85927	But his father likes what he sees from his son's engine.	But his father likes what he sees from his son's engine	4092318	1472022599470	1472022599542	s	83
7993	85927	But his father likes what he sees from his son's engine.	But his father likes what he sees from his son's engine	4092319	1472022599574	1472022599678	 	32
7993	85927	But his father likes what he sees from his son's engine.	But his father likes what he sees from his son's engine	4092320	1472022599710	1472022599742	g	71
7993	85927	But his father likes what he sees from his son's engine.	But his father likes what he sees from his son's engine	4092321	1472022600086	1472022600166	=	187
7993	85927	But his father likes what he sees from his son's engine.	But his father likes what he sees from his son's engine	4092322	1472022600190	1472022600262	f	70
7993	85927	But his father likes what he sees from his son's engine.	But his father likes what he sees from his son's engine	4092409	1472022600398	1472022600462	a	65
7993	85927	But his father likes what he sees from his son's engine.	But his father likes what he sees from his son's engine	4092412	1472022600622	1472022600670	BKSP	8
7993	85927	But his father likes what he sees from his son's engine.	But his father likes what he sees from his son's engine	4092415	1472022600766	1472022600838	BKSP	8
7993	85927	But his father likes what he sees from his son's engine.	But his father likes what he sees from his son's engine	4092417	1472022600902	1472022600966	BKSP	8
7993	85927	But his father likes what he sees from his son's engine.	But his father likes what he sees from his son's engine	4092420	1472022601030	1472022601086	BKSP	8
7993	85927	But his father likes what he sees from his son's engine.	But his father likes what he sees from his son's engine	4092421	1472022601150	1472022601198	BKSP	8
7993	85927	But his father likes what he sees from his son's engine.	But his father likes what he sees from his son's engine	4092422	1472022601262	1472022601334	f	70
7993	85927	But his father likes what he sees from his son's engine.	But his father likes what he sees from his son's engine	4092423	1472022601534	1472022601662	 	32
7993	85927	But his father likes what he sees from his son's engine.	But his father likes what he sees from his son's engine	4092424	1472022601998	1472022602086	BKSP	8
7993	85927	But his father likes what he sees from his son's engine.	But his father likes what he sees from his son's engine	4092425	1472022602182	1472022602230	BKSP	8
7993	85927	But his father likes what he sees from his son's engine.	But his father likes what he sees from his son's engine	4092426	1472022602430	1472022602542	 	32
7993	85927	But his father likes what he sees from his son's engine.	But his father likes what he sees from his son's engine	4092433	1472022602518	1472022602614	f	70
7993	85927	But his father likes what he sees from his son's engine.	But his father likes what he sees from his son's engine	4092436	1472022602750	1472022602822	a	65
7993	85927	But his father likes what he sees from his son's engine.	But his father likes what he sees from his son's engine	4092437	1472022602854	1472022602918	t	84
7993	85927	But his father likes what he sees from his son's engine.	But his father likes what he sees from his son's engine	4092440	1472022603030	1472022603102	h	72
7993	85927	But his father likes what he sees from his son's engine.	But his father likes what he sees from his son's engine	4092442	1472022603142	1472022603270	e	69
7993	85927	But his father likes what he sees from his son's engine.	But his father likes what he sees from his son's engine	4092466	1472022603214	1472022603303	r	82
7993	85927	But his father likes what he sees from his son's engine.	But his father likes what he sees from his son's engine	4092469	1472022603414	1472022603534	 	32
7993	85927	But his father likes what he sees from his son's engine.	But his father likes what he sees from his son's engine	4092473	1472022603638	1472022603726	l	76
7993	85927	But his father likes what he sees from his son's engine.	But his father likes what he sees from his son's engine	4092479	1472022603822	1472022603886	i	73
7993	85927	But his father likes what he sees from his son's engine.	But his father likes what he sees from his son's engine	4092483	1472022603974	1472022604063	k	75
7993	85927	But his father likes what he sees from his son's engine.	But his father likes what he sees from his son's engine	4092512	1472022604055	1472022604118	e	69
7993	85927	But his father likes what he sees from his son's engine.	But his father likes what he sees from his son's engine	4092515	1472022604230	1472022604302	s	83
7993	85927	But his father likes what he sees from his son's engine.	But his father likes what he sees from his son's engine	4092519	1472022604318	1472022604414	 	32
7993	85927	But his father likes what he sees from his son's engine.	But his father likes what he sees from his son's engine	4092521	1472022604422	1472022604510	w	87
7993	85927	But his father likes what he sees from his son's engine.	But his father likes what he sees from his son's engine	4092523	1472022604526	1472022604614	h	72
7993	85927	But his father likes what he sees from his son's engine.	But his father likes what he sees from his son's engine	4092525	1472022604646	1472022604718	a	65
7993	85927	But his father likes what he sees from his son's engine.	But his father likes what he sees from his son's engine	4092533	1472022604735	1472022604806	t	84
7993	85927	But his father likes what he sees from his son's engine.	But his father likes what he sees from his son's engine	4092537	1472022604854	1472022604942	 	32
7993	85927	But his father likes what he sees from his son's engine.	But his father likes what he sees from his son's engine	4092542	1472022604982	1472022605062	h	72
7993	85927	But his father likes what he sees from his son's engine.	But his father likes what he sees from his son's engine	4092545	1472022605063	1472022605134	e	69
7993	85927	But his father likes what he sees from his son's engine.	But his father likes what he sees from his son's engine	4092549	1472022605174	1472022605262	 	32
7993	85927	But his father likes what he sees from his son's engine.	But his father likes what he sees from his son's engine	4092572	1472022605278	1472022605358	s	83
7993	85927	But his father likes what he sees from his son's engine.	But his father likes what he sees from his son's engine	4092574	1472022605494	1472022605558	e	69
7993	85927	But his father likes what he sees from his son's engine.	But his father likes what he sees from his son's engine	4092576	1472022605630	1472022605686	e	69
7993	85927	But his father likes what he sees from his son's engine.	But his father likes what he sees from his son's engine	4092578	1472022605790	1472022605878	s	83
7993	85927	But his father likes what he sees from his son's engine.	But his father likes what he sees from his son's engine	4092580	1472022605894	1472022606014	 	32
7993	85927	But his father likes what he sees from his son's engine.	But his father likes what he sees from his son's engine	4092601	1472022606118	1472022606222	f	70
7993	85927	But his father likes what he sees from his son's engine.	But his father likes what he sees from his son's engine	4092609	1472022606310	1472022606374	r	82
7993	85927	But his father likes what he sees from his son's engine.	But his father likes what he sees from his son's engine	4092612	1472022606414	1472022606486	o	79
7993	85927	But his father likes what he sees from his son's engine.	But his father likes what he sees from his son's engine	4092689	1472022606622	1472022606686	,	77
7993	85927	But his father likes what he sees from his son's engine.	But his father likes what he sees from his son's engine	4092691	1472022607078	1472022607158	BKSP	8
7993	85927	But his father likes what he sees from his son's engine.	But his father likes what he sees from his son's engine	4092693	1472022607414	1472022607510	 	32
7993	85927	But his father likes what he sees from his son's engine.	But his father likes what he sees from his son's engine	4092695	1472022607518	1472022607598	t	84
7993	85927	But his father likes what he sees from his son's engine.	But his father likes what he sees from his son's engine	4092697	1472022607622	1472022607702	h	72
7993	85927	But his father likes what he sees from his son's engine.	But his father likes what he sees from his son's engine	4092701	1472022607886	1472022607958	BKSP	8
7993	85927	But his father likes what he sees from his son's engine.	But his father likes what he sees from his son's engine	4092705	1472022608126	1472022608166	h	72
7993	85927	But his father likes what he sees from his son's engine.	But his father likes what he sees from his son's engine	4092709	1472022608326	1472022608390	BKSP	8
7993	85927	But his father likes what he sees from his son's engine.	But his father likes what he sees from his son's engine	4092712	1472022608478	1472022608542	BKSP	8
7993	85927	But his father likes what he sees from his son's engine.	But his father likes what he sees from his son's engine	4092713	1472022608782	1472022608846	h	72
7993	85927	But his father likes what he sees from his son's engine.	But his father likes what he sees from his son's engine	4092715	1472022608974	1472022609038	i	73
7993	85927	But his father likes what he sees from his son's engine.	But his father likes what he sees from his son's engine	4092717	1472022609086	1472022609158	s	83
7993	85927	But his father likes what he sees from his son's engine.	But his father likes what he sees from his son's engine	4092720	1472022609198	1472022609294	 	32
7993	85927	But his father likes what he sees from his son's engine.	But his father likes what he sees from his son's engine	4092723	1472022609302	1472022609358	s	83
7993	85927	But his father likes what he sees from his son's engine.	But his father likes what he sees from his son's engine	4092727	1472022609366	1472022609430	o	79
7993	85927	But his father likes what he sees from his son's engine.	But his father likes what he sees from his son's engine	4092775	1472022609551	1472022609598	n	78
7993	85927	But his father likes what he sees from his son's engine.	But his father likes what he sees from his son's engine	4092780	1472022610087	1472022610158	'	222
7993	85927	But his father likes what he sees from his son's engine.	But his father likes what he sees from his son's engine	4092783	1472022610286	1472022610358	s	83
7993	85927	But his father likes what he sees from his son's engine.	But his father likes what he sees from his son's engine	4092786	1472022610454	1472022610574	 	32
7993	85927	But his father likes what he sees from his son's engine.	But his father likes what he sees from his son's engine	4092788	1472022610902	1472022610990	e	69
7993	85927	But his father likes what he sees from his son's engine.	But his father likes what he sees from his son's engine	4092834	1472022611350	1472022611454	n	78
7993	85927	But his father likes what he sees from his son's engine.	But his father likes what he sees from his son's engine	4092837	1472022611518	1472022611614	g	71
7993	85927	But his father likes what he sees from his son's engine.	But his father likes what he sees from his son's engine	4092840	1472022611622	1472022611686	i	73
7993	85927	But his father likes what he sees from his son's engine.	But his father likes what he sees from his son's engine	4092842	1472022611798	1472022611862	n	78
7993	85927	But his father likes what he sees from his son's engine.	But his father likes what he sees from his son's engine	4092843	1472022611926	1472022611990	e	69
7993	85945	However, he's not worth starting on your Fantasy team.	However, he's not worth starting on your fantasy team	4093005	1472022614726	1472022615022	SHIFT	16
7993	85945	However, he's not worth starting on your Fantasy team.	However, he's not worth starting on your fantasy team	4093002	1472022614910	1472022614982	H	72
7993	85945	However, he's not worth starting on your Fantasy team.	However, he's not worth starting on your fantasy team	4093009	1472022615126	1472022615198	o	79
7993	85945	However, he's not worth starting on your Fantasy team.	However, he's not worth starting on your fantasy team	4093012	1472022615294	1472022615390	w	87
7993	85945	However, he's not worth starting on your Fantasy team.	However, he's not worth starting on your fantasy team	4093013	1472022615598	1472022615678	e	69
7993	85945	However, he's not worth starting on your Fantasy team.	However, he's not worth starting on your fantasy team	4093015	1472022615766	1472022615822	v	86
7993	85945	However, he's not worth starting on your Fantasy team.	However, he's not worth starting on your fantasy team	4093051	1472022615886	1472022616022	e	69
7993	85945	However, he's not worth starting on your Fantasy team.	However, he's not worth starting on your fantasy team	4093054	1472022615982	1472022616078	r	82
7993	85945	However, he's not worth starting on your Fantasy team.	However, he's not worth starting on your fantasy team	4093059	1472022616118	1472022616206	,	188
7993	85945	However, he's not worth starting on your Fantasy team.	However, he's not worth starting on your fantasy team	4093062	1472022616302	1472022616422	 	32
7993	85945	However, he's not worth starting on your Fantasy team.	However, he's not worth starting on your fantasy team	4093065	1472022616654	1472022616750	h	72
7993	85945	However, he's not worth starting on your Fantasy team.	However, he's not worth starting on your fantasy team	4093097	1472022616822	1472022616902	e	69
7993	85945	However, he's not worth starting on your Fantasy team.	However, he's not worth starting on your fantasy team	4093099	1472022617223	1472022617295	'	222
7993	85945	However, he's not worth starting on your Fantasy team.	However, he's not worth starting on your fantasy team	4093102	1472022617406	1472022617470	s	83
7993	85945	However, he's not worth starting on your Fantasy team.	However, he's not worth starting on your fantasy team	4093106	1472022617502	1472022617614	 	32
7993	85945	However, he's not worth starting on your Fantasy team.	However, he's not worth starting on your fantasy team	4093138	1472022617598	1472022617670	n	78
7993	85945	However, he's not worth starting on your Fantasy team.	However, he's not worth starting on your fantasy team	4093140	1472022617790	1472022617870	o	79
7993	85945	However, he's not worth starting on your Fantasy team.	However, he's not worth starting on your fantasy team	4093144	1472022617934	1472022618014	t	84
7993	85945	However, he's not worth starting on your Fantasy team.	However, he's not worth starting on your fantasy team	4093149	1472022618054	1472022618174	 	32
7993	85945	However, he's not worth starting on your Fantasy team.	However, he's not worth starting on your fantasy team	4093153	1472022618270	1472022618342	w	87
7993	85945	However, he's not worth starting on your Fantasy team.	However, he's not worth starting on your fantasy team	4093158	1472022618374	1472022618454	o	79
7993	85945	However, he's not worth starting on your Fantasy team.	However, he's not worth starting on your fantasy team	4093177	1472022618566	1472022618638	r	82
7993	85945	However, he's not worth starting on your Fantasy team.	However, he's not worth starting on your fantasy team	4093178	1472022618766	1472022618830	t	84
7993	85945	However, he's not worth starting on your Fantasy team.	However, he's not worth starting on your fantasy team	4093180	1472022618862	1472022618950	h	72
7993	85945	However, he's not worth starting on your Fantasy team.	However, he's not worth starting on your fantasy team	4093182	1472022618982	1472022619094	 	32
7993	85945	However, he's not worth starting on your Fantasy team.	However, he's not worth starting on your fantasy team	4093185	1472022619230	1472022619326	s	83
7993	85945	However, he's not worth starting on your Fantasy team.	However, he's not worth starting on your fantasy team	4093246	1472022619406	1472022619486	t	84
7993	85945	However, he's not worth starting on your Fantasy team.	However, he's not worth starting on your fantasy team	4093250	1472022619559	1472022619630	a	65
7993	85945	However, he's not worth starting on your Fantasy team.	However, he's not worth starting on your fantasy team	4093256	1472022619814	1472022619878	r	82
7993	85945	However, he's not worth starting on your Fantasy team.	However, he's not worth starting on your fantasy team	4093262	1472022620319	1472022620398	t	84
7993	85945	However, he's not worth starting on your Fantasy team.	However, he's not worth starting on your fantasy team	4093268	1472022620430	1472022620502	i	73
7993	85945	However, he's not worth starting on your Fantasy team.	However, he's not worth starting on your fantasy team	4093292	1472022620607	1472022620702	n	78
7993	85945	However, he's not worth starting on your Fantasy team.	However, he's not worth starting on your fantasy team	4093295	1472022620718	1472022620790	g	71
7993	85945	However, he's not worth starting on your Fantasy team.	However, he's not worth starting on your fantasy team	4093298	1472022620822	1472022620926	 	32
7993	85945	However, he's not worth starting on your Fantasy team.	However, he's not worth starting on your fantasy team	4093301	1472022620982	1472022621054	o	79
7993	85945	However, he's not worth starting on your Fantasy team.	However, he's not worth starting on your fantasy team	4093304	1472022621166	1472022621239	n	78
7993	85945	However, he's not worth starting on your Fantasy team.	However, he's not worth starting on your fantasy team	4093348	1472022621326	1472022621398	 	32
7993	85945	However, he's not worth starting on your Fantasy team.	However, he's not worth starting on your fantasy team	4093351	1472022621542	1472022621630	y	89
7993	85945	However, he's not worth starting on your Fantasy team.	However, he's not worth starting on your fantasy team	4093354	1472022621686	1472022621742	o	79
7993	85945	However, he's not worth starting on your Fantasy team.	However, he's not worth starting on your fantasy team	4093357	1472022621958	1472022622006	u	85
7993	85945	However, he's not worth starting on your Fantasy team.	However, he's not worth starting on your fantasy team	4093360	1472022622190	1472022622278	r	82
7993	85945	However, he's not worth starting on your Fantasy team.	However, he's not worth starting on your fantasy team	4093390	1472022622358	1472022622470	 	32
7993	85945	However, he's not worth starting on your Fantasy team.	However, he's not worth starting on your fantasy team	4093393	1472022622694	1472022622766	f	70
7993	85945	However, he's not worth starting on your Fantasy team.	However, he's not worth starting on your fantasy team	4093402	1472022622878	1472022622966	a	65
7993	85945	However, he's not worth starting on your Fantasy team.	However, he's not worth starting on your fantasy team	4093408	1472022623006	1472022623094	n	78
7993	85945	However, he's not worth starting on your Fantasy team.	However, he's not worth starting on your fantasy team	4093413	1472022623150	1472022623222	t	84
7993	85945	However, he's not worth starting on your Fantasy team.	However, he's not worth starting on your fantasy team	4093425	1472022623374	1472022623511	a	65
7993	85945	However, he's not worth starting on your Fantasy team.	However, he's not worth starting on your fantasy team	4093427	1472022623487	1472022623575	s	83
7993	85945	However, he's not worth starting on your Fantasy team.	However, he's not worth starting on your fantasy team	4093429	1472022623622	1472022623702	y	89
7993	85945	However, he's not worth starting on your Fantasy team.	However, he's not worth starting on your fantasy team	4093431	1472022623862	1472022623974	 	32
7993	85945	However, he's not worth starting on your Fantasy team.	However, he's not worth starting on your fantasy team	4093435	1472022624126	1472022624214	t	84
7993	85945	However, he's not worth starting on your Fantasy team.	However, he's not worth starting on your fantasy team	4093472	1472022624366	1472022624438	e	69
7993	85945	However, he's not worth starting on your Fantasy team.	However, he's not worth starting on your fantasy team	4093474	1472022624558	1472022624646	a	65
7993	85945	However, he's not worth starting on your Fantasy team.	However, he's not worth starting on your fantasy team	4093479	1472022624678	1472022624742	m	77
7993	85969	It was great to finally meet you.	It was great to finally meet you.	4094239	1472022641407	1472022641678	SHIFT	16
7993	85969	It was great to finally meet you.	It was great to finally meet you.	4094236	1472022641574	1472022641654	I	73
7993	85969	It was great to finally meet you.	It was great to finally meet you.	4094245	1472022641838	1472022641918	t	84
7993	85969	It was great to finally meet you.	It was great to finally meet you.	4094246	1472022641958	1472022642078	 	32
7993	85969	It was great to finally meet you.	It was great to finally meet you.	4094251	1472022642062	1472022642134	w	87
7993	85969	It was great to finally meet you.	It was great to finally meet you.	4094253	1472022642150	1472022642334	a	65
7993	85969	It was great to finally meet you.	It was great to finally meet you.	4094283	1472022642302	1472022642390	s	83
7993	85969	It was great to finally meet you.	It was great to finally meet you.	4094285	1472022642414	1472022642502	 	32
7993	85969	It was great to finally meet you.	It was great to finally meet you.	4094289	1472022642582	1472022642670	g	71
7993	85969	It was great to finally meet you.	It was great to finally meet you.	4094292	1472022642686	1472022642822	r	82
7993	85969	It was great to finally meet you.	It was great to finally meet you.	4094297	1472022642775	1472022642894	e	69
7993	85969	It was great to finally meet you.	It was great to finally meet you.	4094300	1472022643039	1472022643142	a	65
7993	85969	It was great to finally meet you.	It was great to finally meet you.	4094322	1472022643158	1472022643230	t	84
7993	85969	It was great to finally meet you.	It was great to finally meet you.	4094324	1472022643310	1472022643422	 	32
7993	85969	It was great to finally meet you.	It was great to finally meet you.	4094325	1472022643454	1472022643550	t	84
7993	85969	It was great to finally meet you.	It was great to finally meet you.	4094326	1472022643582	1472022643662	o	79
7993	85969	It was great to finally meet you.	It was great to finally meet you.	4094327	1472022643695	1472022643798	 	32
7993	85969	It was great to finally meet you.	It was great to finally meet you.	4094361	1472022643830	1472022643910	f	70
7993	85969	It was great to finally meet you.	It was great to finally meet you.	4094363	1472022643926	1472022643982	i	73
7993	85969	It was great to finally meet you.	It was great to finally meet you.	4094365	1472022644110	1472022644166	n	78
7993	85969	It was great to finally meet you.	It was great to finally meet you.	4094367	1472022644230	1472022644310	a	65
7993	85969	It was great to finally meet you.	It was great to finally meet you.	4094372	1472022644359	1472022644430	l	76
7993	85969	It was great to finally meet you.	It was great to finally meet you.	4094402	1472022644510	1472022644582	l	76
7993	85969	It was great to finally meet you.	It was great to finally meet you.	4094405	1472022644663	1472022644742	y	89
7993	85969	It was great to finally meet you.	It was great to finally meet you.	4094410	1472022644806	1472022644894	 	32
7993	85969	It was great to finally meet you.	It was great to finally meet you.	4094415	1472022644935	1472022645038	m	77
7993	85969	It was great to finally meet you.	It was great to finally meet you.	4094421	1472022645086	1472022645150	e	69
7993	85969	It was great to finally meet you.	It was great to finally meet you.	4094499	1472022645294	1472022645334	e	69
7993	85969	It was great to finally meet you.	It was great to finally meet you.	4094501	1472022645870	1472022645950	t	84
7993	85969	It was great to finally meet you.	It was great to finally meet you.	4094503	1472022646030	1472022646134	 	32
7993	85969	It was great to finally meet you.	It was great to finally meet you.	4094508	1472022646150	1472022646214	y	89
7993	85969	It was great to finally meet you.	It was great to finally meet you.	4094513	1472022647014	1472022647078	o	79
7993	85969	It was great to finally meet you.	It was great to finally meet you.	4094526	1472022647158	1472022647230	u	85
7993	85969	It was great to finally meet you.	It was great to finally meet you.	4094529	1472022647302	1472022647366	.	190
7993	85973	Let me know if I miss anything.	Let me know if I miss anything.	4094695	1472022650222	1472022650502	SHIFT	16
7993	85973	Let me know if I miss anything.	Let me know if I miss anything.	4094697	1472022650422	1472022650518	L	76
7993	85973	Let me know if I miss anything.	Let me know if I miss anything.	4094699	1472022650638	1472022650710	e	69
7993	85973	Let me know if I miss anything.	Let me know if I miss anything.	4094702	1472022650974	1472022651038	t	84
7993	85973	Let me know if I miss anything.	Let me know if I miss anything.	4094705	1472022651134	1472022651230	 	32
7993	85973	Let me know if I miss anything.	Let me know if I miss anything.	4094708	1472022651334	1472022651422	m	77
7993	85973	Let me know if I miss anything.	Let me know if I miss anything.	4094725	1472022651502	1472022651678	e	69
7993	85973	Let me know if I miss anything.	Let me know if I miss anything.	4094728	1472022652022	1472022652126	 	32
7993	85973	Let me know if I miss anything.	Let me know if I miss anything.	4094733	1472022652142	1472022652206	k	75
7993	85973	Let me know if I miss anything.	Let me know if I miss anything.	4094738	1472022652310	1472022652374	n	78
7993	85973	Let me know if I miss anything.	Let me know if I miss anything.	4094743	1472022652486	1472022652566	o	79
7993	85973	Let me know if I miss anything.	Let me know if I miss anything.	4094778	1472022652590	1472022652670	w	87
7993	85973	Let me know if I miss anything.	Let me know if I miss anything.	4094781	1472022652710	1472022652806	 	32
7993	85973	Let me know if I miss anything.	Let me know if I miss anything.	4094784	1472022652838	1472022652918	i	73
7993	85973	Let me know if I miss anything.	Let me know if I miss anything.	4094786	1472022653174	1472022653302	d	68
7993	85973	Let me know if I miss anything.	Let me know if I miss anything.	4094788	1472022653534	1472022653590	 	32
7993	85973	Let me know if I miss anything.	Let me know if I miss anything.	4094831	1472022653726	1472022653790	BKSP	8
7993	85973	Let me know if I miss anything.	Let me know if I miss anything.	4094832	1472022653878	1472022653966	BKSP	8
7993	85973	Let me know if I miss anything.	Let me know if I miss anything.	4094833	1472022654006	1472022654078	f	70
7993	85973	Let me know if I miss anything.	Let me know if I miss anything.	4094834	1472022654382	1472022654462	 	32
7993	85973	Let me know if I miss anything.	Let me know if I miss anything.	4094835	1472022654470	1472022654758	SHIFT	16
7993	85973	Let me know if I miss anything.	Let me know if I miss anything.	4094836	1472022654686	1472022654766	I	73
7993	85973	Let me know if I miss anything.	Let me know if I miss anything.	4094837	1472022654862	1472022654950	 	32
7993	85973	Let me know if I miss anything.	Let me know if I miss anything.	4094838	1472022655006	1472022655078	m	77
7993	85973	Let me know if I miss anything.	Let me know if I miss anything.	4094879	1472022655222	1472022655296	i	73
7993	85973	Let me know if I miss anything.	Let me know if I miss anything.	4094881	1472022655287	1472022655326	s	83
7993	85973	Let me know if I miss anything.	Let me know if I miss anything.	4094883	1472022655430	1472022655486	s	83
7993	85973	Let me know if I miss anything.	Let me know if I miss anything.	4094886	1472022655566	1472022655686	 	32
7993	85973	Let me know if I miss anything.	Let me know if I miss anything.	4094889	1472022656174	1472022656254	a	65
7993	85973	Let me know if I miss anything.	Let me know if I miss anything.	4094915	1472022656270	1472022656350	n	78
7993	85973	Let me know if I miss anything.	Let me know if I miss anything.	4094918	1472022656454	1472022656526	y	89
7993	85973	Let me know if I miss anything.	Let me know if I miss anything.	4094923	1472022656575	1472022656638	t	84
7993	85973	Let me know if I miss anything.	Let me know if I miss anything.	4094925	1472022656662	1472022656710	h	72
7993	85973	Let me know if I miss anything.	Let me know if I miss anything.	4094928	1472022656806	1472022656870	i	73
7993	85973	Let me know if I miss anything.	Let me know if I miss anything.	4094944	1472022656982	1472022657046	n	78
7993	85973	Let me know if I miss anything.	Let me know if I miss anything.	4094946	1472022657110	1472022657174	g	71
7993	85973	Let me know if I miss anything.	Let me know if I miss anything.	4094949	1472022657246	1472022657318	.	190
7993	85984	Add a Star Trek convention and sports memorabilia show to the mix.	Add a Star Trek convention and sports memorabilia show to the mix	4095121	1472022660760	1472022661030	SHIFT	16
7993	85984	Add a Star Trek convention and sports memorabilia show to the mix.	Add a Star Trek convention and sports memorabilia show to the mix	4095123	1472022660958	1472022661070	A	65
7993	85984	Add a Star Trek convention and sports memorabilia show to the mix.	Add a Star Trek convention and sports memorabilia show to the mix	4095127	1472022661374	1472022661438	d	68
7993	85984	Add a Star Trek convention and sports memorabilia show to the mix.	Add a Star Trek convention and sports memorabilia show to the mix	4095133	1472022661526	1472022661582	d	68
7993	85984	Add a Star Trek convention and sports memorabilia show to the mix.	Add a Star Trek convention and sports memorabilia show to the mix	4095139	1472022661614	1472022661726	 	32
7993	85984	Add a Star Trek convention and sports memorabilia show to the mix.	Add a Star Trek convention and sports memorabilia show to the mix	4095145	1472022661742	1472022661814	a	65
7993	85984	Add a Star Trek convention and sports memorabilia show to the mix.	Add a Star Trek convention and sports memorabilia show to the mix	4095182	1472022661871	1472022661966	 	32
7993	85984	Add a Star Trek convention and sports memorabilia show to the mix.	Add a Star Trek convention and sports memorabilia show to the mix	4095187	1472022661967	1472022662038	s	83
7993	85984	Add a Star Trek convention and sports memorabilia show to the mix.	Add a Star Trek convention and sports memorabilia show to the mix	4095192	1472022662206	1472022662422	SHIFT	16
7993	85984	Add a Star Trek convention and sports memorabilia show to the mix.	Add a Star Trek convention and sports memorabilia show to the mix	4095197	1472022662534	1472022662633	BKSP	8
7993	85984	Add a Star Trek convention and sports memorabilia show to the mix.	Add a Star Trek convention and sports memorabilia show to the mix	4095202	1472022662646	1472022662782	SHIFT	16
7993	85984	Add a Star Trek convention and sports memorabilia show to the mix.	Add a Star Trek convention and sports memorabilia show to the mix	4095206	1472022662730	1472022662830	S	83
7993	85984	Add a Star Trek convention and sports memorabilia show to the mix.	Add a Star Trek convention and sports memorabilia show to the mix	4095210	1472022662854	1472022662942	t	84
7993	85984	Add a Star Trek convention and sports memorabilia show to the mix.	Add a Star Trek convention and sports memorabilia show to the mix	4095213	1472022662974	1472022663030	a	65
7993	85984	Add a Star Trek convention and sports memorabilia show to the mix.	Add a Star Trek convention and sports memorabilia show to the mix	4095253	1472022663094	1472022663166	r	82
7993	85984	Add a Star Trek convention and sports memorabilia show to the mix.	Add a Star Trek convention and sports memorabilia show to the mix	4095257	1472022663374	1472022663502	 	32
7993	85984	Add a Star Trek convention and sports memorabilia show to the mix.	Add a Star Trek convention and sports memorabilia show to the mix	4095261	1472022663510	1472022663950	SHIFT	16
7993	85984	Add a Star Trek convention and sports memorabilia show to the mix.	Add a Star Trek convention and sports memorabilia show to the mix	4095265	1472022663854	1472022663958	T	84
7993	85984	Add a Star Trek convention and sports memorabilia show to the mix.	Add a Star Trek convention and sports memorabilia show to the mix	4095269	1472022664086	1472022664262	r	82
7993	85984	Add a Star Trek convention and sports memorabilia show to the mix.	Add a Star Trek convention and sports memorabilia show to the mix	4095315	1472022664222	1472022664310	e	69
7993	85984	Add a Star Trek convention and sports memorabilia show to the mix.	Add a Star Trek convention and sports memorabilia show to the mix	4095316	1472022664342	1472022664438	k	75
7993	85984	Add a Star Trek convention and sports memorabilia show to the mix.	Add a Star Trek convention and sports memorabilia show to the mix	4095318	1472022664510	1472022664622	 	32
7993	85984	Add a Star Trek convention and sports memorabilia show to the mix.	Add a Star Trek convention and sports memorabilia show to the mix	4095320	1472022664894	1472022664982	c	67
7993	85984	Add a Star Trek convention and sports memorabilia show to the mix.	Add a Star Trek convention and sports memorabilia show to the mix	4095322	1472022665014	1472022665087	o	79
7993	85984	Add a Star Trek convention and sports memorabilia show to the mix.	Add a Star Trek convention and sports memorabilia show to the mix	4095324	1472022665231	1472022665318	n	78
7993	85984	Add a Star Trek convention and sports memorabilia show to the mix.	Add a Star Trek convention and sports memorabilia show to the mix	4095355	1472022665470	1472022665534	v	86
7993	85984	Add a Star Trek convention and sports memorabilia show to the mix.	Add a Star Trek convention and sports memorabilia show to the mix	4095359	1472022665694	1472022665774	e	69
7993	85984	Add a Star Trek convention and sports memorabilia show to the mix.	Add a Star Trek convention and sports memorabilia show to the mix	4095362	1472022665862	1472022665950	n	78
7993	85984	Add a Star Trek convention and sports memorabilia show to the mix.	Add a Star Trek convention and sports memorabilia show to the mix	4095365	1472022665998	1472022666070	t	84
7993	85984	Add a Star Trek convention and sports memorabilia show to the mix.	Add a Star Trek convention and sports memorabilia show to the mix	4095368	1472022666158	1472022666222	i	73
7993	85984	Add a Star Trek convention and sports memorabilia show to the mix.	Add a Star Trek convention and sports memorabilia show to the mix	4095378	1472022666318	1472022666382	o	79
7993	85984	Add a Star Trek convention and sports memorabilia show to the mix.	Add a Star Trek convention and sports memorabilia show to the mix	4095379	1472022666510	1472022666598	n	78
7993	85984	Add a Star Trek convention and sports memorabilia show to the mix.	Add a Star Trek convention and sports memorabilia show to the mix	4095380	1472022666630	1472022666726	 	32
7993	85984	Add a Star Trek convention and sports memorabilia show to the mix.	Add a Star Trek convention and sports memorabilia show to the mix	4095382	1472022666774	1472022666871	a	65
7993	85984	Add a Star Trek convention and sports memorabilia show to the mix.	Add a Star Trek convention and sports memorabilia show to the mix	4095444	1472022666862	1472022666942	n	78
7993	85984	Add a Star Trek convention and sports memorabilia show to the mix.	Add a Star Trek convention and sports memorabilia show to the mix	4095447	1472022667062	1472022667166	 	32
7993	85984	Add a Star Trek convention and sports memorabilia show to the mix.	Add a Star Trek convention and sports memorabilia show to the mix	4095450	1472022667502	1472022667582	BKSP	8
7993	85984	Add a Star Trek convention and sports memorabilia show to the mix.	Add a Star Trek convention and sports memorabilia show to the mix	4095455	1472022667686	1472022667766	d	68
7993	85984	Add a Star Trek convention and sports memorabilia show to the mix.	Add a Star Trek convention and sports memorabilia show to the mix	4095458	1472022667854	1472022667950	 	32
7993	85984	Add a Star Trek convention and sports memorabilia show to the mix.	Add a Star Trek convention and sports memorabilia show to the mix	4095460	1472022667934	1472022668006	s	83
7993	85984	Add a Star Trek convention and sports memorabilia show to the mix.	Add a Star Trek convention and sports memorabilia show to the mix	4095464	1472022668030	1472022668118	p	80
7993	85984	Add a Star Trek convention and sports memorabilia show to the mix.	Add a Star Trek convention and sports memorabilia show to the mix	4095501	1472022668215	1472022668302	o	79
7993	85984	Add a Star Trek convention and sports memorabilia show to the mix.	Add a Star Trek convention and sports memorabilia show to the mix	4095505	1472022668358	1472022668526	r	82
7993	85984	Add a Star Trek convention and sports memorabilia show to the mix.	Add a Star Trek convention and sports memorabilia show to the mix	4095509	1472022668486	1472022668582	t	84
7993	85984	Add a Star Trek convention and sports memorabilia show to the mix.	Add a Star Trek convention and sports memorabilia show to the mix	4095514	1472022668766	1472022668838	s	83
7993	85984	Add a Star Trek convention and sports memorabilia show to the mix.	Add a Star Trek convention and sports memorabilia show to the mix	4095519	1472022668942	1472022669046	 	32
7993	85984	Add a Star Trek convention and sports memorabilia show to the mix.	Add a Star Trek convention and sports memorabilia show to the mix	4095625	1472022669230	1472022669286	m	188
7993	85984	Add a Star Trek convention and sports memorabilia show to the mix.	Add a Star Trek convention and sports memorabilia show to the mix	4095627	1472022669718	1472022669790	BKSP	8
7993	85984	Add a Star Trek convention and sports memorabilia show to the mix.	Add a Star Trek convention and sports memorabilia show to the mix	4095629	1472022669886	1472022669950	BKSP	8
7993	85984	Add a Star Trek convention and sports memorabilia show to the mix.	Add a Star Trek convention and sports memorabilia show to the mix	4095631	1472022670038	1472022670118	BKSP	8
7993	85984	Add a Star Trek convention and sports memorabilia show to the mix.	Add a Star Trek convention and sports memorabilia show to the mix	4095633	1472022671358	1472022671462	 	32
7993	85984	Add a Star Trek convention and sports memorabilia show to the mix.	Add a Star Trek convention and sports memorabilia show to the mix	4095635	1472022671526	1472022671614	m	77
7993	85984	Add a Star Trek convention and sports memorabilia show to the mix.	Add a Star Trek convention and sports memorabilia show to the mix	4095637	1472022671662	1472022671718	e	69
7993	85984	Add a Star Trek convention and sports memorabilia show to the mix.	Add a Star Trek convention and sports memorabilia show to the mix	4095652	1472022671838	1472022671894	m	77
7993	85984	Add a Star Trek convention and sports memorabilia show to the mix.	Add a Star Trek convention and sports memorabilia show to the mix	4095656	1472022672014	1472022672094	o	79
7993	85984	Add a Star Trek convention and sports memorabilia show to the mix.	Add a Star Trek convention and sports memorabilia show to the mix	4095661	1472022672142	1472022672214	r	82
7993	85984	Add a Star Trek convention and sports memorabilia show to the mix.	Add a Star Trek convention and sports memorabilia show to the mix	4095667	1472022672366	1472022672438	a	65
7993	85984	Add a Star Trek convention and sports memorabilia show to the mix.	Add a Star Trek convention and sports memorabilia show to the mix	4095672	1472022672478	1472022672542	b	66
7993	85984	Add a Star Trek convention and sports memorabilia show to the mix.	Add a Star Trek convention and sports memorabilia show to the mix	4095699	1472022672662	1472022672726	i	73
7993	85984	Add a Star Trek convention and sports memorabilia show to the mix.	Add a Star Trek convention and sports memorabilia show to the mix	4095701	1472022672846	1472022672926	l	76
7993	85984	Add a Star Trek convention and sports memorabilia show to the mix.	Add a Star Trek convention and sports memorabilia show to the mix	4095703	1472022673038	1472022673118	i	73
7993	85984	Add a Star Trek convention and sports memorabilia show to the mix.	Add a Star Trek convention and sports memorabilia show to the mix	4095707	1472022673150	1472022673254	a	65
7993	85984	Add a Star Trek convention and sports memorabilia show to the mix.	Add a Star Trek convention and sports memorabilia show to the mix	4095711	1472022673454	1472022673582	 	32
7993	85984	Add a Star Trek convention and sports memorabilia show to the mix.	Add a Star Trek convention and sports memorabilia show to the mix	4095738	1472022673734	1472022673831	s	83
7993	85984	Add a Star Trek convention and sports memorabilia show to the mix.	Add a Star Trek convention and sports memorabilia show to the mix	4095740	1472022673822	1472022673878	h	72
7993	85984	Add a Star Trek convention and sports memorabilia show to the mix.	Add a Star Trek convention and sports memorabilia show to the mix	4095745	1472022673998	1472022674078	o	79
7993	85984	Add a Star Trek convention and sports memorabilia show to the mix.	Add a Star Trek convention and sports memorabilia show to the mix	4095749	1472022674086	1472022674158	w	87
7993	85984	Add a Star Trek convention and sports memorabilia show to the mix.	Add a Star Trek convention and sports memorabilia show to the mix	4095750	1472022674190	1472022674286	 	32
7993	85984	Add a Star Trek convention and sports memorabilia show to the mix.	Add a Star Trek convention and sports memorabilia show to the mix	4095776	1472022674335	1472022674414	t	84
7993	85984	Add a Star Trek convention and sports memorabilia show to the mix.	Add a Star Trek convention and sports memorabilia show to the mix	4095778	1472022674398	1472022674486	o	79
7993	85984	Add a Star Trek convention and sports memorabilia show to the mix.	Add a Star Trek convention and sports memorabilia show to the mix	4095779	1472022674694	1472022674814	 	32
7993	85984	Add a Star Trek convention and sports memorabilia show to the mix.	Add a Star Trek convention and sports memorabilia show to the mix	4095780	1472022674870	1472022674950	t	84
7993	85984	Add a Star Trek convention and sports memorabilia show to the mix.	Add a Star Trek convention and sports memorabilia show to the mix	4095781	1472022674966	1472022675054	h	72
7993	85984	Add a Star Trek convention and sports memorabilia show to the mix.	Add a Star Trek convention and sports memorabilia show to the mix	4095834	1472022675087	1472022675166	e	69
7993	85984	Add a Star Trek convention and sports memorabilia show to the mix.	Add a Star Trek convention and sports memorabilia show to the mix	4095837	1472022675190	1472022675302	 	32
7993	85984	Add a Star Trek convention and sports memorabilia show to the mix.	Add a Star Trek convention and sports memorabilia show to the mix	4095843	1472022675303	1472022675398	m	77
7993	85984	Add a Star Trek convention and sports memorabilia show to the mix.	Add a Star Trek convention and sports memorabilia show to the mix	4095848	1472022675518	1472022675582	i	73
7993	85984	Add a Star Trek convention and sports memorabilia show to the mix.	Add a Star Trek convention and sports memorabilia show to the mix	4095855	1472022676118	1472022676182	x	88
7993	86001	Here's the September purchase for September.	Here's the September purchase for September.	4095952	1472022678543	1472022678806	SHIFT	16
7993	86001	Here's the September purchase for September.	Here's the September purchase for September.	4095948	1472022678710	1472022678782	H	72
7993	86001	Here's the September purchase for September.	Here's the September purchase for September.	4095959	1472022678950	1472022679030	e	69
7993	86001	Here's the September purchase for September.	Here's the September purchase for September.	4095966	1472022679166	1472022679279	r	82
7993	86001	Here's the September purchase for September.	Here's the September purchase for September.	4095971	1472022679270	1472022679366	e	69
7993	86001	Here's the September purchase for September.	Here's the September purchase for September.	4095975	1472022679446	1472022679542	'	222
7993	86001	Here's the September purchase for September.	Here's the September purchase for September.	4096014	1472022679598	1472022679670	s	83
7993	86001	Here's the September purchase for September.	Here's the September purchase for September.	4096017	1472022679798	1472022679918	 	32
7993	86001	Here's the September purchase for September.	Here's the September purchase for September.	4096021	1472022680054	1472022680134	t	84
7993	86001	Here's the September purchase for September.	Here's the September purchase for September.	4096027	1472022680246	1472022680334	h	72
7993	86001	Here's the September purchase for September.	Here's the September purchase for September.	4096031	1472022680382	1472022680446	e	69
7993	86001	Here's the September purchase for September.	Here's the September purchase for September.	4096086	1472022680510	1472022680614	 	32
7993	86001	Here's the September purchase for September.	Here's the September purchase for September.	4096089	1472022680646	1472022680822	SHIFT	16
7993	86001	Here's the September purchase for September.	Here's the September purchase for September.	4096093	1472022680774	1472022680878	S	83
7993	86001	Here's the September purchase for September.	Here's the September purchase for September.	4096098	1472022681030	1472022681086	e	69
7993	86001	Here's the September purchase for September.	Here's the September purchase for September.	4096102	1472022681254	1472022681342	p	80
7993	86001	Here's the September purchase for September.	Here's the September purchase for September.	4096106	1472022681398	1472022681494	t	84
7993	86001	Here's the September purchase for September.	Here's the September purchase for September.	4096134	1472022681582	1472022681670	e	69
7993	86001	Here's the September purchase for September.	Here's the September purchase for September.	4096138	1472022681702	1472022681782	m	77
7993	86001	Here's the September purchase for September.	Here's the September purchase for September.	4096143	1472022681918	1472022681982	b	66
7993	86001	Here's the September purchase for September.	Here's the September purchase for September.	4096146	1472022682046	1472022682206	e	69
7993	86001	Here's the September purchase for September.	Here's the September purchase for September.	4096183	1472022682167	1472022682254	r	82
7993	86001	Here's the September purchase for September.	Here's the September purchase for September.	4096189	1472022682310	1472022682406	 	32
7993	86001	Here's the September purchase for September.	Here's the September purchase for September.	4096193	1472022682462	1472022682550	p	80
7993	86001	Here's the September purchase for September.	Here's the September purchase for September.	4096198	1472022682686	1472022682766	u	85
7993	86001	Here's the September purchase for September.	Here's the September purchase for September.	4096201	1472022682814	1472022682870	r	82
7993	86001	Here's the September purchase for September.	Here's the September purchase for September.	4096202	1472022683030	1472022683118	c	67
7993	86001	Here's the September purchase for September.	Here's the September purchase for September.	4096234	1472022683174	1472022683262	h	72
7993	86001	Here's the September purchase for September.	Here's the September purchase for September.	4096237	1472022683294	1472022683382	a	65
7993	86001	Here's the September purchase for September.	Here's the September purchase for September.	4096240	1472022683534	1472022683630	s	83
7993	86001	Here's the September purchase for September.	Here's the September purchase for September.	4096244	1472022683734	1472022683814	e	69
7993	86001	Here's the September purchase for September.	Here's the September purchase for September.	4096251	1472022683910	1472022684038	 	32
7993	86001	Here's the September purchase for September.	Here's the September purchase for September.	4096306	1472022684214	1472022684334	f	70
7993	86001	Here's the September purchase for September.	Here's the September purchase for September.	4096310	1472022684398	1472022684486	o	79
7993	86001	Here's the September purchase for September.	Here's the September purchase for September.	4096314	1472022684526	1472022684598	r	82
7993	86001	Here's the September purchase for September.	Here's the September purchase for September.	4096317	1472022684646	1472022684750	 	32
7993	86001	Here's the September purchase for September.	Here's the September purchase for September.	4096321	1472022685094	1472022685310	SHIFT	16
7993	86001	Here's the September purchase for September.	Here's the September purchase for September.	4096351	1472022685254	1472022685350	S	83
7993	86001	Here's the September purchase for September.	Here's the September purchase for September.	4096353	1472022685566	1472022685638	e	69
7993	86001	Here's the September purchase for September.	Here's the September purchase for September.	4096356	1472022685726	1472022685806	p	80
7993	86001	Here's the September purchase for September.	Here's the September purchase for September.	4096359	1472022685942	1472022686030	t	84
7993	86001	Here's the September purchase for September.	Here's the September purchase for September.	4096364	1472022686150	1472022686286	e	69
7993	86001	Here's the September purchase for September.	Here's the September purchase for September.	4096432	1472022686246	1472022686318	r	82
7993	86001	Here's the September purchase for September.	Here's the September purchase for September.	4096433	1472022686350	1472022686438	m	77
7993	86001	Here's the September purchase for September.	Here's the September purchase for September.	4096434	1472022686582	1472022686662	b	66
7993	86001	Here's the September purchase for September.	Here's the September purchase for September.	4096439	1472022686766	1472022686886	e	69
7993	86001	Here's the September purchase for September.	Here's the September purchase for September.	4096442	1472022686846	1472022686942	r	82
7993	86001	Here's the September purchase for September.	Here's the September purchase for September.	4096445	1472022687182	1472022687230	BKSP	8
7993	86001	Here's the September purchase for September.	Here's the September purchase for September.	4096447	1472022687334	1472022687390	BKSP	8
7993	86001	Here's the September purchase for September.	Here's the September purchase for September.	4096450	1472022687470	1472022687526	BKSP	8
7993	86001	Here's the September purchase for September.	Here's the September purchase for September.	4096451	1472022687606	1472022687662	BKSP	8
7993	86001	Here's the September purchase for September.	Here's the September purchase for September.	4096452	1472022687742	1472022687830	BKSP	8
7993	86001	Here's the September purchase for September.	Here's the September purchase for September.	4096453	1472022688198	1472022688286	m	77
7993	86001	Here's the September purchase for September.	Here's the September purchase for September.	4096459	1472022688414	1472022688486	b	66
7993	86001	Here's the September purchase for September.	Here's the September purchase for September.	4096461	1472022688510	1472022688622	e	69
7993	86001	Here's the September purchase for September.	Here's the September purchase for September.	4096463	1472022688574	1472022688678	r	82
7993	86001	Here's the September purchase for September.	Here's the September purchase for September.	4096465	1472022688726	1472022688822	.	190
7993	86015	We sold the UK business to AEP.	We sold the UK business to AEP.	4096649	1472022692038	1472022692302	SHIFT	16
7993	86015	We sold the UK business to AEP.	We sold the UK business to AEP.	4096652	1472022692246	1472022692358	W	87
7993	86015	We sold the UK business to AEP.	We sold the UK business to AEP.	4096655	1472022692462	1472022692526	e	69
7993	86015	We sold the UK business to AEP.	We sold the UK business to AEP.	4096658	1472022692566	1472022692678	 	32
7993	86015	We sold the UK business to AEP.	We sold the UK business to AEP.	4096661	1472022692702	1472022692790	s	83
7993	86015	We sold the UK business to AEP.	We sold the UK business to AEP.	4096696	1472022692774	1472022692846	o	79
7993	86015	We sold the UK business to AEP.	We sold the UK business to AEP.	4096702	1472022692950	1472022693054	l	76
7993	86015	We sold the UK business to AEP.	We sold the UK business to AEP.	4096706	1472022693094	1472022693174	d	68
7993	86015	We sold the UK business to AEP.	We sold the UK business to AEP.	4096710	1472022693206	1472022693334	 	32
7993	86015	We sold the UK business to AEP.	We sold the UK business to AEP.	4096716	1472022693590	1472022693678	t	84
7993	86015	We sold the UK business to AEP.	We sold the UK business to AEP.	4096722	1472022693702	1472022693806	h	72
7993	86015	We sold the UK business to AEP.	We sold the UK business to AEP.	4096751	1472022693830	1472022693910	e	69
7993	86015	We sold the UK business to AEP.	We sold the UK business to AEP.	4096753	1472022693942	1472022694038	 	32
7993	86015	We sold the UK business to AEP.	We sold the UK business to AEP.	4096825	1472022694094	1472022694566	SHIFT	16
7993	86015	We sold the UK business to AEP.	We sold the UK business to AEP.	4096754	1472022694158	1472022694239	U	85
7993	86015	We sold the UK business to AEP.	We sold the UK business to AEP.	4096755	1472022694398	1472022694438	L	75
7993	86015	We sold the UK business to AEP.	We sold the UK business to AEP.	4096828	1472022694822	1472022694886	BKSP	8
7993	86015	We sold the UK business to AEP.	We sold the UK business to AEP.	4096831	1472022695166	1472022695286	 	32
7993	86015	We sold the UK business to AEP.	We sold the UK business to AEP.	4096835	1472022695646	1472022695734	b	66
7993	86015	We sold the UK business to AEP.	We sold the UK business to AEP.	4096840	1472022695846	1472022695926	u	85
7993	86015	We sold the UK business to AEP.	We sold the UK business to AEP.	4096847	1472022695950	1472022696022	s	83
7993	86015	We sold the UK business to AEP.	We sold the UK business to AEP.	4096854	1472022696070	1472022696134	i	73
7993	86015	We sold the UK business to AEP.	We sold the UK business to AEP.	4096890	1472022696286	1472022696326	n	78
7993	86015	We sold the UK business to AEP.	We sold the UK business to AEP.	4096892	1472022696414	1472022696446	e	69
7993	86015	We sold the UK business to AEP.	We sold the UK business to AEP.	4096898	1472022696662	1472022696698	s	83
7993	86015	We sold the UK business to AEP.	We sold the UK business to AEP.	4096902	1472022696815	1472022696894	s	83
7993	86015	We sold the UK business to AEP.	We sold the UK business to AEP.	4096908	1472022696966	1472022697078	 	32
7993	86015	We sold the UK business to AEP.	We sold the UK business to AEP.	4096959	1472022697190	1472022697286	t	84
7993	86015	We sold the UK business to AEP.	We sold the UK business to AEP.	4096966	1472022697302	1472022697382	o	79
7993	86015	We sold the UK business to AEP.	We sold the UK business to AEP.	4096969	1472022697406	1472022697526	 	32
7993	86015	We sold the UK business to AEP.	We sold the UK business to AEP.	4097013	1472022697606	1472022698142	SHIFT	16
7993	86015	We sold the UK business to AEP.	We sold the UK business to AEP.	4096974	1472022697742	1472022697862	A	65
7993	86015	We sold the UK business to AEP.	We sold the UK business to AEP.	4096978	1472022697870	1472022697958	E	69
7993	86015	We sold the UK business to AEP.	We sold the UK business to AEP.	4097009	1472022698000	1472022698054	P	80
7993	86015	We sold the UK business to AEP.	We sold the UK business to AEP.	4097018	1472022698662	1472022698718	.	190
7993	86023	Has it been mentioned yet?	Has it been mentioned yet?	4097151	1472022701927	1472022702126	SHIFT	16
7993	86023	Has it been mentioned yet?	Has it been mentioned yet?	4097156	1472022702038	1472022702134	H	72
7993	86023	Has it been mentioned yet?	Has it been mentioned yet?	4097159	1472022702238	1472022702358	a	65
7993	86023	Has it been mentioned yet?	Has it been mentioned yet?	4097161	1472022702318	1472022702414	s	83
7993	86023	Has it been mentioned yet?	Has it been mentioned yet?	4097164	1472022702486	1472022702582	 	32
7993	86023	Has it been mentioned yet?	Has it been mentioned yet?	4097167	1472022702606	1472022702694	i	73
7993	86023	Has it been mentioned yet?	Has it been mentioned yet?	4097193	1472022702790	1472022702894	t	84
7993	86023	Has it been mentioned yet?	Has it been mentioned yet?	4097196	1472022702926	1472022703006	 	32
7993	86023	Has it been mentioned yet?	Has it been mentioned yet?	4097200	1472022703070	1472022703158	b	66
7993	86023	Has it been mentioned yet?	Has it been mentioned yet?	4097201	1472022703358	1472022703438	e	69
7993	86023	Has it been mentioned yet?	Has it been mentioned yet?	4097203	1472022703518	1472022703590	e	69
7993	86023	Has it been mentioned yet?	Has it been mentioned yet?	4097234	1472022703702	1472022703798	n	78
7993	86023	Has it been mentioned yet?	Has it been mentioned yet?	4097236	1472022703862	1472022703974	 	32
7993	86023	Has it been mentioned yet?	Has it been mentioned yet?	4097238	1472022704150	1472022704238	m	77
7993	86023	Has it been mentioned yet?	Has it been mentioned yet?	4097242	1472022704270	1472022704342	e	69
7993	86023	Has it been mentioned yet?	Has it been mentioned yet?	4097245	1472022704358	1472022704446	n	78
7993	86023	Has it been mentioned yet?	Has it been mentioned yet?	4097260	1472022704518	1472022704590	t	84
7993	86023	Has it been mentioned yet?	Has it been mentioned yet?	4097265	1472022704630	1472022704686	i	73
7993	86023	Has it been mentioned yet?	Has it been mentioned yet?	4097273	1472022704814	1472022704862	o	79
7993	86023	Has it been mentioned yet?	Has it been mentioned yet?	4097278	1472022705006	1472022705070	n	78
7993	86023	Has it been mentioned yet?	Has it been mentioned yet?	4097282	1472022705102	1472022705182	e	69
7993	86023	Has it been mentioned yet?	Has it been mentioned yet?	4097299	1472022705294	1472022705414	d	68
7993	86023	Has it been mentioned yet?	Has it been mentioned yet?	4097303	1472022705438	1472022705518	 	32
7993	86023	Has it been mentioned yet?	Has it been mentioned yet?	4097307	1472022705598	1472022705678	y	89
7993	86023	Has it been mentioned yet?	Has it been mentioned yet?	4097309	1472022705718	1472022705862	e	69
7993	86023	Has it been mentioned yet?	Has it been mentioned yet?	4097333	1472022705822	1472022705950	t	84
7993	86023	Has it been mentioned yet?	Has it been mentioned yet?	4097339	1472022705974	1472022706150	SHIFT	16
7993	86023	Has it been mentioned yet?	Has it been mentioned yet?	4097348	1472022706078	1472022706174	?	191
7993	86030	We can work with it either way.	We can work with it either way.	4097529	1472022709150	1472022709390	SHIFT	16
7993	86030	We can work with it either way.	We can work with it either way.	4097532	1472022709326	1472022709422	W	87
7993	86030	We can work with it either way.	We can work with it either way.	4097536	1472022709518	1472022709582	e	69
7993	86030	We can work with it either way.	We can work with it either way.	4097541	1472022709806	1472022709958	 	32
7993	86030	We can work with it either way.	We can work with it either way.	4097545	1472022710070	1472022710150	c	67
7993	86030	We can work with it either way.	We can work with it either way.	4097550	1472022710246	1472022710342	a	65
7993	86030	We can work with it either way.	We can work with it either way.	4097568	1472022710374	1472022710462	n	78
7993	86030	We can work with it either way.	We can work with it either way.	4097570	1472022710526	1472022710638	 	32
7993	86030	We can work with it either way.	We can work with it either way.	4097572	1472022710654	1472022710766	w	87
7993	86030	We can work with it either way.	We can work with it either way.	4097574	1472022710774	1472022710870	o	79
7993	86030	We can work with it either way.	We can work with it either way.	4097575	1472022710950	1472022711022	r	82
7993	86030	We can work with it either way.	We can work with it either way.	4097586	1472022711158	1472022711246	k	75
7993	86030	We can work with it either way.	We can work with it either way.	4097587	1472022711326	1472022711430	 	32
7993	86030	We can work with it either way.	We can work with it either way.	4097588	1472022711606	1472022711710	w	87
7993	86030	We can work with it either way.	We can work with it either way.	4097589	1472022711750	1472022711830	i	73
7993	86030	We can work with it either way.	We can work with it either way.	4097590	1472022711902	1472022711966	t	84
7993	86030	We can work with it either way.	We can work with it either way.	4097603	1472022712007	1472022712086	h	72
7993	86030	We can work with it either way.	We can work with it either way.	4097606	1472022712182	1472022712286	 	32
7993	86030	We can work with it either way.	We can work with it either way.	4097608	1472022712342	1472022712422	i	73
7993	86030	We can work with it either way.	We can work with it either way.	4097610	1472022712462	1472022712542	t	84
7993	86030	We can work with it either way.	We can work with it either way.	4097612	1472022712702	1472022712814	 	32
7993	86030	We can work with it either way.	We can work with it either way.	4097627	1472022712886	1472022712974	e	69
7993	86030	We can work with it either way.	We can work with it either way.	4097630	1472022713102	1472022713198	i	73
7993	86030	We can work with it either way.	We can work with it either way.	4097632	1472022713246	1472022713318	t	84
7993	86030	We can work with it either way.	We can work with it either way.	4097635	1472022713390	1472022713454	h	72
7993	86030	We can work with it either way.	We can work with it either way.	4097637	1472022713478	1472022713622	e	69
7993	86030	We can work with it either way.	We can work with it either way.	4097682	1472022713566	1472022713646	r	82
7993	86030	We can work with it either way.	We can work with it either way.	4097684	1472022713718	1472022713838	 	32
7993	86030	We can work with it either way.	We can work with it either way.	4097685	1472022713822	1472022713910	w	87
7993	86030	We can work with it either way.	We can work with it either way.	4097687	1472022714030	1472022714102	a	65
7993	86030	We can work with it either way.	We can work with it either way.	4097688	1472022714118	1472022714182	y	89
7993	86030	We can work with it either way.	We can work with it either way.	4097690	1472022714606	1472022714670	.	190
7993	86042	The single between the two versions is the treatment of foreign banks.	The single between the two versions is the treatment of foreign banks.	4097822	1472022717630	1472022717950	SHIFT	16
7993	86042	The single between the two versions is the treatment of foreign banks.	The single between the two versions is the treatment of foreign banks.	4097818	1472022717838	1472022717902	T	84
7993	86042	The single between the two versions is the treatment of foreign banks.	The single between the two versions is the treatment of foreign banks.	4097827	1472022718102	1472022718182	h	72
7993	86042	The single between the two versions is the treatment of foreign banks.	The single between the two versions is the treatment of foreign banks.	4097833	1472022718230	1472022718310	e	69
7993	86042	The single between the two versions is the treatment of foreign banks.	The single between the two versions is the treatment of foreign banks.	4097835	1472022718334	1472022718446	 	32
7993	86042	The single between the two versions is the treatment of foreign banks.	The single between the two versions is the treatment of foreign banks.	4097838	1472022718502	1472022718598	s	83
7993	86042	The single between the two versions is the treatment of foreign banks.	The single between the two versions is the treatment of foreign banks.	4097847	1472022718606	1472022718670	i	73
7993	86042	The single between the two versions is the treatment of foreign banks.	The single between the two versions is the treatment of foreign banks.	4097848	1472022718782	1472022718854	n	78
7993	86042	The single between the two versions is the treatment of foreign banks.	The single between the two versions is the treatment of foreign banks.	4097849	1472022718886	1472022718974	g	71
7993	86042	The single between the two versions is the treatment of foreign banks.	The single between the two versions is the treatment of foreign banks.	4097851	1472022719038	1472022719094	l	76
7993	86042	The single between the two versions is the treatment of foreign banks.	The single between the two versions is the treatment of foreign banks.	4097853	1472022719182	1472022719270	e	69
7993	86042	The single between the two versions is the treatment of foreign banks.	The single between the two versions is the treatment of foreign banks.	4097889	1472022719566	1472022719638	 	32
7993	86042	The single between the two versions is the treatment of foreign banks.	The single between the two versions is the treatment of foreign banks.	4097894	1472022719718	1472022719790	b	66
7993	86042	The single between the two versions is the treatment of foreign banks.	The single between the two versions is the treatment of foreign banks.	4097897	1472022719830	1472022719982	e	69
7993	86042	The single between the two versions is the treatment of foreign banks.	The single between the two versions is the treatment of foreign banks.	4097902	1472022719958	1472022720038	t	84
7993	86042	The single between the two versions is the treatment of foreign banks.	The single between the two versions is the treatment of foreign banks.	4097907	1472022720174	1472022720302	w	87
7993	86042	The single between the two versions is the treatment of foreign banks.	The single between the two versions is the treatment of foreign banks.	4097964	1472022720278	1472022720366	e	69
7993	86042	The single between the two versions is the treatment of foreign banks.	The single between the two versions is the treatment of foreign banks.	4097967	1472022720462	1472022720534	e	69
7993	86042	The single between the two versions is the treatment of foreign banks.	The single between the two versions is the treatment of foreign banks.	4097970	1472022720606	1472022720646	e	69
7993	86042	The single between the two versions is the treatment of foreign banks.	The single between the two versions is the treatment of foreign banks.	4097973	1472022720686	1472022720774	n	78
7993	86042	The single between the two versions is the treatment of foreign banks.	The single between the two versions is the treatment of foreign banks.	4097977	1472022721358	1472022721422	BKSP	8
7993	86042	The single between the two versions is the treatment of foreign banks.	The single between the two versions is the treatment of foreign banks.	4097979	1472022721510	1472022721582	BKSP	8
7993	86042	The single between the two versions is the treatment of foreign banks.	The single between the two versions is the treatment of foreign banks.	4098045	1472022721782	1472022721862	m	78
7993	86042	The single between the two versions is the treatment of foreign banks.	The single between the two versions is the treatment of foreign banks.	4098046	1472022722366	1472022722454	BKSP	8
7993	86042	The single between the two versions is the treatment of foreign banks.	The single between the two versions is the treatment of foreign banks.	4098047	1472022722958	1472022723062	 	32
7993	86042	The single between the two versions is the treatment of foreign banks.	The single between the two versions is the treatment of foreign banks.	4098048	1472022723358	1472022723438	t	84
7993	86042	The single between the two versions is the treatment of foreign banks.	The single between the two versions is the treatment of foreign banks.	4098049	1472022723470	1472022723574	h	72
7993	86042	The single between the two versions is the treatment of foreign banks.	The single between the two versions is the treatment of foreign banks.	4098051	1472022723606	1472022723694	e	69
7993	86042	The single between the two versions is the treatment of foreign banks.	The single between the two versions is the treatment of foreign banks.	4098053	1472022723750	1472022723846	 	32
7993	86042	The single between the two versions is the treatment of foreign banks.	The single between the two versions is the treatment of foreign banks.	4098089	1472022724062	1472022724150	t	84
7993	86042	The single between the two versions is the treatment of foreign banks.	The single between the two versions is the treatment of foreign banks.	4098093	1472022724254	1472022724366	w	87
7993	86042	The single between the two versions is the treatment of foreign banks.	The single between the two versions is the treatment of foreign banks.	4098097	1472022724414	1472022724494	o	79
7993	86042	The single between the two versions is the treatment of foreign banks.	The single between the two versions is the treatment of foreign banks.	4098101	1472022724574	1472022724694	 	32
7993	86042	The single between the two versions is the treatment of foreign banks.	The single between the two versions is the treatment of foreign banks.	4098107	1472022725118	1472022725198	v	86
7993	86042	The single between the two versions is the treatment of foreign banks.	The single between the two versions is the treatment of foreign banks.	4098127	1472022725238	1472022725358	e	69
7993	86042	The single between the two versions is the treatment of foreign banks.	The single between the two versions is the treatment of foreign banks.	4098128	1472022725310	1472022725390	r	82
7993	86042	The single between the two versions is the treatment of foreign banks.	The single between the two versions is the treatment of foreign banks.	4098129	1472022725526	1472022725606	s	83
7993	86042	The single between the two versions is the treatment of foreign banks.	The single between the two versions is the treatment of foreign banks.	4098130	1472022725646	1472022725710	i	73
7993	86042	The single between the two versions is the treatment of foreign banks.	The single between the two versions is the treatment of foreign banks.	4098132	1472022725798	1472022725862	o	79
7993	86042	The single between the two versions is the treatment of foreign banks.	The single between the two versions is the treatment of foreign banks.	4098174	1472022725990	1472022726062	n	78
7993	86042	The single between the two versions is the treatment of foreign banks.	The single between the two versions is the treatment of foreign banks.	4098176	1472022726110	1472022726190	s	83
7993	86042	The single between the two versions is the treatment of foreign banks.	The single between the two versions is the treatment of foreign banks.	4098178	1472022726230	1472022726326	 	32
7993	86042	The single between the two versions is the treatment of foreign banks.	The single between the two versions is the treatment of foreign banks.	4098184	1472022726382	1472022726462	i	73
7993	86042	The single between the two versions is the treatment of foreign banks.	The single between the two versions is the treatment of foreign banks.	4098188	1472022726542	1472022726638	s	83
7993	86042	The single between the two versions is the treatment of foreign banks.	The single between the two versions is the treatment of foreign banks.	4098232	1472022726686	1472022726790	 	32
7993	86042	The single between the two versions is the treatment of foreign banks.	The single between the two versions is the treatment of foreign banks.	4098233	1472022726886	1472022726958	t	84
7993	86042	The single between the two versions is the treatment of foreign banks.	The single between the two versions is the treatment of foreign banks.	4098237	1472022727126	1472022727238	h	72
7993	86042	The single between the two versions is the treatment of foreign banks.	The single between the two versions is the treatment of foreign banks.	4098238	1472022727566	1472022727646	e	69
7993	86042	The single between the two versions is the treatment of foreign banks.	The single between the two versions is the treatment of foreign banks.	4098240	1472022727702	1472022727830	 	32
7993	86042	The single between the two versions is the treatment of foreign banks.	The single between the two versions is the treatment of foreign banks.	4098254	1472022728014	1472022728086	t	84
7993	86042	The single between the two versions is the treatment of foreign banks.	The single between the two versions is the treatment of foreign banks.	4098256	1472022728118	1472022728231	r	82
7993	86042	The single between the two versions is the treatment of foreign banks.	The single between the two versions is the treatment of foreign banks.	4098259	1472022728182	1472022728270	e	69
7993	86042	The single between the two versions is the treatment of foreign banks.	The single between the two versions is the treatment of foreign banks.	4098263	1472022728406	1472022728478	a	65
7993	86042	The single between the two versions is the treatment of foreign banks.	The single between the two versions is the treatment of foreign banks.	4098264	1472022728510	1472022728574	t	84
7993	86042	The single between the two versions is the treatment of foreign banks.	The single between the two versions is the treatment of foreign banks.	4098283	1472022729286	1472022729382	m	77
7993	86042	The single between the two versions is the treatment of foreign banks.	The single between the two versions is the treatment of foreign banks.	4098284	1472022729462	1472022729550	e	69
7993	86042	The single between the two versions is the treatment of foreign banks.	The single between the two versions is the treatment of foreign banks.	4098285	1472022729622	1472022729710	n	78
7993	86042	The single between the two versions is the treatment of foreign banks.	The single between the two versions is the treatment of foreign banks.	4098286	1472022729750	1472022729838	t	84
7993	86042	The single between the two versions is the treatment of foreign banks.	The single between the two versions is the treatment of foreign banks.	4098287	1472022729894	1472022729982	 	32
7993	86042	The single between the two versions is the treatment of foreign banks.	The single between the two versions is the treatment of foreign banks.	4098314	1472022730062	1472022730142	o	79
7993	86042	The single between the two versions is the treatment of foreign banks.	The single between the two versions is the treatment of foreign banks.	4098316	1472022730190	1472022730286	f	70
7993	86042	The single between the two versions is the treatment of foreign banks.	The single between the two versions is the treatment of foreign banks.	4098319	1472022730358	1472022730462	 	32
7993	86042	The single between the two versions is the treatment of foreign banks.	The single between the two versions is the treatment of foreign banks.	4098322	1472022730527	1472022730582	t	84
7993	86042	The single between the two versions is the treatment of foreign banks.	The single between the two versions is the treatment of foreign banks.	4098325	1472022730654	1472022730734	h	72
7993	86042	The single between the two versions is the treatment of foreign banks.	The single between the two versions is the treatment of foreign banks.	4098402	1472022730934	1472022731006	BKSP	8
7993	86042	The single between the two versions is the treatment of foreign banks.	The single between the two versions is the treatment of foreign banks.	4098404	1472022731094	1472022731166	BKSP	8
7993	86042	The single between the two versions is the treatment of foreign banks.	The single between the two versions is the treatment of foreign banks.	4098405	1472022731398	1472022731478	f	70
7993	86042	The single between the two versions is the treatment of foreign banks.	The single between the two versions is the treatment of foreign banks.	4098408	1472022731518	1472022731630	o	79
7993	86042	The single between the two versions is the treatment of foreign banks.	The single between the two versions is the treatment of foreign banks.	4098410	1472022731654	1472022731726	r	82
7993	86042	The single between the two versions is the treatment of foreign banks.	The single between the two versions is the treatment of foreign banks.	4098413	1472022732110	1472022732198	e	69
7993	86042	The single between the two versions is the treatment of foreign banks.	The single between the two versions is the treatment of foreign banks.	4098416	1472022732894	1472022732974	i	73
7993	86042	The single between the two versions is the treatment of foreign banks.	The single between the two versions is the treatment of foreign banks.	4098455	1472022733014	1472022733086	g	71
7993	86042	The single between the two versions is the treatment of foreign banks.	The single between the two versions is the treatment of foreign banks.	4098458	1472022733150	1472022733230	n	78
7993	86042	The single between the two versions is the treatment of foreign banks.	The single between the two versions is the treatment of foreign banks.	4098461	1472022733358	1472022733470	 	32
7993	86042	The single between the two versions is the treatment of foreign banks.	The single between the two versions is the treatment of foreign banks.	4098465	1472022733774	1472022733838	b	66
7993	86042	The single between the two versions is the treatment of foreign banks.	The single between the two versions is the treatment of foreign banks.	4098468	1472022733918	1472022733998	a	65
7993	86042	The single between the two versions is the treatment of foreign banks.	The single between the two versions is the treatment of foreign banks.	4098481	1472022734062	1472022734118	n	78
7993	86042	The single between the two versions is the treatment of foreign banks.	The single between the two versions is the treatment of foreign banks.	4098484	1472022734262	1472022734318	k	75
7993	86042	The single between the two versions is the treatment of foreign banks.	The single between the two versions is the treatment of foreign banks.	4098485	1472022734382	1472022734454	s	83
7993	86042	The single between the two versions is the treatment of foreign banks.	The single between the two versions is the treatment of foreign banks.	4098488	1472022734534	1472022734606	.	190
7993	86055	We controlled the race from the start and I'm satisfied.	We controlled the race from the start and I'm statisfied.	4098606	1472022737470	1472022737702	SHIFT	16
7993	86055	We controlled the race from the start and I'm satisfied.	We controlled the race from the start and I'm statisfied.	4098610	1472022737646	1472022737742	W	87
7993	86055	We controlled the race from the start and I'm satisfied.	We controlled the race from the start and I'm statisfied.	4098616	1472022737854	1472022737924	e	69
7993	86055	We controlled the race from the start and I'm satisfied.	We controlled the race from the start and I'm statisfied.	4098621	1472022737990	1472022738094	 	32
7993	86055	We controlled the race from the start and I'm satisfied.	We controlled the race from the start and I'm statisfied.	4098626	1472022738110	1472022738190	c	67
7993	86055	We controlled the race from the start and I'm satisfied.	We controlled the race from the start and I'm statisfied.	4098629	1472022738206	1472022738270	o	79
7993	86055	We controlled the race from the start and I'm satisfied.	We controlled the race from the start and I'm statisfied.	4098659	1472022738398	1472022738470	n	78
7993	86055	We controlled the race from the start and I'm satisfied.	We controlled the race from the start and I'm statisfied.	4098661	1472022738510	1472022738598	t	84
7993	86055	We controlled the race from the start and I'm satisfied.	We controlled the race from the start and I'm statisfied.	4098664	1472022738694	1472022738758	o	79
7993	86055	We controlled the race from the start and I'm satisfied.	We controlled the race from the start and I'm statisfied.	4098666	1472022738918	1472022738990	l	76
7993	86055	We controlled the race from the start and I'm satisfied.	We controlled the race from the start and I'm statisfied.	4098669	1472022739182	1472022739246	BKSP	8
7993	86055	We controlled the race from the start and I'm satisfied.	We controlled the race from the start and I'm statisfied.	4098673	1472022739326	1472022739399	BKSP	8
7993	86055	We controlled the race from the start and I'm satisfied.	We controlled the race from the start and I'm statisfied.	4098678	1472022739446	1472022739518	r	82
7993	86055	We controlled the race from the start and I'm satisfied.	We controlled the race from the start and I'm statisfied.	4098693	1472022739558	1472022739630	o	79
7993	86055	We controlled the race from the start and I'm satisfied.	We controlled the race from the start and I'm statisfied.	4098695	1472022739734	1472022739806	l	76
7993	86055	We controlled the race from the start and I'm satisfied.	We controlled the race from the start and I'm statisfied.	4098699	1472022739878	1472022739950	l	76
7993	86055	We controlled the race from the start and I'm satisfied.	We controlled the race from the start and I'm statisfied.	4098702	1472022739958	1472022740022	e	69
7993	86055	We controlled the race from the start and I'm satisfied.	We controlled the race from the start and I'm statisfied.	4098705	1472022740142	1472022740231	d	68
7993	86055	We controlled the race from the start and I'm satisfied.	We controlled the race from the start and I'm statisfied.	4098710	1472022740222	1472022740310	 	32
7993	86055	We controlled the race from the start and I'm satisfied.	We controlled the race from the start and I'm statisfied.	4098711	1472022740382	1472022740462	t	84
7993	86055	We controlled the race from the start and I'm satisfied.	We controlled the race from the start and I'm statisfied.	4098716	1472022740502	1472022740582	h	72
7993	86055	We controlled the race from the start and I'm satisfied.	We controlled the race from the start and I'm statisfied.	4098721	1472022740614	1472022740694	e	69
7993	86055	We controlled the race from the start and I'm satisfied.	We controlled the race from the start and I'm statisfied.	4098726	1472022740734	1472022740846	 	32
7993	86055	We controlled the race from the start and I'm satisfied.	We controlled the race from the start and I'm statisfied.	4098732	1472022740894	1472022740966	r	82
7993	86055	We controlled the race from the start and I'm satisfied.	We controlled the race from the start and I'm statisfied.	4098750	1472022741110	1472022741198	a	65
7993	86055	We controlled the race from the start and I'm satisfied.	We controlled the race from the start and I'm statisfied.	4098752	1472022741246	1472022741318	c	67
7993	86055	We controlled the race from the start and I'm satisfied.	We controlled the race from the start and I'm statisfied.	4098754	1472022741390	1472022741470	e	69
7993	86055	We controlled the race from the start and I'm satisfied.	We controlled the race from the start and I'm statisfied.	4098759	1472022741534	1472022741646	 	32
7993	86055	We controlled the race from the start and I'm satisfied.	We controlled the race from the start and I'm statisfied.	4098762	1472022741974	1472022742070	f	70
7993	86055	We controlled the race from the start and I'm satisfied.	We controlled the race from the start and I'm statisfied.	4098789	1472022742150	1472022742231	r	82
7993	86055	We controlled the race from the start and I'm satisfied.	We controlled the race from the start and I'm statisfied.	4098793	1472022742255	1472022742326	o	79
7993	86055	We controlled the race from the start and I'm satisfied.	We controlled the race from the start and I'm statisfied.	4098795	1472022742438	1472022742534	m	77
7993	86055	We controlled the race from the start and I'm satisfied.	We controlled the race from the start and I'm statisfied.	4098798	1472022742566	1472022742670	 	32
7993	86055	We controlled the race from the start and I'm satisfied.	We controlled the race from the start and I'm statisfied.	4098805	1472022742654	1472022742750	t	84
7993	86055	We controlled the race from the start and I'm satisfied.	We controlled the race from the start and I'm statisfied.	4098806	1472022742790	1472022742870	h	72
7993	86055	We controlled the race from the start and I'm satisfied.	We controlled the race from the start and I'm statisfied.	4098807	1472022742903	1472022742982	e	69
7993	86055	We controlled the race from the start and I'm satisfied.	We controlled the race from the start and I'm statisfied.	4098808	1472022743030	1472022743142	 	32
7993	86055	We controlled the race from the start and I'm satisfied.	We controlled the race from the start and I'm statisfied.	4098810	1472022743222	1472022743310	s	83
7993	86055	We controlled the race from the start and I'm satisfied.	We controlled the race from the start and I'm statisfied.	4098812	1472022743350	1472022743430	t	84
7993	86055	We controlled the race from the start and I'm satisfied.	We controlled the race from the start and I'm statisfied.	4098856	1472022743470	1472022743542	a	65
7993	86055	We controlled the race from the start and I'm satisfied.	We controlled the race from the start and I'm statisfied.	4098859	1472022743590	1472022743654	r	82
7993	86055	We controlled the race from the start and I'm satisfied.	We controlled the race from the start and I'm statisfied.	4098861	1472022743766	1472022743830	t	84
7993	86055	We controlled the race from the start and I'm satisfied.	We controlled the race from the start and I'm statisfied.	4098863	1472022743902	1472022744022	 	32
7993	86055	We controlled the race from the start and I'm satisfied.	We controlled the race from the start and I'm statisfied.	4098865	1472022744302	1472022744406	a	65
7993	86055	We controlled the race from the start and I'm satisfied.	We controlled the race from the start and I'm statisfied.	4098885	1472022744414	1472022744510	n	78
7993	86055	We controlled the race from the start and I'm satisfied.	We controlled the race from the start and I'm statisfied.	4098888	1472022744534	1472022744614	d	68
7993	86055	We controlled the race from the start and I'm satisfied.	We controlled the race from the start and I'm statisfied.	4098891	1472022744638	1472022744734	 	32
7993	86055	We controlled the race from the start and I'm satisfied.	We controlled the race from the start and I'm statisfied.	4098898	1472022744742	1472022744894	SHIFT	16
7993	86055	We controlled the race from the start and I'm satisfied.	We controlled the race from the start and I'm statisfied.	4098894	1472022744798	1472022744870	I	73
7993	86055	We controlled the race from the start and I'm satisfied.	We controlled the race from the start and I'm statisfied.	4098902	1472022745366	1472022745430	'	222
7993	86055	We controlled the race from the start and I'm satisfied.	We controlled the race from the start and I'm statisfied.	4098913	1472022745678	1472022745766	m	77
7993	86055	We controlled the race from the start and I'm satisfied.	We controlled the race from the start and I'm statisfied.	4098914	1472022745886	1472022745982	 	32
7993	86055	We controlled the race from the start and I'm satisfied.	We controlled the race from the start and I'm statisfied.	4098915	1472022746006	1472022746094	s	83
7993	86055	We controlled the race from the start and I'm satisfied.	We controlled the race from the start and I'm statisfied.	4098917	1472022746143	1472022746222	t	84
7993	86055	We controlled the race from the start and I'm satisfied.	We controlled the race from the start and I'm statisfied.	4098919	1472022746294	1472022746390	a	65
7993	86055	We controlled the race from the start and I'm satisfied.	We controlled the race from the start and I'm statisfied.	4098966	1472022746550	1472022746614	t	84
7993	86055	We controlled the race from the start and I'm satisfied.	We controlled the race from the start and I'm statisfied.	4098968	1472022747006	1472022747094	i	73
7993	86055	We controlled the race from the start and I'm satisfied.	We controlled the race from the start and I'm statisfied.	4098970	1472022747166	1472022747238	s	83
7993	86055	We controlled the race from the start and I'm satisfied.	We controlled the race from the start and I'm statisfied.	4098972	1472022747614	1472022747670	BKSP	8
7993	86055	We controlled the race from the start and I'm satisfied.	We controlled the race from the start and I'm statisfied.	4098975	1472022747758	1472022747830	BKSP	8
7993	86055	We controlled the race from the start and I'm satisfied.	We controlled the race from the start and I'm statisfied.	4098979	1472022747910	1472022747966	BKSP	8
7993	86055	We controlled the race from the start and I'm satisfied.	We controlled the race from the start and I'm statisfied.	4098981	1472022748550	1472022748622	t	84
7993	86055	We controlled the race from the start and I'm satisfied.	We controlled the race from the start and I'm statisfied.	4098985	1472022748774	1472022748838	i	73
7993	86055	We controlled the race from the start and I'm satisfied.	We controlled the race from the start and I'm statisfied.	4099002	1472022748870	1472022748958	s	83
7993	86055	We controlled the race from the start and I'm satisfied.	We controlled the race from the start and I'm statisfied.	4099006	1472022749118	1472022749198	f	70
7993	86055	We controlled the race from the start and I'm satisfied.	We controlled the race from the start and I'm statisfied.	4099008	1472022749246	1472022749334	i	73
7993	86055	We controlled the race from the start and I'm satisfied.	We controlled the race from the start and I'm statisfied.	4099012	1472022749374	1472022749454	e	69
7993	86055	We controlled the race from the start and I'm satisfied.	We controlled the race from the start and I'm statisfied.	4099015	1472022749638	1472022749718	d	68
7993	86055	We controlled the race from the start and I'm satisfied.	We controlled the race from the start and I'm statisfied.	4099044	1472022750742	1472022750806	.	190
7993	86066	We don't recommend McNair this week as a result.	We don't recommend McNair this week as a result.	4099129	1472022753600	1472022753918	SHIFT	16
7993	86066	We don't recommend McNair this week as a result.	We don't recommend McNair this week as a result.	4099131	1472022753862	1472022753950	W	87
7993	86066	We don't recommend McNair this week as a result.	We don't recommend McNair this week as a result.	4099134	1472022754054	1472022754118	e	69
7993	86066	We don't recommend McNair this week as a result.	We don't recommend McNair this week as a result.	4099137	1472022754190	1472022754302	 	32
7993	86066	We don't recommend McNair this week as a result.	We don't recommend McNair this week as a result.	4099141	1472022754318	1472022754382	d	68
7993	86066	We don't recommend McNair this week as a result.	We don't recommend McNair this week as a result.	4099145	1472022754398	1472022754454	o	79
7993	86066	We don't recommend McNair this week as a result.	We don't recommend McNair this week as a result.	4099189	1472022754574	1472022754630	n	78
7993	86066	We don't recommend McNair this week as a result.	We don't recommend McNair this week as a result.	4099192	1472022754830	1472022754894	'	222
7993	86066	We don't recommend McNair this week as a result.	We don't recommend McNair this week as a result.	4099195	1472022755190	1472022755262	t	84
7993	86066	We don't recommend McNair this week as a result.	We don't recommend McNair this week as a result.	4099199	1472022755374	1472022755510	 	32
7993	86066	We don't recommend McNair this week as a result.	We don't recommend McNair this week as a result.	4099202	1472022755846	1472022755998	r	82
7993	86066	We don't recommend McNair this week as a result.	We don't recommend McNair this week as a result.	4099224	1472022755958	1472022756070	e	69
7993	86066	We don't recommend McNair this week as a result.	We don't recommend McNair this week as a result.	4099226	1472022756158	1472022756254	c	67
7993	86066	We don't recommend McNair this week as a result.	We don't recommend McNair this week as a result.	4099233	1472022756526	1472022756590	o	79
7993	86066	We don't recommend McNair this week as a result.	We don't recommend McNair this week as a result.	4099235	1472022756727	1472022756798	m	77
7993	86066	We don't recommend McNair this week as a result.	We don't recommend McNair this week as a result.	4099239	1472022756870	1472022756942	m	77
7993	86066	We don't recommend McNair this week as a result.	We don't recommend McNair this week as a result.	4099244	1472022757014	1472022757102	e	69
7993	86066	We don't recommend McNair this week as a result.	We don't recommend McNair this week as a result.	4099284	1472022757158	1472022757238	n	78
7993	86066	We don't recommend McNair this week as a result.	We don't recommend McNair this week as a result.	4099287	1472022757334	1472022757414	d	68
7993	86066	We don't recommend McNair this week as a result.	We don't recommend McNair this week as a result.	4099290	1472022757710	1472022757854	 	32
7993	86066	We don't recommend McNair this week as a result.	We don't recommend McNair this week as a result.	4099294	1472022758006	1472022758086	BKSP	8
7993	86066	We don't recommend McNair this week as a result.	We don't recommend McNair this week as a result.	4099298	1472022758198	1472022758374	SHIFT	16
7993	86066	We don't recommend McNair this week as a result.	We don't recommend McNair this week as a result.	4099302	1472022758294	1472022758390	M	77
7993	86066	We don't recommend McNair this week as a result.	We don't recommend McNair this week as a result.	4099305	1472022758502	1472022758566	c	67
7993	86066	We don't recommend McNair this week as a result.	We don't recommend McNair this week as a result.	4099339	1472022758718	1472022758926	SHIFT	16
7993	86066	We don't recommend McNair this week as a result.	We don't recommend McNair this week as a result.	4099343	1472022758854	1472022758950	N	78
7993	86066	We don't recommend McNair this week as a result.	We don't recommend McNair this week as a result.	4099346	1472022759094	1472022759182	a	65
7993	86066	We don't recommend McNair this week as a result.	We don't recommend McNair this week as a result.	4099349	1472022759246	1472022759334	i	73
7993	86066	We don't recommend McNair this week as a result.	We don't recommend McNair this week as a result.	4099351	1472022759486	1472022759574	r	82
7993	86066	We don't recommend McNair this week as a result.	We don't recommend McNair this week as a result.	4099355	1472022759718	1472022759854	 	32
7993	86066	We don't recommend McNair this week as a result.	We don't recommend McNair this week as a result.	4099378	1472022760102	1472022760191	t	84
7993	86066	We don't recommend McNair this week as a result.	We don't recommend McNair this week as a result.	4099380	1472022760182	1472022760246	h	72
7993	86066	We don't recommend McNair this week as a result.	We don't recommend McNair this week as a result.	4099381	1472022760359	1472022760438	i	73
7993	86066	We don't recommend McNair this week as a result.	We don't recommend McNair this week as a result.	4099382	1472022760486	1472022760574	s	83
7993	86066	We don't recommend McNair this week as a result.	We don't recommend McNair this week as a result.	4099383	1472022760590	1472022760710	 	32
7993	86066	We don't recommend McNair this week as a result.	We don't recommend McNair this week as a result.	4099422	1472022760751	1472022760830	w	87
7993	86066	We don't recommend McNair this week as a result.	We don't recommend McNair this week as a result.	4099427	1472022761326	1472022761406	e	69
7993	86066	We don't recommend McNair this week as a result.	We don't recommend McNair this week as a result.	4099434	1472022761486	1472022761558	e	69
7993	86066	We don't recommend McNair this week as a result.	We don't recommend McNair this week as a result.	4099439	1472022761582	1472022761670	k	75
7993	86066	We don't recommend McNair this week as a result.	We don't recommend McNair this week as a result.	4099441	1472022761710	1472022761830	 	32
7993	86066	We don't recommend McNair this week as a result.	We don't recommend McNair this week as a result.	4099454	1472022761950	1472022762094	a	65
7993	86066	We don't recommend McNair this week as a result.	We don't recommend McNair this week as a result.	4099459	1472022762046	1472022762126	s	83
7993	86066	We don't recommend McNair this week as a result.	We don't recommend McNair this week as a result.	4099465	1472022762174	1472022762270	 	32
7993	86066	We don't recommend McNair this week as a result.	We don't recommend McNair this week as a result.	4099468	1472022762286	1472022762358	a	65
7993	86066	We don't recommend McNair this week as a result.	We don't recommend McNair this week as a result.	4099471	1472022762382	1472022762478	 	32
7993	86066	We don't recommend McNair this week as a result.	We don't recommend McNair this week as a result.	4099492	1472022762606	1472022762758	r	82
7993	86066	We don't recommend McNair this week as a result.	We don't recommend McNair this week as a result.	4099495	1472022762726	1472022762838	e	69
7993	86066	We don't recommend McNair this week as a result.	We don't recommend McNair this week as a result.	4099499	1472022763022	1472022763094	s	83
7993	86066	We don't recommend McNair this week as a result.	We don't recommend McNair this week as a result.	4099503	1472022763190	1472022763262	u	85
7993	86066	We don't recommend McNair this week as a result.	We don't recommend McNair this week as a result.	4099507	1472022763414	1472022763486	l	76
7993	86066	We don't recommend McNair this week as a result.	We don't recommend McNair this week as a result.	4099541	1472022763542	1472022763614	t	84
7993	86066	We don't recommend McNair this week as a result.	We don't recommend McNair this week as a result.	4099544	1472022764134	1472022764206	.	190
7993	86074	Just wanted to touch base.	Just wanted to touch base.	4099684	1472022767982	1472022768270	SHIFT	16
7993	86074	Just wanted to touch base.	Just wanted to touch base.	4099685	1472022768198	1472022768286	J	74
7993	86074	Just wanted to touch base.	Just wanted to touch base.	4099686	1472022768430	1472022768502	u	85
7993	86074	Just wanted to touch base.	Just wanted to touch base.	4099687	1472022768574	1472022768646	s	83
7993	86074	Just wanted to touch base.	Just wanted to touch base.	4099688	1472022768662	1472022768734	t	84
7993	86074	Just wanted to touch base.	Just wanted to touch base.	4099689	1472022768758	1472022768886	 	32
7993	86074	Just wanted to touch base.	Just wanted to touch base.	4099703	1472022769094	1472022769174	w	87
7993	86074	Just wanted to touch base.	Just wanted to touch base.	4099705	1472022769262	1472022769358	a	65
7993	86074	Just wanted to touch base.	Just wanted to touch base.	4099707	1472022769374	1472022769462	n	78
7993	86074	Just wanted to touch base.	Just wanted to touch base.	4099709	1472022769598	1472022769678	t	84
7993	86074	Just wanted to touch base.	Just wanted to touch base.	4099710	1472022769718	1472022769790	e	69
7993	86074	Just wanted to touch base.	Just wanted to touch base.	4099716	1472022769902	1472022769982	d	68
7993	86074	Just wanted to touch base.	Just wanted to touch base.	4099717	1472022770022	1472022770118	 	32
7993	86074	Just wanted to touch base.	Just wanted to touch base.	4099718	1472022770166	1472022770246	t	84
7993	86074	Just wanted to touch base.	Just wanted to touch base.	4099719	1472022770262	1472022770350	o	79
7993	86074	Just wanted to touch base.	Just wanted to touch base.	4099720	1472022770470	1472022770606	 	32
7993	86074	Just wanted to touch base.	Just wanted to touch base.	4099727	1472022770902	1472022770982	t	84
7993	86074	Just wanted to touch base.	Just wanted to touch base.	4099730	1472022770998	1472022771070	o	79
7993	86074	Just wanted to touch base.	Just wanted to touch base.	4099733	1472022771198	1472022771270	u	85
7993	86074	Just wanted to touch base.	Just wanted to touch base.	4099737	1472022771350	1472022771374	c	86
7993	86074	Just wanted to touch base.	Just wanted to touch base.	4099782	1472022771398	1472022771486	h	72
7993	86074	Just wanted to touch base.	Just wanted to touch base.	4099784	1472022771822	1472022771910	BKSP	8
7993	86074	Just wanted to touch base.	Just wanted to touch base.	4099786	1472022771990	1472022772046	BKSP	8
7993	86074	Just wanted to touch base.	Just wanted to touch base.	4099788	1472022772326	1472022772438	BKSP	8
7993	86074	Just wanted to touch base.	Just wanted to touch base.	4099792	1472022772750	1472022772854	c	67
7993	86074	Just wanted to touch base.	Just wanted to touch base.	4099798	1472022772895	1472022772990	h	72
7993	86074	Just wanted to touch base.	Just wanted to touch base.	4099802	1472022773110	1472022773230	 	32
7993	86074	Just wanted to touch base.	Just wanted to touch base.	4099806	1472022773350	1472022773406	b	66
7993	86074	Just wanted to touch base.	Just wanted to touch base.	4099837	1472022773454	1472022773614	a	65
7993	86074	Just wanted to touch base.	Just wanted to touch base.	4099839	1472022773598	1472022773694	s	83
7993	86074	Just wanted to touch base.	Just wanted to touch base.	4099841	1472022773798	1472022773854	e	69
7993	86074	Just wanted to touch base.	Just wanted to touch base.	4099842	1472022774158	1472022774222	.	190
