PARTICIPANT_ID	TEST_SECTION_ID	SENTENCE	USER_INPUT	KEYSTROKE_ID	PRESS_TIME	RELEASE_TIME	LETTER	KEYCODE
80998	885323	The team mate says were not interested at this point.	The team mate says were not interested at this point.	42105958	1473012901211	1473012901352	CAPS_LOCK	20
80998	885323	The team mate says were not interested at this point.	The team mate says were not interested at this point.	42105959	1473012902274	1473012902368	T	84
80998	885323	The team mate says were not interested at this point.	The team mate says were not interested at this point.	42105961	1473012902668	1473012902808	CAPS_LOCK	20
80998	885323	The team mate says were not interested at this point.	The team mate says were not interested at this point.	42105963	1473012902877	1473012902957	h	72
80998	885323	The team mate says were not interested at this point.	The team mate says were not interested at this point.	42105966	1473012903237	1473012903318	e	69
80998	885323	The team mate says were not interested at this point.	The team mate says were not interested at this point.	42105969	1473012903378	1473012903484	 	32
80998	885323	The team mate says were not interested at this point.	The team mate says were not interested at this point.	42105973	1473012904411	1473012904611	t	84
80998	885323	The team mate says were not interested at this point.	The team mate says were not interested at this point.	42106071	1473012904567	1473012904727	e	69
80998	885323	The team mate says were not interested at this point.	The team mate says were not interested at this point.	42106072	1473012904797	1473012904914	a	65
80998	885323	The team mate says were not interested at this point.	The team mate says were not interested at this point.	42106074	1473012905194	1473012905274	m	77
80998	885323	The team mate says were not interested at this point.	The team mate says were not interested at this point.	42106076	1473012906034	1473012906121	 	32
80998	885323	The team mate says were not interested at this point.	The team mate says were not interested at this point.	42106078	1473012907995	1473012908132	m	77
80998	885323	The team mate says were not interested at this point.	The team mate says were not interested at this point.	42106080	1473012908142	1473012908421	a	65
80998	885323	The team mate says were not interested at this point.	The team mate says were not interested at this point.	42106146	1473012908421	1473012908558	t	84
80998	885323	The team mate says were not interested at this point.	The team mate says were not interested at this point.	42106150	1473012908598	1473012908669	t	84
80998	885323	The team mate says were not interested at this point.	The team mate says were not interested at this point.	42106155	1473012908640	1473012908775	e	69
80998	885323	The team mate says were not interested at this point.	The team mate says were not interested at this point.	42106160	1473012908825	1473012908968	 	32
80998	885323	The team mate says were not interested at this point.	The team mate says were not interested at this point.	42106165	1473012909398	1473012909475	BKSP	8
80998	885323	The team mate says were not interested at this point.	The team mate says were not interested at this point.	42106168	1473012909555	1473012909631	BKSP	8
80998	885323	The team mate says were not interested at this point.	The team mate says were not interested at this point.	42106173	1473012909712	1473012909784	BKSP	8
80998	885323	The team mate says were not interested at this point.	The team mate says were not interested at this point.	42106175	1473012910345	1473012910437	e	69
80998	885323	The team mate says were not interested at this point.	The team mate says were not interested at this point.	42106291	1473012910478	1473012910565	 	32
80998	885323	The team mate says were not interested at this point.	The team mate says were not interested at this point.	42106293	1473012912928	1473012913073	s	83
80998	885323	The team mate says were not interested at this point.	The team mate says were not interested at this point.	42106294	1473012913028	1473012913228	a	65
80998	885323	The team mate says were not interested at this point.	The team mate says were not interested at this point.	42106295	1473012913248	1473012913348	y	89
80998	885323	The team mate says were not interested at this point.	The team mate says were not interested at this point.	42106296	1473012914245	1473012914337	s	83
80998	885323	The team mate says were not interested at this point.	The team mate says were not interested at this point.	42106351	1473012914347	1473012914471	 	32
80998	885323	The team mate says were not interested at this point.	The team mate says were not interested at this point.	42106355	1473012915348	1473012915511	w	87
80998	885323	The team mate says were not interested at this point.	The team mate says were not interested at this point.	42106360	1473012915882	1473012916095	e	69
80998	885323	The team mate says were not interested at this point.	The team mate says were not interested at this point.	42106364	1473012916155	1473012916309	r	82
80998	885323	The team mate says were not interested at this point.	The team mate says were not interested at this point.	42106409	1473012916268	1473012916408	e	69
80998	885323	The team mate says were not interested at this point.	The team mate says were not interested at this point.	42106412	1473012916668	1473012916795	 	32
80998	885323	The team mate says were not interested at this point.	The team mate says were not interested at this point.	42106416	1473012917447	1473012917557	n	78
80998	885323	The team mate says were not interested at this point.	The team mate says were not interested at this point.	42106420	1473012917607	1473012917741	o	79
80998	885323	The team mate says were not interested at this point.	The team mate says were not interested at this point.	42106426	1473012917741	1473012917825	t	84
80998	885323	The team mate says were not interested at this point.	The team mate says were not interested at this point.	42106430	1473012917915	1473012918034	 	32
80998	885323	The team mate says were not interested at this point.	The team mate says were not interested at this point.	42106538	1473012919748	1473012919847	i	73
80998	885323	The team mate says were not interested at this point.	The team mate says were not interested at this point.	42106541	1473012919957	1473012920098	n	78
80998	885323	The team mate says were not interested at this point.	The team mate says were not interested at this point.	42106544	1473012921208	1473012921321	t	84
80998	885323	The team mate says were not interested at this point.	The team mate says were not interested at this point.	42106548	1473012921421	1473012921584	e	69
80998	885323	The team mate says were not interested at this point.	The team mate says were not interested at this point.	42106648	1473012921540	1473012921681	r	82
80998	885323	The team mate says were not interested at this point.	The team mate says were not interested at this point.	42106651	1473012922548	1473012922744	r	82
80998	885323	The team mate says were not interested at this point.	The team mate says were not interested at this point.	42106655	1473012922691	1473012922851	e	69
80998	885323	The team mate says were not interested at this point.	The team mate says were not interested at this point.	42106657	1473012922941	1473012923151	s	83
80998	885323	The team mate says were not interested at this point.	The team mate says were not interested at this point.	42106661	1473012923381	1473012923474	BKSP	8
80998	885323	The team mate says were not interested at this point.	The team mate says were not interested at this point.	42106663	1473012923544	1473012923624	BKSP	8
80998	885323	The team mate says were not interested at this point.	The team mate says were not interested at this point.	42106665	1473012923694	1473012923804	BKSP	8
80998	885323	The team mate says were not interested at this point.	The team mate says were not interested at this point.	42106666	1473012923824	1473012923954	s	83
80998	885323	The team mate says were not interested at this point.	The team mate says were not interested at this point.	42106667	1473012924824	1473012924944	BKSP	8
80998	885323	The team mate says were not interested at this point.	The team mate says were not interested at this point.	42106668	1473012925284	1473012925495	e	69
80998	885323	The team mate says were not interested at this point.	The team mate says were not interested at this point.	42106718	1473012925464	1473012925628	s	83
80998	885323	The team mate says were not interested at this point.	The team mate says were not interested at this point.	42106719	1473012926527	1473012926706	t	84
80998	885323	The team mate says were not interested at this point.	The team mate says were not interested at this point.	42106720	1473012926678	1473012926830	e	69
80998	885323	The team mate says were not interested at this point.	The team mate says were not interested at this point.	42106721	1473012927140	1473012927234	d	68
80998	885323	The team mate says were not interested at this point.	The team mate says were not interested at this point.	42106723	1473012927294	1473012927411	 	32
80998	885323	The team mate says were not interested at this point.	The team mate says were not interested at this point.	42106727	1473012928047	1473012928244	a	65
80998	885323	The team mate says were not interested at this point.	The team mate says were not interested at this point.	42106780	1473012928184	1473012928285	t	84
80998	885323	The team mate says were not interested at this point.	The team mate says were not interested at this point.	42106783	1473012928305	1473012928410	 	32
80998	885323	The team mate says were not interested at this point.	The team mate says were not interested at this point.	42106785	1473012929443	1473012929523	t	84
80998	885323	The team mate says were not interested at this point.	The team mate says were not interested at this point.	42106786	1473012929533	1473012929643	h	72
80998	885323	The team mate says were not interested at this point.	The team mate says were not interested at this point.	42106787	1473012929663	1473012929833	i	73
80998	885323	The team mate says were not interested at this point.	The team mate says were not interested at this point.	42106951	1473012929833	1473012929923	s	83
80998	885323	The team mate says were not interested at this point.	The team mate says were not interested at this point.	42106952	1473012929973	1473012930073	 	32
80998	885323	The team mate says were not interested at this point.	The team mate says were not interested at this point.	42106955	1473012931450	1473012931536	p	80
80998	885323	The team mate says were not interested at this point.	The team mate says were not interested at this point.	42106958	1473012934680	1473012934780	o	79
80998	885323	The team mate says were not interested at this point.	The team mate says were not interested at this point.	42106961	1473012934860	1473012934990	i	73
80998	885323	The team mate says were not interested at this point.	The team mate says were not interested at this point.	42106964	1473012935749	1473012935849	n	78
80998	885323	The team mate says were not interested at this point.	The team mate says were not interested at this point.	42107066	1473012935859	1473012935943	t	84
80998	885323	The team mate says were not interested at this point.	The team mate says were not interested at this point.	42107067	1473012935973	1473012936076	 	32
80998	885323	The team mate says were not interested at this point.	The team mate says were not interested at this point.	42107068	1473012938579	1473012938729	BKSP	8
80998	885323	The team mate says were not interested at this point.	The team mate says were not interested at this point.	42107069	1473012939989	1473012940103	.	190
80998	885349	Call me if you have any questions.	Call me if you have any questions.	42107323	1473012942776	1473012943886	CAPS_LOCK	20
80998	885349	Call me if you have any questions.	Call me if you have any questions.	42107324	1473012944476	1473012944602	C	67
80998	885349	Call me if you have any questions.	Call me if you have any questions.	42107325	1473012944872	1473012945588	CAPS_LOCK	20
80998	885349	Call me if you have any questions.	Call me if you have any questions.	42107327	1473012946249	1473012946343	a	65
80998	885349	Call me if you have any questions.	Call me if you have any questions.	42107328	1473012946966	1473012947026	l	76
80998	885349	Call me if you have any questions.	Call me if you have any questions.	42107330	1473012947076	1473012947192	l	76
80998	885349	Call me if you have any questions.	Call me if you have any questions.	42107332	1473012947689	1473012947809	 	32
80998	885349	Call me if you have any questions.	Call me if you have any questions.	42107393	1473012948336	1473012948422	m	77
80998	885349	Call me if you have any questions.	Call me if you have any questions.	42107395	1473012948432	1473012948522	e	69
80998	885349	Call me if you have any questions.	Call me if you have any questions.	42107397	1473012948582	1473012948682	 	32
80998	885349	Call me if you have any questions.	Call me if you have any questions.	42107401	1473012949542	1473012949639	i	73
80998	885349	Call me if you have any questions.	Call me if you have any questions.	42107406	1473012950029	1473012950099	f	70
80998	885349	Call me if you have any questions.	Call me if you have any questions.	42107489	1473012950109	1473012950216	 	32
80998	885349	Call me if you have any questions.	Call me if you have any questions.	42107493	1473012951562	1473012951699	y	89
80998	885349	Call me if you have any questions.	Call me if you have any questions.	42107498	1473012951759	1473012952019	o	79
80998	885349	Call me if you have any questions.	Call me if you have any questions.	42107502	1473012952039	1473012952172	u	85
80998	885349	Call me if you have any questions.	Call me if you have any questions.	42107504	1473012952242	1473012952359	 	32
80998	885349	Call me if you have any questions.	Call me if you have any questions.	42107522	1473012953082	1473012953192	h	72
80998	885349	Call me if you have any questions.	Call me if you have any questions.	42107523	1473012953202	1473012953339	a	65
80998	885349	Call me if you have any questions.	Call me if you have any questions.	42107524	1473012953399	1473012953519	v	86
80998	885349	Call me if you have any questions.	Call me if you have any questions.	42107525	1473012953559	1473012953692	e	69
80998	885349	Call me if you have any questions.	Call me if you have any questions.	42107631	1473012953629	1473012953733	 	32
80998	885349	Call me if you have any questions.	Call me if you have any questions.	42107633	1473012953833	1473012953932	a	65
80998	885349	Call me if you have any questions.	Call me if you have any questions.	42107635	1473012955049	1473012955179	n	78
80998	885349	Call me if you have any questions.	Call me if you have any questions.	42107637	1473012955189	1473012955282	y	89
80998	885349	Call me if you have any questions.	Call me if you have any questions.	42107639	1473012955312	1473012955432	 	32
80998	885349	Call me if you have any questions.	Call me if you have any questions.	42107640	1473012956889	1473012957009	q	81
80998	885349	Call me if you have any questions.	Call me if you have any questions.	42107736	1473012957090	1473012957152	u	85
80998	885349	Call me if you have any questions.	Call me if you have any questions.	42107738	1473012958759	1473012958859	e	69
80998	885349	Call me if you have any questions.	Call me if you have any questions.	42107741	1473012959369	1473012959442	s	83
80998	885349	Call me if you have any questions.	Call me if you have any questions.	42107744	1473012960059	1473012960138	t	84
80998	885349	Call me if you have any questions.	Call me if you have any questions.	42107747	1473012960178	1473012960309	i	73
80998	885349	Call me if you have any questions.	Call me if you have any questions.	42107856	1473012960699	1473012960788	n	78
80998	885349	Call me if you have any questions.	Call me if you have any questions.	42107858	1473012962378	1473012962502	BKSP	8
80998	885349	Call me if you have any questions.	Call me if you have any questions.	42107860	1473012963398	1473012963488	o	79
80998	885349	Call me if you have any questions.	Call me if you have any questions.	42107864	1473012963618	1473012963785	n	78
80998	885349	Call me if you have any questions.	Call me if you have any questions.	42107868	1473012963765	1473012963855	g	71
80998	885349	Call me if you have any questions.	Call me if you have any questions.	42107873	1473012964635	1473012964742	BKSP	8
80998	885349	Call me if you have any questions.	Call me if you have any questions.	42107879	1473012964892	1473012965012	s	83
80998	885349	Call me if you have any questions.	Call me if you have any questions.	42107931	1473012966168	1473012966312	.	190
80998	885365	No employment claims for gas or power.	No employment claims for gas or power.	42108122	1473012968068	1473012968170	CAPS_LOCK	20
80998	885365	No employment claims for gas or power.	No employment claims for gas or power.	42108124	1473012971138	1473012971238	N	78
80998	885365	No employment claims for gas or power.	No employment claims for gas or power.	42108126	1473012971288	1473012971428	CAPS_LOCK	20
80998	885365	No employment claims for gas or power.	No employment claims for gas or power.	42108127	1473012971418	1473012971575	o	79
80998	885365	No employment claims for gas or power.	No employment claims for gas or power.	42108128	1473012972515	1473012972601	 	32
80998	885365	No employment claims for gas or power.	No employment claims for gas or power.	42108131	1473012973895	1473012973985	e	69
80998	885365	No employment claims for gas or power.	No employment claims for gas or power.	42108134	1473012974075	1473012974205	m	77
80998	885365	No employment claims for gas or power.	No employment claims for gas or power.	42108319	1473012975371	1473012975491	p	80
80998	885365	No employment claims for gas or power.	No employment claims for gas or power.	42108320	1473012976310	1473012976392	BKSP	8
80998	885365	No employment claims for gas or power.	No employment claims for gas or power.	42108322	1473012977372	1473012977471	p	80
80998	885365	No employment claims for gas or power.	No employment claims for gas or power.	42108325	1473012978908	1473012978994	l	76
80998	885365	No employment claims for gas or power.	No employment claims for gas or power.	42108328	1473012979424	1473012979514	o	79
80998	885365	No employment claims for gas or power.	No employment claims for gas or power.	42108331	1473012980194	1473012980268	y	89
80998	885365	No employment claims for gas or power.	No employment claims for gas or power.	42108374	1473012980299	1473012980418	e	69
80998	885365	No employment claims for gas or power.	No employment claims for gas or power.	42108375	1473012981148	1473012981248	BKSP	8
80998	885365	No employment claims for gas or power.	No employment claims for gas or power.	42108376	1473012982189	1473012982268	m	77
80998	885365	No employment claims for gas or power.	No employment claims for gas or power.	42108377	1473012982318	1473012982491	e	69
80998	885365	No employment claims for gas or power.	No employment claims for gas or power.	42108379	1473012983078	1473012983178	n	78
80998	885365	No employment claims for gas or power.	No employment claims for gas or power.	42108381	1473012983208	1473012983308	t	84
80998	885365	No employment claims for gas or power.	No employment claims for gas or power.	42108489	1473012983338	1473012983441	 	32
80998	885365	No employment claims for gas or power.	No employment claims for gas or power.	42108491	1473012985734	1473012985857	c	67
80998	885365	No employment claims for gas or power.	No employment claims for gas or power.	42108493	1473012985857	1473012985947	l	76
80998	885365	No employment claims for gas or power.	No employment claims for gas or power.	42108494	1473012987224	1473012987334	a	65
80998	885365	No employment claims for gas or power.	No employment claims for gas or power.	42108557	1473012987324	1473012987424	i	73
80998	885365	No employment claims for gas or power.	No employment claims for gas or power.	42108558	1473012987764	1473012987884	m	77
80998	885365	No employment claims for gas or power.	No employment claims for gas or power.	42108559	1473012988304	1473012988387	s	83
80998	885365	No employment claims for gas or power.	No employment claims for gas or power.	42108560	1473012988397	1473012988507	 	32
80998	885365	No employment claims for gas or power.	No employment claims for gas or power.	42108561	1473012989644	1473012989794	o	79
80998	885365	No employment claims for gas or power.	No employment claims for gas or power.	42108562	1473012990351	1473012990454	BKSP	8
80998	885365	No employment claims for gas or power.	No employment claims for gas or power.	42108563	1473012990704	1473012990827	f	70
80998	885365	No employment claims for gas or power.	No employment claims for gas or power.	42108625	1473012991378	1473012991458	o	79
80998	885365	No employment claims for gas or power.	No employment claims for gas or power.	42108626	1473012991478	1473012991568	r	82
80998	885365	No employment claims for gas or power.	No employment claims for gas or power.	42108627	1473012991600	1473012991697	 	32
80998	885365	No employment claims for gas or power.	No employment claims for gas or power.	42108628	1473012993251	1473012993347	g	71
80998	885365	No employment claims for gas or power.	No employment claims for gas or power.	42108629	1473012993407	1473012993584	a	65
80998	885365	No employment claims for gas or power.	No employment claims for gas or power.	42108694	1473012993665	1473012993705	a	65
80998	885365	No employment claims for gas or power.	No employment claims for gas or power.	42108695	1473012994417	1473012994514	BKSP	8
80998	885365	No employment claims for gas or power.	No employment claims for gas or power.	42108696	1473012994534	1473012994637	s	83
80998	885365	No employment claims for gas or power.	No employment claims for gas or power.	42108697	1473012994647	1473012994757	 	32
80998	885365	No employment claims for gas or power.	No employment claims for gas or power.	42108698	1473012995497	1473012995597	o	79
80998	885365	No employment claims for gas or power.	No employment claims for gas or power.	42108700	1473012995627	1473012995727	r	82
80998	885365	No employment claims for gas or power.	No employment claims for gas or power.	42108831	1473012995727	1473012995840	 	32
80998	885365	No employment claims for gas or power.	No employment claims for gas or power.	42108832	1473012997427	1473012997510	p	80
80998	885365	No employment claims for gas or power.	No employment claims for gas or power.	42108833	1473012999507	1473012999577	o	79
80998	885365	No employment claims for gas or power.	No employment claims for gas or power.	42108834	1473012999617	1473012999884	w	87
80998	885365	No employment claims for gas or power.	No employment claims for gas or power.	42108835	1473012999944	1473013000074	e	69
80998	885365	No employment claims for gas or power.	No employment claims for gas or power.	42108962	1473013000694	1473013000767	r	82
80998	885365	No employment claims for gas or power.	No employment claims for gas or power.	42108963	1473013000897	1473013001007	 	32
80998	885365	No employment claims for gas or power.	No employment claims for gas or power.	42108964	1473013001647	1473013001797	BKSP	8
80998	885365	No employment claims for gas or power.	No employment claims for gas or power.	42108965	1473013003083	1473013003187	.	190
80998	885385	The rest is a byproduct of slapshot.	The rest is a byproduct of slapshot.	42109198	1473013007217	1473013007360	CAPS_LOCK	20
80998	885385	The rest is a byproduct of slapshot.	The rest is a byproduct of slapshot.	42109203	1473013007560	1473013007653	T	84
80998	885385	The rest is a byproduct of slapshot.	The rest is a byproduct of slapshot.	42109206	1473013008053	1473013008177	H	72
80998	885385	The rest is a byproduct of slapshot.	The rest is a byproduct of slapshot.	42109209	1473013008897	1473013009017	BKSP	8
80998	885385	The rest is a byproduct of slapshot.	The rest is a byproduct of slapshot.	42109212	1473013011437	1473013011540	H	72
80998	885385	The rest is a byproduct of slapshot.	The rest is a byproduct of slapshot.	42109214	1473013011530	1473013011613	E	69
80998	885385	The rest is a byproduct of slapshot.	The rest is a byproduct of slapshot.	42109216	1473013011693	1473013011843	 	32
80998	885385	The rest is a byproduct of slapshot.	The rest is a byproduct of slapshot.	42109379	1473013012184	1473013012256	BKSP	8
80998	885385	The rest is a byproduct of slapshot.	The rest is a byproduct of slapshot.	42109382	1473013012346	1473013012436	BKSP	8
80998	885385	The rest is a byproduct of slapshot.	The rest is a byproduct of slapshot.	42109384	1473013012496	1473013012596	BKSP	8
80998	885385	The rest is a byproduct of slapshot.	The rest is a byproduct of slapshot.	42109386	1473013013083	1473013015020	CAPS_LOCK	20
80998	885385	The rest is a byproduct of slapshot.	The rest is a byproduct of slapshot.	42109388	1473013016010	1473013016110	h	72
80998	885385	The rest is a byproduct of slapshot.	The rest is a byproduct of slapshot.	42109390	1473013016856	1473013016943	e	69
80998	885385	The rest is a byproduct of slapshot.	The rest is a byproduct of slapshot.	42109391	1473013016993	1473013017143	 	32
80998	885385	The rest is a byproduct of slapshot.	The rest is a byproduct of slapshot.	42109392	1473013018143	1473013018340	r	82
80998	885385	The rest is a byproduct of slapshot.	The rest is a byproduct of slapshot.	42109475	1473013018286	1473013018456	e	69
80998	885385	The rest is a byproduct of slapshot.	The rest is a byproduct of slapshot.	42109478	1473013018666	1473013018793	s	83
80998	885385	The rest is a byproduct of slapshot.	The rest is a byproduct of slapshot.	42109481	1473013019213	1473013019284	t	84
80998	885385	The rest is a byproduct of slapshot.	The rest is a byproduct of slapshot.	42109483	1473013019329	1473013019469	 	32
80998	885385	The rest is a byproduct of slapshot.	The rest is a byproduct of slapshot.	42109484	1473013021856	1473013021953	i	73
80998	885385	The rest is a byproduct of slapshot.	The rest is a byproduct of slapshot.	42109485	1473013022013	1473013022093	d	68
80998	885385	The rest is a byproduct of slapshot.	The rest is a byproduct of slapshot.	42109532	1473013022454	1473013022527	BKSP	8
80998	885385	The rest is a byproduct of slapshot.	The rest is a byproduct of slapshot.	42109533	1473013022607	1473013022706	BKSP	8
80998	885385	The rest is a byproduct of slapshot.	The rest is a byproduct of slapshot.	42109534	1473013022657	1473013022802	s	83
80998	885385	The rest is a byproduct of slapshot.	The rest is a byproduct of slapshot.	42109535	1473013022756	1473013022906	 	32
80998	885385	The rest is a byproduct of slapshot.	The rest is a byproduct of slapshot.	42109537	1473013023386	1473013023449	BKSP	8
80998	885385	The rest is a byproduct of slapshot.	The rest is a byproduct of slapshot.	42109539	1473013023539	1473013023639	BKSP	8
80998	885385	The rest is a byproduct of slapshot.	The rest is a byproduct of slapshot.	42109542	1473013024720	1473013024805	i	73
80998	885385	The rest is a byproduct of slapshot.	The rest is a byproduct of slapshot.	42109545	1473013024836	1473013024963	s	83
80998	885385	The rest is a byproduct of slapshot.	The rest is a byproduct of slapshot.	42109710	1473013024939	1473013025106	 	32
80998	885385	The rest is a byproduct of slapshot.	The rest is a byproduct of slapshot.	42109713	1473013025316	1473013025483	a	65
80998	885385	The rest is a byproduct of slapshot.	The rest is a byproduct of slapshot.	42109715	1473013025483	1473013025586	 	32
80998	885385	The rest is a byproduct of slapshot.	The rest is a byproduct of slapshot.	42109717	1473013027219	1473013027322	b	66
80998	885385	The rest is a byproduct of slapshot.	The rest is a byproduct of slapshot.	42109718	1473013028243	1473013028316	y	89
80998	885385	The rest is a byproduct of slapshot.	The rest is a byproduct of slapshot.	42109719	1473013030789	1473013030859	p	80
80998	885385	The rest is a byproduct of slapshot.	The rest is a byproduct of slapshot.	42109842	1473013030869	1473013030952	r	82
80998	885385	The rest is a byproduct of slapshot.	The rest is a byproduct of slapshot.	42109843	1473013031092	1473013031193	i	73
80998	885385	The rest is a byproduct of slapshot.	The rest is a byproduct of slapshot.	42109845	1473013031752	1473013031846	BKSP	8
80998	885385	The rest is a byproduct of slapshot.	The rest is a byproduct of slapshot.	42109847	1473013032838	1473013032929	o	79
80998	885385	The rest is a byproduct of slapshot.	The rest is a byproduct of slapshot.	42109850	1473013035846	1473013035915	d	68
80998	885385	The rest is a byproduct of slapshot.	The rest is a byproduct of slapshot.	42109854	1473013035955	1473013036065	u	85
80998	885385	The rest is a byproduct of slapshot.	The rest is a byproduct of slapshot.	42109910	1473013036436	1473013036569	c	67
80998	885385	The rest is a byproduct of slapshot.	The rest is a byproduct of slapshot.	42109914	1473013036809	1473013036882	t	84
80998	885385	The rest is a byproduct of slapshot.	The rest is a byproduct of slapshot.	42109921	1473013036912	1473013037032	 	32
80998	885385	The rest is a byproduct of slapshot.	The rest is a byproduct of slapshot.	42109924	1473013038339	1473013038477	o	79
80998	885385	The rest is a byproduct of slapshot.	The rest is a byproduct of slapshot.	42109986	1473013038435	1473013038510	f	70
80998	885385	The rest is a byproduct of slapshot.	The rest is a byproduct of slapshot.	42109987	1473013038530	1473013038652	 	32
80998	885385	The rest is a byproduct of slapshot.	The rest is a byproduct of slapshot.	42109988	1473013039563	1473013039669	s	83
80998	885385	The rest is a byproduct of slapshot.	The rest is a byproduct of slapshot.	42109990	1473013039719	1473013039792	i	73
80998	885385	The rest is a byproduct of slapshot.	The rest is a byproduct of slapshot.	42109992	1473013040402	1473013040565	BKSP	8
80998	885385	The rest is a byproduct of slapshot.	The rest is a byproduct of slapshot.	42109994	1473013041246	1473013041365	l	76
80998	885385	The rest is a byproduct of slapshot.	The rest is a byproduct of slapshot.	42109996	1473013041385	1473013041505	s	83
80998	885385	The rest is a byproduct of slapshot.	The rest is a byproduct of slapshot.	42110137	1473013042422	1473013042602	BKSP	8
80998	885385	The rest is a byproduct of slapshot.	The rest is a byproduct of slapshot.	42110138	1473013042499	1473013042642	a	65
80998	885385	The rest is a byproduct of slapshot.	The rest is a byproduct of slapshot.	42110139	1473013042692	1473013042819	 	32
80998	885385	The rest is a byproduct of slapshot.	The rest is a byproduct of slapshot.	42110141	1473013043130	1473013043252	BKSP	8
80998	885385	The rest is a byproduct of slapshot.	The rest is a byproduct of slapshot.	42110143	1473013044558	1473013044679	p	80
80998	885385	The rest is a byproduct of slapshot.	The rest is a byproduct of slapshot.	42110144	1473013045882	1473013046005	s	83
80998	885385	The rest is a byproduct of slapshot.	The rest is a byproduct of slapshot.	42110146	1473013046115	1473013046222	h	72
80998	885385	The rest is a byproduct of slapshot.	The rest is a byproduct of slapshot.	42110435	1473013054772	1473013054862	CAPS_LOCK	20
80998	885385	The rest is a byproduct of slapshot.	The rest is a byproduct of slapshot.	42110436	1473013055839	1473013055879	CAPS_LOCK	20
80998	885385	The rest is a byproduct of slapshot.	The rest is a byproduct of slapshot.	42110437	1473013057734	1473013057835	CAPS_LOCK	20
80998	885385	The rest is a byproduct of slapshot.	The rest is a byproduct of slapshot.	42110438	1473013058045	1473013058118	T	84
80998	885385	The rest is a byproduct of slapshot.	The rest is a byproduct of slapshot.	42110439	1473013058659	1473013058769	CAPS_LOCK	20
80998	885385	The rest is a byproduct of slapshot.	The rest is a byproduct of slapshot.	42110440	1473013058829	1473013058919	h	72
80998	885385	The rest is a byproduct of slapshot.	The rest is a byproduct of slapshot.	42110441	1473013059159	1473013059258	e	69
80998	885385	The rest is a byproduct of slapshot.	The rest is a byproduct of slapshot.	42110442	1473013059288	1473013059399	 	32
80998	885385	The rest is a byproduct of slapshot.	The rest is a byproduct of slapshot.	42110443	1473013060218	1473013060401	r	82
80998	885385	The rest is a byproduct of slapshot.	The rest is a byproduct of slapshot.	42110475	1473013060352	1473013060506	e	69
80998	885385	The rest is a byproduct of slapshot.	The rest is a byproduct of slapshot.	42110480	1473013060576	1473013060702	s	83
80998	885385	The rest is a byproduct of slapshot.	The rest is a byproduct of slapshot.	42110484	1473013060822	1473013060929	t	84
80998	885385	The rest is a byproduct of slapshot.	The rest is a byproduct of slapshot.	42110490	1473013060959	1473013061078	 	32
80998	885385	The rest is a byproduct of slapshot.	The rest is a byproduct of slapshot.	42110497	1473013061935	1473013062015	i	73
80998	885385	The rest is a byproduct of slapshot.	The rest is a byproduct of slapshot.	42110502	1473013062125	1473013062166	s	83
80998	885385	The rest is a byproduct of slapshot.	The rest is a byproduct of slapshot.	42110590	1473013062465	1473013062562	 	32
80998	885385	The rest is a byproduct of slapshot.	The rest is a byproduct of slapshot.	42110592	1473013062782	1473013062911	a	65
80998	885385	The rest is a byproduct of slapshot.	The rest is a byproduct of slapshot.	42110594	1473013062941	1473013063051	 	32
80998	885385	The rest is a byproduct of slapshot.	The rest is a byproduct of slapshot.	42110596	1473013064092	1473013064169	b	66
80998	885385	The rest is a byproduct of slapshot.	The rest is a byproduct of slapshot.	42110598	1473013065608	1473013065708	y	89
80998	885385	The rest is a byproduct of slapshot.	The rest is a byproduct of slapshot.	42110766	1473013067705	1473013067785	r	82
80998	885385	The rest is a byproduct of slapshot.	The rest is a byproduct of slapshot.	42110769	1473013068195	1473013068305	o	79
80998	885385	The rest is a byproduct of slapshot.	The rest is a byproduct of slapshot.	42110772	1473013071828	1473013071879	d	68
80998	885385	The rest is a byproduct of slapshot.	The rest is a byproduct of slapshot.	42110775	1473013071934	1473013072044	u	85
80998	885385	The rest is a byproduct of slapshot.	The rest is a byproduct of slapshot.	42110778	1473013072951	1473013073057	c	67
80998	885385	The rest is a byproduct of slapshot.	The rest is a byproduct of slapshot.	42110969	1473013074065	1473013074181	t	84
80998	885385	The rest is a byproduct of slapshot.	The rest is a byproduct of slapshot.	42110972	1473013074191	1473013074328	 	32
80998	885385	The rest is a byproduct of slapshot.	The rest is a byproduct of slapshot.	42110977	1473013076394	1473013076458	BKSP	8
80998	885385	The rest is a byproduct of slapshot.	The rest is a byproduct of slapshot.	42110981	1473013076561	1473013076621	BKSP	8
80998	885385	The rest is a byproduct of slapshot.	The rest is a byproduct of slapshot.	42110984	1473013076721	1473013076773	BKSP	8
80998	885385	The rest is a byproduct of slapshot.	The rest is a byproduct of slapshot.	42110987	1473013076867	1473013076930	BKSP	8
80998	885385	The rest is a byproduct of slapshot.	The rest is a byproduct of slapshot.	42110990	1473013077200	1473013077284	BKSP	8
80998	885385	The rest is a byproduct of slapshot.	The rest is a byproduct of slapshot.	42110992	1473013077484	1473013077577	BKSP	8
80998	885385	The rest is a byproduct of slapshot.	The rest is a byproduct of slapshot.	42110994	1473013078197	1473013078344	BKSP	8
80998	885385	The rest is a byproduct of slapshot.	The rest is a byproduct of slapshot.	42110996	1473013079790	1473013079924	p	80
80998	885385	The rest is a byproduct of slapshot.	The rest is a byproduct of slapshot.	42110999	1473013079934	1473013080017	r	82
80998	885385	The rest is a byproduct of slapshot.	The rest is a byproduct of slapshot.	42111002	1473013080047	1473013080180	o	79
80998	885385	The rest is a byproduct of slapshot.	The rest is a byproduct of slapshot.	42111068	1473013081784	1473013081847	d	68
80998	885385	The rest is a byproduct of slapshot.	The rest is a byproduct of slapshot.	42111071	1473013081897	1473013082024	u	85
80998	885385	The rest is a byproduct of slapshot.	The rest is a byproduct of slapshot.	42111074	1473013082184	1473013082237	s	83
80998	885385	The rest is a byproduct of slapshot.	The rest is a byproduct of slapshot.	42111077	1473013082684	1473013082817	BKSP	8
80998	885385	The rest is a byproduct of slapshot.	The rest is a byproduct of slapshot.	42111081	1473013083127	1473013083237	c	67
80998	885385	The rest is a byproduct of slapshot.	The rest is a byproduct of slapshot.	42111085	1473013083367	1473013083477	t	84
80998	885385	The rest is a byproduct of slapshot.	The rest is a byproduct of slapshot.	42111154	1473013083498	1473013083614	 	32
80998	885385	The rest is a byproduct of slapshot.	The rest is a byproduct of slapshot.	42111155	1473013084690	1473013084781	o	79
80998	885385	The rest is a byproduct of slapshot.	The rest is a byproduct of slapshot.	42111156	1473013084781	1473013084877	f	70
80998	885385	The rest is a byproduct of slapshot.	The rest is a byproduct of slapshot.	42111157	1473013084897	1473013084994	 	32
80998	885385	The rest is a byproduct of slapshot.	The rest is a byproduct of slapshot.	42111158	1473013086553	1473013086663	s	83
80998	885385	The rest is a byproduct of slapshot.	The rest is a byproduct of slapshot.	42111233	1473013086724	1473013086864	l	76
80998	885385	The rest is a byproduct of slapshot.	The rest is a byproduct of slapshot.	42111234	1473013087320	1473013087460	a	65
80998	885385	The rest is a byproduct of slapshot.	The rest is a byproduct of slapshot.	42111236	1473013088760	1473013088890	p	80
80998	885385	The rest is a byproduct of slapshot.	The rest is a byproduct of slapshot.	42111238	1473013090227	1473013090343	s	83
80998	885385	The rest is a byproduct of slapshot.	The rest is a byproduct of slapshot.	42111241	1473013090353	1473013090480	h	72
80998	885385	The rest is a byproduct of slapshot.	The rest is a byproduct of slapshot.	42111343	1473013090591	1473013090735	o	79
80998	885385	The rest is a byproduct of slapshot.	The rest is a byproduct of slapshot.	42111346	1473013090703	1473013090773	t	84
80998	885385	The rest is a byproduct of slapshot.	The rest is a byproduct of slapshot.	42111349	1473013091744	1473013091870	.	190
80998	885433	It is not a matter of imposing a peace plan on the parties.	It is not a matter of imposing a peace plan on the parties.	42111492	1473013096170	1473013096270	CAPS_LOCK	20
80998	885433	It is not a matter of imposing a peace plan on the parties.	It is not a matter of imposing a peace plan on the parties.	42111494	1473013097713	1473013097823	I	73
80998	885433	It is not a matter of imposing a peace plan on the parties.	It is not a matter of imposing a peace plan on the parties.	42111497	1473013097843	1473013097953	CAPS_LOCK	20
80998	885433	It is not a matter of imposing a peace plan on the parties.	It is not a matter of imposing a peace plan on the parties.	42111500	1473013098023	1473013098136	 	32
80998	885433	It is not a matter of imposing a peace plan on the parties.	It is not a matter of imposing a peace plan on the parties.	42111504	1473013098592	1473013098720	BKSP	8
80998	885433	It is not a matter of imposing a peace plan on the parties.	It is not a matter of imposing a peace plan on the parties.	42111506	1473013098780	1473013098850	e	69
80998	885433	It is not a matter of imposing a peace plan on the parties.	It is not a matter of imposing a peace plan on the parties.	42111509	1473013099150	1473013099293	BKSP	8
80998	885433	It is not a matter of imposing a peace plan on the parties.	It is not a matter of imposing a peace plan on the parties.	42111513	1473013099313	1473013099438	t	84
80998	885433	It is not a matter of imposing a peace plan on the parties.	It is not a matter of imposing a peace plan on the parties.	42111590	1473013099410	1473013099530	 	32
80998	885433	It is not a matter of imposing a peace plan on the parties.	It is not a matter of imposing a peace plan on the parties.	42111593	1473013100766	1473013100840	i	73
80998	885433	It is not a matter of imposing a peace plan on the parties.	It is not a matter of imposing a peace plan on the parties.	42111595	1473013100860	1473013100960	s	83
80998	885433	It is not a matter of imposing a peace plan on the parties.	It is not a matter of imposing a peace plan on the parties.	42111597	1473013100980	1473013101090	 	32
80998	885433	It is not a matter of imposing a peace plan on the parties.	It is not a matter of imposing a peace plan on the parties.	42111599	1473013102006	1473013102089	n	78
80998	885433	It is not a matter of imposing a peace plan on the parties.	It is not a matter of imposing a peace plan on the parties.	42111600	1473013102159	1473013102319	o	79
80998	885433	It is not a matter of imposing a peace plan on the parties.	It is not a matter of imposing a peace plan on the parties.	42111642	1473013102440	1473013102530	 	32
80998	885433	It is not a matter of imposing a peace plan on the parties.	It is not a matter of imposing a peace plan on the parties.	42111644	1473013103166	1473013103286	a	65
80998	885433	It is not a matter of imposing a peace plan on the parties.	It is not a matter of imposing a peace plan on the parties.	42111646	1473013103276	1473013103386	 	32
80998	885433	It is not a matter of imposing a peace plan on the parties.	It is not a matter of imposing a peace plan on the parties.	42111648	1473013103986	1473013104096	m	77
80998	885433	It is not a matter of imposing a peace plan on the parties.	It is not a matter of imposing a peace plan on the parties.	42111650	1473013104106	1473013104216	a	65
80998	885433	It is not a matter of imposing a peace plan on the parties.	It is not a matter of imposing a peace plan on the parties.	42111680	1473013104507	1473013104589	t	84
80998	885433	It is not a matter of imposing a peace plan on the parties.	It is not a matter of imposing a peace plan on the parties.	42111681	1473013104699	1473013104773	t	84
80998	885433	It is not a matter of imposing a peace plan on the parties.	It is not a matter of imposing a peace plan on the parties.	42111684	1473013104903	1473013105049	e	69
80998	885433	It is not a matter of imposing a peace plan on the parties.	It is not a matter of imposing a peace plan on the parties.	42111689	1473013105013	1473013105119	r	82
80998	885433	It is not a matter of imposing a peace plan on the parties.	It is not a matter of imposing a peace plan on the parties.	42111693	1473013105149	1473013105210	 	32
80998	885433	It is not a matter of imposing a peace plan on the parties.	It is not a matter of imposing a peace plan on the parties.	42111781	1473013106226	1473013106323	o	79
80998	885433	It is not a matter of imposing a peace plan on the parties.	It is not a matter of imposing a peace plan on the parties.	42111782	1473013106323	1473013106406	f	70
80998	885433	It is not a matter of imposing a peace plan on the parties.	It is not a matter of imposing a peace plan on the parties.	42111784	1473013106436	1473013106536	 	32
80998	885433	It is not a matter of imposing a peace plan on the parties.	It is not a matter of imposing a peace plan on the parties.	42111787	1473013108183	1473013108243	i	73
80998	885433	It is not a matter of imposing a peace plan on the parties.	It is not a matter of imposing a peace plan on the parties.	42111791	1473013108413	1473013108483	k	75
80998	885433	It is not a matter of imposing a peace plan on the parties.	It is not a matter of imposing a peace plan on the parties.	42111954	1473013109333	1473013109493	BKSP	8
80998	885433	It is not a matter of imposing a peace plan on the parties.	It is not a matter of imposing a peace plan on the parties.	42111957	1473013110283	1473013110372	m	77
80998	885433	It is not a matter of imposing a peace plan on the parties.	It is not a matter of imposing a peace plan on the parties.	42111960	1473013112696	1473013112842	p	80
80998	885433	It is not a matter of imposing a peace plan on the parties.	It is not a matter of imposing a peace plan on the parties.	42111965	1473013112922	1473013112996	r	82
80998	885433	It is not a matter of imposing a peace plan on the parties.	It is not a matter of imposing a peace plan on the parties.	42111970	1473013113476	1473013113589	BKSP	8
80998	885433	It is not a matter of imposing a peace plan on the parties.	It is not a matter of imposing a peace plan on the parties.	42111978	1473013114047	1473013114169	o	79
80998	885433	It is not a matter of imposing a peace plan on the parties.	It is not a matter of imposing a peace plan on the parties.	42112042	1473013114142	1473013114232	r	82
80998	885433	It is not a matter of imposing a peace plan on the parties.	It is not a matter of imposing a peace plan on the parties.	42112047	1473013115003	1473013115129	s	83
80998	885433	It is not a matter of imposing a peace plan on the parties.	It is not a matter of imposing a peace plan on the parties.	42112053	1473013115139	1473013115239	i	73
80998	885433	It is not a matter of imposing a peace plan on the parties.	It is not a matter of imposing a peace plan on the parties.	42112059	1473013115429	1473013115552	n	78
80998	885433	It is not a matter of imposing a peace plan on the parties.	It is not a matter of imposing a peace plan on the parties.	42112063	1473013115572	1473013115663	g	71
80998	885433	It is not a matter of imposing a peace plan on the parties.	It is not a matter of imposing a peace plan on the parties.	42112065	1473013115743	1473013115859	 	32
80998	885433	It is not a matter of imposing a peace plan on the parties.	It is not a matter of imposing a peace plan on the parties.	42112471	1473013117722	1473013117777	BKSP	8
80998	885433	It is not a matter of imposing a peace plan on the parties.	It is not a matter of imposing a peace plan on the parties.	42112472	1473013117863	1473013117936	BKSP	8
80998	885433	It is not a matter of imposing a peace plan on the parties.	It is not a matter of imposing a peace plan on the parties.	42112473	1473013118026	1473013118086	BKSP	8
80998	885433	It is not a matter of imposing a peace plan on the parties.	It is not a matter of imposing a peace plan on the parties.	42112474	1473013118186	1473013118249	BKSP	8
80998	885433	It is not a matter of imposing a peace plan on the parties.	It is not a matter of imposing a peace plan on the parties.	42112475	1473013118339	1473013118422	BKSP	8
80998	885433	It is not a matter of imposing a peace plan on the parties.	It is not a matter of imposing a peace plan on the parties.	42112476	1473013118492	1473013118622	BKSP	8
80998	885433	It is not a matter of imposing a peace plan on the parties.	It is not a matter of imposing a peace plan on the parties.	42112477	1473013120389	1473013120469	BKSP	8
80998	885433	It is not a matter of imposing a peace plan on the parties.	It is not a matter of imposing a peace plan on the parties.	42112478	1473013120559	1473013120639	BKSP	8
80998	885433	It is not a matter of imposing a peace plan on the parties.	It is not a matter of imposing a peace plan on the parties.	42112479	1473013120719	1473013120815	BKSP	8
80998	885433	It is not a matter of imposing a peace plan on the parties.	It is not a matter of imposing a peace plan on the parties.	42112480	1473013120905	1473013121006	BKSP	8
80998	885433	It is not a matter of imposing a peace plan on the parties.	It is not a matter of imposing a peace plan on the parties.	42112481	1473013125785	1473013125845	BKSP	8
80998	885433	It is not a matter of imposing a peace plan on the parties.	It is not a matter of imposing a peace plan on the parties.	42112482	1473013125949	1473013126012	BKSP	8
80998	885433	It is not a matter of imposing a peace plan on the parties.	It is not a matter of imposing a peace plan on the parties.	42112484	1473013126110	1473013126173	BKSP	8
80998	885433	It is not a matter of imposing a peace plan on the parties.	It is not a matter of imposing a peace plan on the parties.	42112486	1473013126276	1473013126323	BKSP	8
80998	885433	It is not a matter of imposing a peace plan on the parties.	It is not a matter of imposing a peace plan on the parties.	42112489	1473013126439	1473013126476	BKSP	8
80998	885433	It is not a matter of imposing a peace plan on the parties.	It is not a matter of imposing a peace plan on the parties.	42112492	1473013126552	1473013127232	BKSP	8
80998	885433	It is not a matter of imposing a peace plan on the parties.	It is not a matter of imposing a peace plan on the parties.	42112495	1473013127488	1473013127571	BKSP	8
80998	885433	It is not a matter of imposing a peace plan on the parties.	It is not a matter of imposing a peace plan on the parties.	42112498	1473013127659	1473013127731	BKSP	8
80998	885433	It is not a matter of imposing a peace plan on the parties.	It is not a matter of imposing a peace plan on the parties.	42112501	1473013127818	1473013127933	BKSP	8
80998	885433	It is not a matter of imposing a peace plan on the parties.	It is not a matter of imposing a peace plan on the parties.	42112503	1473013129400	1473013129516	o	79
80998	885433	It is not a matter of imposing a peace plan on the parties.	It is not a matter of imposing a peace plan on the parties.	42112505	1473013129520	1473013129608	t	84
80998	885433	It is not a matter of imposing a peace plan on the parties.	It is not a matter of imposing a peace plan on the parties.	42112507	1473013129630	1473013129739	 	32
80998	885433	It is not a matter of imposing a peace plan on the parties.	It is not a matter of imposing a peace plan on the parties.	42112508	1473013129985	1473013130134	a	65
80998	885433	It is not a matter of imposing a peace plan on the parties.	It is not a matter of imposing a peace plan on the parties.	42112509	1473013130139	1473013130233	 	32
80998	885433	It is not a matter of imposing a peace plan on the parties.	It is not a matter of imposing a peace plan on the parties.	42112527	1473013131227	1473013131323	m	77
80998	885433	It is not a matter of imposing a peace plan on the parties.	It is not a matter of imposing a peace plan on the parties.	42112529	1473013131303	1473013131424	a	65
80998	885433	It is not a matter of imposing a peace plan on the parties.	It is not a matter of imposing a peace plan on the parties.	42112531	1473013131770	1473013131859	t	84
80998	885433	It is not a matter of imposing a peace plan on the parties.	It is not a matter of imposing a peace plan on the parties.	42112532	1473013131940	1473013132044	t	84
80998	885433	It is not a matter of imposing a peace plan on the parties.	It is not a matter of imposing a peace plan on the parties.	42112533	1473013132256	1473013132393	r	82
80998	885433	It is not a matter of imposing a peace plan on the parties.	It is not a matter of imposing a peace plan on the parties.	42112580	1473013132367	1473013132506	 	32
80998	885433	It is not a matter of imposing a peace plan on the parties.	It is not a matter of imposing a peace plan on the parties.	42112584	1473013133114	1473013133186	BKSP	8
80998	885433	It is not a matter of imposing a peace plan on the parties.	It is not a matter of imposing a peace plan on the parties.	42112590	1473013133267	1473013133376	BKSP	8
80998	885433	It is not a matter of imposing a peace plan on the parties.	It is not a matter of imposing a peace plan on the parties.	42112593	1473013133353	1473013133476	e	69
80998	885433	It is not a matter of imposing a peace plan on the parties.	It is not a matter of imposing a peace plan on the parties.	42112596	1473013133498	1473013133603	r	32
80998	885433	It is not a matter of imposing a peace plan on the parties.	It is not a matter of imposing a peace plan on the parties.	42112599	1473013134182	1473013134247	BKSP	8
80998	885433	It is not a matter of imposing a peace plan on the parties.	It is not a matter of imposing a peace plan on the parties.	42112602	1473013134321	1473013134420	BKSP	8
80998	885433	It is not a matter of imposing a peace plan on the parties.	It is not a matter of imposing a peace plan on the parties.	42112604	1473013134392	1473013134535	r	82
80998	885433	It is not a matter of imposing a peace plan on the parties.	It is not a matter of imposing a peace plan on the parties.	42112605	1473013134606	1473013134691	 	32
80998	885433	It is not a matter of imposing a peace plan on the parties.	It is not a matter of imposing a peace plan on the parties.	42112694	1473013135632	1473013135736	o	79
80998	885433	It is not a matter of imposing a peace plan on the parties.	It is not a matter of imposing a peace plan on the parties.	42112698	1473013135740	1473013135804	f	70
80998	885433	It is not a matter of imposing a peace plan on the parties.	It is not a matter of imposing a peace plan on the parties.	42112703	1473013135823	1473013135929	 	32
80998	885433	It is not a matter of imposing a peace plan on the parties.	It is not a matter of imposing a peace plan on the parties.	42112707	1473013137564	1473013137653	i	73
80998	885433	It is not a matter of imposing a peace plan on the parties.	It is not a matter of imposing a peace plan on the parties.	42112711	1473013137777	1473013137907	m	77
80998	885433	It is not a matter of imposing a peace plan on the parties.	It is not a matter of imposing a peace plan on the parties.	42112828	1473013138694	1473013138826	p	80
80998	885433	It is not a matter of imposing a peace plan on the parties.	It is not a matter of imposing a peace plan on the parties.	42112831	1473013139268	1473013139378	o	79
80998	885433	It is not a matter of imposing a peace plan on the parties.	It is not a matter of imposing a peace plan on the parties.	42112834	1473013139448	1473013139558	s	83
80998	885433	It is not a matter of imposing a peace plan on the parties.	It is not a matter of imposing a peace plan on the parties.	42112838	1473013139616	1473013139697	t	84
80998	885433	It is not a matter of imposing a peace plan on the parties.	It is not a matter of imposing a peace plan on the parties.	42112841	1473013140120	1473013140203	BKSP	8
80998	885433	It is not a matter of imposing a peace plan on the parties.	It is not a matter of imposing a peace plan on the parties.	42112844	1473013141152	1473013141235	i	73
80998	885433	It is not a matter of imposing a peace plan on the parties.	It is not a matter of imposing a peace plan on the parties.	42112888	1473013141326	1473013141468	n	78
80998	885433	It is not a matter of imposing a peace plan on the parties.	It is not a matter of imposing a peace plan on the parties.	42112890	1473013141454	1473013141534	g	71
80998	885433	It is not a matter of imposing a peace plan on the parties.	It is not a matter of imposing a peace plan on the parties.	42112894	1473013141587	1473013141702	 	32
80998	885433	It is not a matter of imposing a peace plan on the parties.	It is not a matter of imposing a peace plan on the parties.	42112896	1473013142362	1473013142451	a	65
80998	885433	It is not a matter of imposing a peace plan on the parties.	It is not a matter of imposing a peace plan on the parties.	42112899	1473013142473	1473013142575	 	32
80998	885433	It is not a matter of imposing a peace plan on the parties.	It is not a matter of imposing a peace plan on the parties.	42112987	1473013144569	1473013144653	p	80
80998	885433	It is not a matter of imposing a peace plan on the parties.	It is not a matter of imposing a peace plan on the parties.	42112989	1473013144817	1473013144955	e	69
80998	885433	It is not a matter of imposing a peace plan on the parties.	It is not a matter of imposing a peace plan on the parties.	42112992	1473013144911	1473013145360	a	65
80998	885433	It is not a matter of imposing a peace plan on the parties.	It is not a matter of imposing a peace plan on the parties.	42112995	1473013146412	1473013146544	c	67
80998	885433	It is not a matter of imposing a peace plan on the parties.	It is not a matter of imposing a peace plan on the parties.	42112998	1473013146611	1473013146746	e	69
80998	885433	It is not a matter of imposing a peace plan on the parties.	It is not a matter of imposing a peace plan on the parties.	42113138	1473013146786	1473013146900	 	32
80998	885433	It is not a matter of imposing a peace plan on the parties.	It is not a matter of imposing a peace plan on the parties.	42113139	1473013148823	1473013148935	p	80
80998	885433	It is not a matter of imposing a peace plan on the parties.	It is not a matter of imposing a peace plan on the parties.	42113141	1473013150024	1473013150110	l	76
80998	885433	It is not a matter of imposing a peace plan on the parties.	It is not a matter of imposing a peace plan on the parties.	42113142	1473013151035	1473013151127	n	78
80998	885433	It is not a matter of imposing a peace plan on the parties.	It is not a matter of imposing a peace plan on the parties.	42113143	1473013151141	1473013151273	e	69
80998	885433	It is not a matter of imposing a peace plan on the parties.	It is not a matter of imposing a peace plan on the parties.	42113225	1473013151510	1473013151637	 	32
80998	885433	It is not a matter of imposing a peace plan on the parties.	It is not a matter of imposing a peace plan on the parties.	42113227	1473013152405	1473013152462	BKSP	8
80998	885433	It is not a matter of imposing a peace plan on the parties.	It is not a matter of imposing a peace plan on the parties.	42113231	1473013152552	1473013152635	BKSP	8
80998	885433	It is not a matter of imposing a peace plan on the parties.	It is not a matter of imposing a peace plan on the parties.	42113233	1473013152717	1473013152829	BKSP	8
80998	885433	It is not a matter of imposing a peace plan on the parties.	It is not a matter of imposing a peace plan on the parties.	42113236	1473013153312	1473013153455	a	65
80998	885433	It is not a matter of imposing a peace plan on the parties.	It is not a matter of imposing a peace plan on the parties.	42113238	1473013153441	1473013153550	n	78
80998	885433	It is not a matter of imposing a peace plan on the parties.	It is not a matter of imposing a peace plan on the parties.	42113240	1473013153589	1473013153692	e	69
80998	885433	It is not a matter of imposing a peace plan on the parties.	It is not a matter of imposing a peace plan on the parties.	42113241	1473013153721	1473013153832	 	32
80998	885433	It is not a matter of imposing a peace plan on the parties.	It is not a matter of imposing a peace plan on the parties.	42113471	1473013154844	1473013154945	o	79
80998	885433	It is not a matter of imposing a peace plan on the parties.	It is not a matter of imposing a peace plan on the parties.	42113476	1473013155023	1473013155132	n	78
80998	885433	It is not a matter of imposing a peace plan on the parties.	It is not a matter of imposing a peace plan on the parties.	42113480	1473013155223	1473013155366	 	32
80998	885433	It is not a matter of imposing a peace plan on the parties.	It is not a matter of imposing a peace plan on the parties.	42113483	1473013159777	1473013159854	BKSP	8
80998	885433	It is not a matter of imposing a peace plan on the parties.	It is not a matter of imposing a peace plan on the parties.	42113485	1473013159944	1473013160010	BKSP	8
80998	885433	It is not a matter of imposing a peace plan on the parties.	It is not a matter of imposing a peace plan on the parties.	42113487	1473013160098	1473013160161	BKSP	8
80998	885433	It is not a matter of imposing a peace plan on the parties.	It is not a matter of imposing a peace plan on the parties.	42113490	1473013160259	1473013160328	BKSP	8
80998	885433	It is not a matter of imposing a peace plan on the parties.	It is not a matter of imposing a peace plan on the parties.	42113492	1473013160413	1473013160525	BKSP	8
80998	885433	It is not a matter of imposing a peace plan on the parties.	It is not a matter of imposing a peace plan on the parties.	42113494	1473013161019	1473013161117	 	32
80998	885433	It is not a matter of imposing a peace plan on the parties.	It is not a matter of imposing a peace plan on the parties.	42113496	1473013161791	1473013161897	o	79
80998	885433	It is not a matter of imposing a peace plan on the parties.	It is not a matter of imposing a peace plan on the parties.	42113543	1473013162431	1473013162519	n	78
80998	885433	It is not a matter of imposing a peace plan on the parties.	It is not a matter of imposing a peace plan on the parties.	42113545	1473013162602	1473013162713	 	32
80998	885433	It is not a matter of imposing a peace plan on the parties.	It is not a matter of imposing a peace plan on the parties.	42113548	1473013163558	1473013163707	t	84
80998	885433	It is not a matter of imposing a peace plan on the parties.	It is not a matter of imposing a peace plan on the parties.	42113552	1473013163661	1473013163761	h	72
80998	885433	It is not a matter of imposing a peace plan on the parties.	It is not a matter of imposing a peace plan on the parties.	42113556	1473013163789	1473013163943	e	69
80998	885433	It is not a matter of imposing a peace plan on the parties.	It is not a matter of imposing a peace plan on the parties.	42113648	1473013163926	1473013164049	 	32
80998	885433	It is not a matter of imposing a peace plan on the parties.	It is not a matter of imposing a peace plan on the parties.	42113650	1473013165110	1473013165256	p	80
80998	885433	It is not a matter of imposing a peace plan on the parties.	It is not a matter of imposing a peace plan on the parties.	42113651	1473013165643	1473013165825	a	65
80998	885433	It is not a matter of imposing a peace plan on the parties.	It is not a matter of imposing a peace plan on the parties.	42113652	1473013165830	1473013165907	r	82
80998	885433	It is not a matter of imposing a peace plan on the parties.	It is not a matter of imposing a peace plan on the parties.	42113653	1473013166928	1473013167014	t	84
80998	885433	It is not a matter of imposing a peace plan on the parties.	It is not a matter of imposing a peace plan on the parties.	42113654	1473013167030	1473013167134	i	73
80998	885433	It is not a matter of imposing a peace plan on the parties.	It is not a matter of imposing a peace plan on the parties.	42113751	1473013167315	1473013167430	e	69
80998	885433	It is not a matter of imposing a peace plan on the parties.	It is not a matter of imposing a peace plan on the parties.	42113757	1473013167505	1473013167657	s	83
80998	885433	It is not a matter of imposing a peace plan on the parties.	It is not a matter of imposing a peace plan on the parties.	42113760	1473013170266	1473013170378	.	190
80998	885474	Will let you know how call goes in morning.	Will let you know how call goes in morning.	42113952	1473013171997	1473013172877	CAPS_LOCK	20
80998	885474	Will let you know how call goes in morning.	Will let you know how call goes in morning.	42113953	1473013174657	1473013174749	W	87
80998	885474	Will let you know how call goes in morning.	Will let you know how call goes in morning.	42113954	1473013175654	1473013175756	CAPS_LOCK	20
80998	885474	Will let you know how call goes in morning.	Will let you know how call goes in morning.	42113955	1473013175807	1473013175922	i	73
80998	885474	Will let you know how call goes in morning.	Will let you know how call goes in morning.	42113956	1473013177074	1473013177148	l	76
80998	885474	Will let you know how call goes in morning.	Will let you know how call goes in morning.	42113957	1473013177240	1473013177347	l	76
80998	885474	Will let you know how call goes in morning.	Will let you know how call goes in morning.	42113958	1473013177397	1473013177517	 	32
80998	885474	Will let you know how call goes in morning.	Will let you know how call goes in morning.	42114049	1473013178368	1473013178482	l	76
80998	885474	Will let you know how call goes in morning.	Will let you know how call goes in morning.	42114052	1473013178428	1473013178548	e	69
80998	885474	Will let you know how call goes in morning.	Will let you know how call goes in morning.	42114054	1473013178604	1473013178739	t	84
80998	885474	Will let you know how call goes in morning.	Will let you know how call goes in morning.	42114057	1473013178772	1473013178876	 	32
80998	885474	Will let you know how call goes in morning.	Will let you know how call goes in morning.	42114059	1473013180152	1473013180281	y	89
80998	885474	Will let you know how call goes in morning.	Will let you know how call goes in morning.	42114109	1473013180338	1473013180535	o	79
80998	885474	Will let you know how call goes in morning.	Will let you know how call goes in morning.	42114110	1473013180487	1473013180645	u	85
80998	885474	Will let you know how call goes in morning.	Will let you know how call goes in morning.	42114111	1473013180748	1473013180881	 	32
80998	885474	Will let you know how call goes in morning.	Will let you know how call goes in morning.	42114113	1473013181524	1473013181635	k	75
80998	885474	Will let you know how call goes in morning.	Will let you know how call goes in morning.	42114115	1473013181776	1473013181891	n	78
80998	885474	Will let you know how call goes in morning.	Will let you know how call goes in morning.	42114165	1473013181998	1473013182153	o	79
80998	885474	Will let you know how call goes in morning.	Will let you know how call goes in morning.	42114170	1473013182130	1473013182219	w	87
80998	885474	Will let you know how call goes in morning.	Will let you know how call goes in morning.	42114180	1473013182278	1473013182396	 	32
80998	885474	Will let you know how call goes in morning.	Will let you know how call goes in morning.	42114186	1473013183362	1473013183465	h	72
80998	885474	Will let you know how call goes in morning.	Will let you know how call goes in morning.	42114192	1473013183501	1473013183636	o	79
80998	885474	Will let you know how call goes in morning.	Will let you know how call goes in morning.	42114249	1473013183662	1473013183741	w	87
80998	885474	Will let you know how call goes in morning.	Will let you know how call goes in morning.	42114252	1473013183820	1473013183921	 	32
80998	885474	Will let you know how call goes in morning.	Will let you know how call goes in morning.	42114257	1473013184665	1473013184843	c	67
80998	885474	Will let you know how call goes in morning.	Will let you know how call goes in morning.	42114258	1473013184820	1473013184964	a	65
80998	885474	Will let you know how call goes in morning.	Will let you know how call goes in morning.	42114259	1473013185280	1473013185400	 	32
80998	885474	Will let you know how call goes in morning.	Will let you know how call goes in morning.	42114465	1473013185842	1473013186000	BKSP	8
80998	885474	Will let you know how call goes in morning.	Will let you know how call goes in morning.	42114468	1473013186499	1473013186564	l	76
80998	885474	Will let you know how call goes in morning.	Will let you know how call goes in morning.	42114471	1473013186655	1473013186735	l	76
80998	885474	Will let you know how call goes in morning.	Will let you know how call goes in morning.	42114476	1473013186783	1473013186912	 	32
80998	885474	Will let you know how call goes in morning.	Will let you know how call goes in morning.	42114479	1473013189709	1473013189791	g	71
80998	885474	Will let you know how call goes in morning.	Will let you know how call goes in morning.	42114482	1473013189831	1473013189960	o	79
80998	885474	Will let you know how call goes in morning.	Will let you know how call goes in morning.	42114521	1473013189984	1473013190091	e	69
80998	885474	Will let you know how call goes in morning.	Will let you know how call goes in morning.	42114524	1473013190224	1473013190351	s	83
80998	885474	Will let you know how call goes in morning.	Will let you know how call goes in morning.	42114526	1473013190355	1473013190464	 	32
80998	885474	Will let you know how call goes in morning.	Will let you know how call goes in morning.	42114528	1473013191189	1473013191275	i	73
80998	885474	Will let you know how call goes in morning.	Will let you know how call goes in morning.	42114530	1473013191367	1473013191466	n	78
80998	885474	Will let you know how call goes in morning.	Will let you know how call goes in morning.	42114676	1473013191573	1473013191650	 	32
80998	885474	Will let you know how call goes in morning.	Will let you know how call goes in morning.	42114677	1473013192435	1473013192536	m	77
80998	885474	Will let you know how call goes in morning.	Will let you know how call goes in morning.	42114678	1473013192660	1473013192721	o	79
80998	885474	Will let you know how call goes in morning.	Will let you know how call goes in morning.	42114679	1473013193683	1473013193752	BKSP	8
80998	885474	Will let you know how call goes in morning.	Will let you know how call goes in morning.	42114680	1473013195046	1473013195116	o	79
80998	885474	Will let you know how call goes in morning.	Will let you know how call goes in morning.	42114681	1473013196373	1473013196456	r	82
80998	885474	Will let you know how call goes in morning.	Will let you know how call goes in morning.	42114704	1473013196563	1473013196675	n	78
80998	885474	Will let you know how call goes in morning.	Will let you know how call goes in morning.	42114707	1473013196814	1473013196914	i	73
80998	885474	Will let you know how call goes in morning.	Will let you know how call goes in morning.	42114710	1473013197226	1473013197341	n	78
80998	885474	Will let you know how call goes in morning.	Will let you know how call goes in morning.	42114713	1473013197349	1473013197432	g	71
80998	885474	Will let you know how call goes in morning.	Will let you know how call goes in morning.	42114715	1473013197513	1473013197617	 	32
80998	885474	Will let you know how call goes in morning.	Will let you know how call goes in morning.	42114755	1473013198034	1473013198178	BKSP	8
80998	885474	Will let you know how call goes in morning.	Will let you know how call goes in morning.	42114758	1473013198797	1473013198921	.	190
80998	885495	Expect him to produce good numbers against New England.	Expect him to produce good numbers against New England.	42115039	1473013200781	1473013200899	CAPS_LOCK	20
80998	885495	Expect him to produce good numbers against New England.	Expect him to produce good numbers against New England.	42115040	1473013202336	1473013202387	E	69
80998	885495	Expect him to produce good numbers against New England.	Expect him to produce good numbers against New England.	42115042	1473013202832	1473013202938	CAPS_LOCK	20
80998	885495	Expect him to produce good numbers against New England.	Expect him to produce good numbers against New England.	42115044	1473013204719	1473013204817	x	88
80998	885495	Expect him to produce good numbers against New England.	Expect him to produce good numbers against New England.	42115046	1473013206183	1473013206326	p	80
80998	885495	Expect him to produce good numbers against New England.	Expect him to produce good numbers against New England.	42115049	1473013206419	1473013206599	e	69
80998	885495	Expect him to produce good numbers against New England.	Expect him to produce good numbers against New England.	42115137	1473013206574	1473013206686	r	82
80998	885495	Expect him to produce good numbers against New England.	Expect him to produce good numbers against New England.	42115139	1473013208250	1473013208400	BKSP	8
80998	885495	Expect him to produce good numbers against New England.	Expect him to produce good numbers against New England.	42115141	1473013208686	1473013208792	c	67
80998	885495	Expect him to produce good numbers against New England.	Expect him to produce good numbers against New England.	42115143	1473013208897	1473013209000	t	84
80998	885495	Expect him to produce good numbers against New England.	Expect him to produce good numbers against New England.	42115144	1473013209033	1473013209186	 	32
80998	885495	Expect him to produce good numbers against New England.	Expect him to produce good numbers against New England.	42115145	1473013210198	1473013210318	h	72
80998	885495	Expect him to produce good numbers against New England.	Expect him to produce good numbers against New England.	42115146	1473013210904	1473013211042	i	73
80998	885495	Expect him to produce good numbers against New England.	Expect him to produce good numbers against New England.	42115183	1473013211163	1473013211298	m	77
80998	885495	Expect him to produce good numbers against New England.	Expect him to produce good numbers against New England.	42115185	1473013211417	1473013211548	 	32
80998	885495	Expect him to produce good numbers against New England.	Expect him to produce good numbers against New England.	42115187	1473013213008	1473013213088	t	84
80998	885495	Expect him to produce good numbers against New England.	Expect him to produce good numbers against New England.	42115188	1473013213130	1473013213227	o	79
80998	885495	Expect him to produce good numbers against New England.	Expect him to produce good numbers against New England.	42115189	1473013213246	1473013213387	 	32
80998	885495	Expect him to produce good numbers against New England.	Expect him to produce good numbers against New England.	42115276	1473013215319	1473013215445	p	80
80998	885495	Expect him to produce good numbers against New England.	Expect him to produce good numbers against New England.	42115278	1473013215777	1473013215878	r	82
80998	885495	Expect him to produce good numbers against New England.	Expect him to produce good numbers against New England.	42115280	1473013215936	1473013216051	o	79
80998	885495	Expect him to produce good numbers against New England.	Expect him to produce good numbers against New England.	42115282	1473013217471	1473013217562	d	68
80998	885495	Expect him to produce good numbers against New England.	Expect him to produce good numbers against New England.	42115284	1473013217613	1473013217704	u	85
80998	885495	Expect him to produce good numbers against New England.	Expect him to produce good numbers against New England.	42115352	1473013218995	1473013219104	c	67
80998	885495	Expect him to produce good numbers against New England.	Expect him to produce good numbers against New England.	42115353	1473013219172	1473013219319	e	69
80998	885495	Expect him to produce good numbers against New England.	Expect him to produce good numbers against New England.	42115354	1473013219323	1473013219458	 	32
80998	885495	Expect him to produce good numbers against New England.	Expect him to produce good numbers against New England.	42115355	1473013220761	1473013220844	g	71
80998	885495	Expect him to produce good numbers against New England.	Expect him to produce good numbers against New England.	42115356	1473013220957	1473013221038	o	79
80998	885495	Expect him to produce good numbers against New England.	Expect him to produce good numbers against New England.	42115389	1473013221126	1473013221225	o	79
80998	885495	Expect him to produce good numbers against New England.	Expect him to produce good numbers against New England.	42115390	1473013221341	1473013221427	d	68
80998	885495	Expect him to produce good numbers against New England.	Expect him to produce good numbers against New England.	42115392	1473013221469	1473013221598	 	32
80998	885495	Expect him to produce good numbers against New England.	Expect him to produce good numbers against New England.	42115395	1473013222715	1473013222827	n	78
80998	885495	Expect him to produce good numbers against New England.	Expect him to produce good numbers against New England.	42115399	1473013222983	1473013223161	u	85
80998	885495	Expect him to produce good numbers against New England.	Expect him to produce good numbers against New England.	42115468	1473013223492	1473013223602	m	77
80998	885495	Expect him to produce good numbers against New England.	Expect him to produce good numbers against New England.	42115471	1473013224605	1473013224694	b	66
80998	885495	Expect him to produce good numbers against New England.	Expect him to produce good numbers against New England.	42115474	1473013224997	1473013225190	e	69
80998	885495	Expect him to produce good numbers against New England.	Expect him to produce good numbers against New England.	42115477	1473013225126	1473013225261	r	82
80998	885495	Expect him to produce good numbers against New England.	Expect him to produce good numbers against New England.	42115480	1473013225329	1473013225445	s	83
80998	885495	Expect him to produce good numbers against New England.	Expect him to produce good numbers against New England.	42115575	1473013225601	1473013225755	 	32
80998	885495	Expect him to produce good numbers against New England.	Expect him to produce good numbers against New England.	42115578	1473013226773	1473013226926	a	65
80998	885495	Expect him to produce good numbers against New England.	Expect him to produce good numbers against New England.	42115580	1473013227620	1473013227748	g	71
80998	885495	Expect him to produce good numbers against New England.	Expect him to produce good numbers against New England.	42115582	1473013227722	1473013227878	a	65
80998	885495	Expect him to produce good numbers against New England.	Expect him to produce good numbers against New England.	42115584	1473013229096	1473013229179	i	73
80998	885495	Expect him to produce good numbers against New England.	Expect him to produce good numbers against New England.	42115660	1473013229312	1473013229429	n	78
80998	885495	Expect him to produce good numbers against New England.	Expect him to produce good numbers against New England.	42115661	1473013229841	1473013229982	s	83
80998	885495	Expect him to produce good numbers against New England.	Expect him to produce good numbers against New England.	42115662	1473013229936	1473013230051	t	84
80998	885495	Expect him to produce good numbers against New England.	Expect him to produce good numbers against New England.	42115663	1473013230090	1473013230196	 	32
80998	885495	Expect him to produce good numbers against New England.	Expect him to produce good numbers against New England.	42115664	1473013232421	1473013232526	CAPS_LOCK	20
80998	885495	Expect him to produce good numbers against New England.	Expect him to produce good numbers against New England.	42115665	1473013232559	1473013232668	N	78
80998	885495	Expect him to produce good numbers against New England.	Expect him to produce good numbers against New England.	42115769	1473013232641	1473013232737	CAPS_LOCK	20
80998	885495	Expect him to produce good numbers against New England.	Expect him to produce good numbers against New England.	42115770	1473013233622	1473013233818	e	69
80998	885495	Expect him to produce good numbers against New England.	Expect him to produce good numbers against New England.	42115771	1473013233745	1473013233866	w	87
80998	885495	Expect him to produce good numbers against New England.	Expect him to produce good numbers against New England.	42115772	1473013233939	1473013234066	 	32
80998	885495	Expect him to produce good numbers against New England.	Expect him to produce good numbers against New England.	42115773	1473013235479	1473013235588	n	78
80998	885495	Expect him to produce good numbers against New England.	Expect him to produce good numbers against New England.	42115774	1473013236126	1473013236277	BKSP	8
80998	885495	Expect him to produce good numbers against New England.	Expect him to produce good numbers against New England.	42115775	1473013236285	1473013236403	CAPS_LOCK	20
80998	885495	Expect him to produce good numbers against New England.	Expect him to produce good numbers against New England.	42115776	1473013237270	1473013237357	E	69
80998	885495	Expect him to produce good numbers against New England.	Expect him to produce good numbers against New England.	42115875	1473013237387	1473013237493	N	78
80998	885495	Expect him to produce good numbers against New England.	Expect him to produce good numbers against New England.	42115877	1473013237901	1473013238059	BKSP	8
80998	885495	Expect him to produce good numbers against New England.	Expect him to produce good numbers against New England.	42115879	1473013238064	1473013238164	CAPS_LOCK	20
80998	885495	Expect him to produce good numbers against New England.	Expect him to produce good numbers against New England.	42115882	1473013238253	1473013238418	n	78
80998	885495	Expect him to produce good numbers against New England.	Expect him to produce good numbers against New England.	42115885	1473013240631	1473013240721	g	71
80998	885495	Expect him to produce good numbers against New England.	Expect him to produce good numbers against New England.	42115888	1473013241596	1473013241727	l	76
80998	885495	Expect him to produce good numbers against New England.	Expect him to produce good numbers against New England.	42115997	1473013241713	1473013241831	a	65
80998	885495	Expect him to produce good numbers against New England.	Expect him to produce good numbers against New England.	42116000	1473013241887	1473013242022	n	78
80998	885495	Expect him to produce good numbers against New England.	Expect him to produce good numbers against New England.	42116003	1473013242898	1473013242992	d	68
80998	885495	Expect him to produce good numbers against New England.	Expect him to produce good numbers against New England.	42116005	1473013243003	1473013243101	 	32
80998	885495	Expect him to produce good numbers against New England.	Expect him to produce good numbers against New England.	42116007	1473013243629	1473013243781	BKSP	8
80998	885495	Expect him to produce good numbers against New England.	Expect him to produce good numbers against New England.	42116009	1473013245246	1473013245353	.	190
80998	885520	What number should he call you on?	What number should he call you on?	42116121	1473013248751	1473013248850	W	87
80998	885520	What number should he call you on?	What number should he call you on?	42116123	1473013249450	1473013249602	CAPS_LOCK	20
80998	885520	What number should he call you on?	What number should he call you on?	42116125	1473013250318	1473013250424	h	72
80998	885520	What number should he call you on?	What number should he call you on?	42116127	1473013250401	1473013250644	a	65
80998	885520	What number should he call you on?	What number should he call you on?	42116129	1473013250588	1473013250715	t	84
80998	885520	What number should he call you on?	What number should he call you on?	42116131	1473013250757	1473013250892	 	32
80998	885520	What number should he call you on?	What number should he call you on?	42116174	1473013251737	1473013251846	n	78
80998	885520	What number should he call you on?	What number should he call you on?	42116177	1473013251956	1473013252088	u	85
80998	885520	What number should he call you on?	What number should he call you on?	42116180	1473013252300	1473013252383	m	77
80998	885520	What number should he call you on?	What number should he call you on?	42116182	1473013252716	1473013252816	b	66
80998	885520	What number should he call you on?	What number should he call you on?	42116184	1473013252917	1473013253008	e	69
80998	885520	What number should he call you on?	What number should he call you on?	42116257	1473013253074	1473013253197	r	82
80998	885520	What number should he call you on?	What number should he call you on?	42116258	1473013253227	1473013253365	 	32
80998	885520	What number should he call you on?	What number should he call you on?	42116259	1473013255332	1473013255436	s	83
80998	885520	What number should he call you on?	What number should he call you on?	42116260	1473013255455	1473013255567	h	72
80998	885520	What number should he call you on?	What number should he call you on?	42116261	1473013255747	1473013255897	o	79
80998	885520	What number should he call you on?	What number should he call you on?	42116320	1473013255969	1473013256073	u	85
80998	885520	What number should he call you on?	What number should he call you on?	42116322	1473013256263	1473013256352	l	76
80998	885520	What number should he call you on?	What number should he call you on?	42116324	1473013257137	1473013257272	s	83
80998	885520	What number should he call you on?	What number should he call you on?	42116326	1473013257286	1473013257423	 	32
80998	885520	What number should he call you on?	What number should he call you on?	42116328	1473013257895	1473013258032	BKSP	8
80998	885520	What number should he call you on?	What number should he call you on?	42116376	1473013257983	1473013258141	d	68
80998	885520	What number should he call you on?	What number should he call you on?	42116378	1473013258175	1473013258286	 	32
80998	885520	What number should he call you on?	What number should he call you on?	42116382	1473013258571	1473013258653	BKSP	8
80998	885520	What number should he call you on?	What number should he call you on?	42116384	1473013258735	1473013258798	BKSP	8
80998	885520	What number should he call you on?	What number should he call you on?	42116385	1473013258874	1473013258977	BKSP	8
80998	885520	What number should he call you on?	What number should he call you on?	42116387	1473013258936	1473013259069	d	68
80998	885520	What number should he call you on?	What number should he call you on?	42116389	1473013259091	1473013259220	 	32
80998	885520	What number should he call you on?	What number should he call you on?	42116391	1473013259908	1473013259974	h	72
80998	885520	What number should he call you on?	What number should he call you on?	42116393	1473013259978	1473013260087	e	69
80998	885520	What number should he call you on?	What number should he call you on?	42116425	1473013260140	1473013260246	 	32
80998	885520	What number should he call you on?	What number should he call you on?	42116426	1473013260855	1473013261035	c	67
80998	885520	What number should he call you on?	What number should he call you on?	42116429	1473013261291	1473013261371	l	76
80998	885520	What number should he call you on?	What number should he call you on?	42116430	1473013261461	1473013261559	l	76
80998	885520	What number should he call you on?	What number should he call you on?	42116433	1473013261637	1473013261783	 	32
80998	885520	What number should he call you on?	What number should he call you on?	42116501	1473013262341	1473013262432	BKSP	8
80998	885520	What number should he call you on?	What number should he call you on?	42116503	1473013262502	1473013262594	BKSP	8
80998	885520	What number should he call you on?	What number should he call you on?	42116504	1473013262665	1473013262742	BKSP	8
80998	885520	What number should he call you on?	What number should he call you on?	42116505	1473013262747	1473013262935	a	65
80998	885520	What number should he call you on?	What number should he call you on?	42116506	1473013263559	1473013263634	l	76
80998	885520	What number should he call you on?	What number should he call you on?	42116508	1473013263716	1473013263801	l	76
80998	885520	What number should he call you on?	What number should he call you on?	42116512	1473013263844	1473013264030	 	32
80998	885520	What number should he call you on?	What number should he call you on?	42116515	1473013265259	1473013265342	y	89
80998	885520	What number should he call you on?	What number should he call you on?	42116647	1473013265891	1473013265994	 	32
80998	885520	What number should he call you on?	What number should he call you on?	42116651	1473013266503	1473013266635	n	78
80998	885520	What number should he call you on?	What number should he call you on?	42116655	1473013267477	1473013267566	BKSP	8
80998	885520	What number should he call you on?	What number should he call you on?	42116659	1473013267641	1473013267727	BKSP	8
80998	885520	What number should he call you on?	What number should he call you on?	42116662	1473013269303	1473013269469	o	79
80998	885520	What number should he call you on?	What number should he call you on?	42116665	1473013269455	1473013269595	u	85
80998	885520	What number should he call you on?	What number should he call you on?	42116666	1473013269691	1473013269840	 	32
80998	885520	What number should he call you on?	What number should he call you on?	42116696	1473013270175	1473013270238	o	79
80998	885520	What number should he call you on?	What number should he call you on?	42116697	1473013270325	1473013270458	n	78
80998	885520	What number should he call you on?	What number should he call you on?	42116698	1473013271852	1473013272091	SHIFT	16
80998	885520	What number should he call you on?	What number should he call you on?	42116699	1473013271989	1473013272191	?	191
80998	885536	John this message concerns me.	John this message concern me.	42116893	1473013277197	1473013277316	J	74
80998	885536	John this message concerns me.	John this message concern me.	42116897	1473013277300	1473013277470	CAPS_LOCK	20
80998	885536	John this message concerns me.	John this message concern me.	42116899	1473013278279	1473013278406	o	79
80998	885536	John this message concerns me.	John this message concern me.	42116901	1473013278505	1473013278625	h	72
80998	885536	John this message concerns me.	John this message concern me.	42116902	1473013278752	1473013278870	n	78
80998	885536	John this message concerns me.	John this message concern me.	42116903	1473013278992	1473013279118	 	32
80998	885536	John this message concerns me.	John this message concern me.	42116923	1473013279385	1473013279471	t	84
80998	885536	John this message concerns me.	John this message concern me.	42116926	1473013279487	1473013279605	h	72
80998	885536	John this message concerns me.	John this message concern me.	42116929	1473013279611	1473013279764	i	73
80998	885536	John this message concerns me.	John this message concern me.	42116931	1473013279991	1473013280075	s	83
80998	885536	John this message concerns me.	John this message concern me.	42116933	1473013280105	1473013280217	 	32
80998	885536	John this message concerns me.	John this message concern me.	42116968	1473013281039	1473013281130	m	77
80998	885536	John this message concerns me.	John this message concern me.	42116970	1473013281536	1473013281646	e	69
80998	885536	John this message concerns me.	John this message concern me.	42116972	1473013281850	1473013281939	s	83
80998	885536	John this message concerns me.	John this message concern me.	42116974	1473013282023	1473013282104	s	83
80998	885536	John this message concerns me.	John this message concern me.	42116976	1473013282177	1473013282309	a	65
80998	885536	John this message concerns me.	John this message concern me.	42117102	1473013282912	1473013283067	g	71
80998	885536	John this message concerns me.	John this message concern me.	42117105	1473013283670	1473013283756	e	69
80998	885536	John this message concerns me.	John this message concern me.	42117108	1473013284270	1473013284382	 	32
80998	885536	John this message concerns me.	John this message concern me.	42117111	1473013286809	1473013286935	c	67
80998	885536	John this message concerns me.	John this message concern me.	42117114	1473013286980	1473013287092	o	79
80998	885536	John this message concerns me.	John this message concern me.	42117161	1473013287482	1473013287587	n	78
80998	885536	John this message concerns me.	John this message concern me.	42117163	1473013288639	1473013288751	c	67
80998	885536	John this message concerns me.	John this message concern me.	42117167	1473013288827	1473013289001	e	69
80998	885536	John this message concerns me.	John this message concern me.	42117169	1473013288987	1473013289102	r	82
80998	885536	John this message concerns me.	John this message concern me.	42117171	1473013289187	1473013289316	n	78
80998	885536	John this message concerns me.	John this message concern me.	42117288	1473013289402	1473013289529	 	32
80998	885536	John this message concerns me.	John this message concern me.	42117293	1473013289748	1473013289966	m	77
80998	885536	John this message concerns me.	John this message concern me.	42117290	1473013289848	1473013289935	e	69
80998	885536	John this message concerns me.	John this message concern me.	42117295	1473013293877	1473013293974	.	190
80998	885547	He said he had been surprised to see his name on the list.	He said he had been surprised to see his name on the list.	42117518	1473013297569	1473013297672	H	72
80998	885547	He said he had been surprised to see his name on the list.	He said he had been surprised to see his name on the list.	42117520	1473013297689	1473013297795	CAPS_LOCK	20
80998	885547	He said he had been surprised to see his name on the list.	He said he had been surprised to see his name on the list.	42117523	1473013297925	1473013298019	e	69
80998	885547	He said he had been surprised to see his name on the list.	He said he had been surprised to see his name on the list.	42117526	1473013299120	1473013299263	 	32
80998	885547	He said he had been surprised to see his name on the list.	He said he had been surprised to see his name on the list.	42117528	1473013301764	1473013301963	s	83
80998	885547	He said he had been surprised to see his name on the list.	He said he had been surprised to see his name on the list.	42117530	1473013301999	1473013302181	a	65
80998	885547	He said he had been surprised to see his name on the list.	He said he had been surprised to see his name on the list.	42117585	1473013302149	1473013302287	i	73
80998	885547	He said he had been surprised to see his name on the list.	He said he had been surprised to see his name on the list.	42117588	1473013302348	1473013302435	d	68
80998	885547	He said he had been surprised to see his name on the list.	He said he had been surprised to see his name on the list.	42117587	1473013302373	1473013302426	s	83
80998	885547	He said he had been surprised to see his name on the list.	He said he had been surprised to see his name on the list.	42117589	1473013302488	1473013302617	 	32
80998	885547	He said he had been surprised to see his name on the list.	He said he had been surprised to see his name on the list.	42117590	1473013303299	1473013303356	BKSP	8
80998	885547	He said he had been surprised to see his name on the list.	He said he had been surprised to see his name on the list.	42117591	1473013303444	1473013303532	BKSP	8
80998	885547	He said he had been surprised to see his name on the list.	He said he had been surprised to see his name on the list.	42117595	1473013303602	1473013303714	 	32
80998	885547	He said he had been surprised to see his name on the list.	He said he had been surprised to see his name on the list.	42117599	1473013304505	1473013304624	h	72
80998	885547	He said he had been surprised to see his name on the list.	He said he had been surprised to see his name on the list.	42117666	1473013304598	1473013304699	e	69
80998	885547	He said he had been surprised to see his name on the list.	He said he had been surprised to see his name on the list.	42117669	1473013304735	1473013304873	 	32
80998	885547	He said he had been surprised to see his name on the list.	He said he had been surprised to see his name on the list.	42117672	1473013306622	1473013306755	h	72
80998	885547	He said he had been surprised to see his name on the list.	He said he had been surprised to see his name on the list.	42117678	1473013306723	1473013306879	a	65
80998	885547	He said he had been surprised to see his name on the list.	He said he had been surprised to see his name on the list.	42117684	1473013306995	1473013307061	s	83
80998	885547	He said he had been surprised to see his name on the list.	He said he had been surprised to see his name on the list.	42117686	1473013307074	1473013307177	 	32
80998	885547	He said he had been surprised to see his name on the list.	He said he had been surprised to see his name on the list.	42117857	1473013307458	1473013307533	BKSP	8
80998	885547	He said he had been surprised to see his name on the list.	He said he had been surprised to see his name on the list.	42117858	1473013307646	1473013307740	BKSP	8
80998	885547	He said he had been surprised to see his name on the list.	He said he had been surprised to see his name on the list.	42117859	1473013308418	1473013308510	d	68
80998	885547	He said he had been surprised to see his name on the list.	He said he had been surprised to see his name on the list.	42117861	1473013308526	1473013308648	 	32
80998	885547	He said he had been surprised to see his name on the list.	He said he had been surprised to see his name on the list.	42117863	1473013312061	1473013312139	b	66
80998	885547	He said he had been surprised to see his name on the list.	He said he had been surprised to see his name on the list.	42117865	1473013312192	1473013312278	e	69
80998	885547	He said he had been surprised to see his name on the list.	He said he had been surprised to see his name on the list.	42117870	1473013312368	1473013312465	e	69
80998	885547	He said he had been surprised to see his name on the list.	He said he had been surprised to see his name on the list.	42117941	1473013312502	1473013312610	n	78
80998	885547	He said he had been surprised to see his name on the list.	He said he had been surprised to see his name on the list.	42117943	1473013313264	1473013313376	 	32
80998	885547	He said he had been surprised to see his name on the list.	He said he had been surprised to see his name on the list.	42117945	1473013315129	1473013315230	s	83
80998	885547	He said he had been surprised to see his name on the list.	He said he had been surprised to see his name on the list.	42117948	1473013315249	1473013315378	u	85
80998	885547	He said he had been surprised to see his name on the list.	He said he had been surprised to see his name on the list.	42117951	1473013315445	1473013315557	r	82
80998	885547	He said he had been surprised to see his name on the list.	He said he had been surprised to see his name on the list.	42118031	1473013316572	1473013316681	p	80
80998	885547	He said he had been surprised to see his name on the list.	He said he had been surprised to see his name on the list.	42118037	1473013317195	1473013317261	r	82
80998	885547	He said he had been surprised to see his name on the list.	He said he had been surprised to see his name on the list.	42118043	1473013318134	1473013318223	i	73
80998	885547	He said he had been surprised to see his name on the list.	He said he had been surprised to see his name on the list.	42118049	1473013318856	1473013319015	s	83
80998	885547	He said he had been surprised to see his name on the list.	He said he had been surprised to see his name on the list.	42118056	1473013319057	1473013319192	e	69
80998	885547	He said he had been surprised to see his name on the list.	He said he had been surprised to see his name on the list.	42118101	1473013319331	1473013319405	d	68
80998	885547	He said he had been surprised to see his name on the list.	He said he had been surprised to see his name on the list.	42118104	1473013319487	1473013319628	 	32
80998	885547	He said he had been surprised to see his name on the list.	He said he had been surprised to see his name on the list.	42118106	1473013320363	1473013320444	t	84
80998	885547	He said he had been surprised to see his name on the list.	He said he had been surprised to see his name on the list.	42118107	1473013320472	1473013320589	o	79
80998	885547	He said he had been surprised to see his name on the list.	He said he had been surprised to see his name on the list.	42118108	1473013320679	1473013320805	 	32
80998	885547	He said he had been surprised to see his name on the list.	He said he had been surprised to see his name on the list.	42118153	1473013320893	1473013321008	s	83
80998	885547	He said he had been surprised to see his name on the list.	He said he had been surprised to see his name on the list.	42118156	1473013321135	1473013321230	e	69
80998	885547	He said he had been surprised to see his name on the list.	He said he had been surprised to see his name on the list.	42118160	1473013321315	1473013321406	e	69
80998	885547	He said he had been surprised to see his name on the list.	He said he had been surprised to see his name on the list.	42118163	1473013321419	1473013321557	 	32
80998	885547	He said he had been surprised to see his name on the list.	He said he had been surprised to see his name on the list.	42118165	1473013322518	1473013322627	h	72
80998	885547	He said he had been surprised to see his name on the list.	He said he had been surprised to see his name on the list.	42118204	1473013322681	1473013322841	i	73
80998	885547	He said he had been surprised to see his name on the list.	He said he had been surprised to see his name on the list.	42118206	1473013322866	1473013322979	s	83
80998	885547	He said he had been surprised to see his name on the list.	He said he had been surprised to see his name on the list.	42118208	1473013323018	1473013323150	 	32
80998	885547	He said he had been surprised to see his name on the list.	He said he had been surprised to see his name on the list.	42118211	1473013324395	1473013324496	n	78
80998	885547	He said he had been surprised to see his name on the list.	He said he had been surprised to see his name on the list.	42118214	1473013324538	1473013324711	a	65
80998	885547	He said he had been surprised to see his name on the list.	He said he had been surprised to see his name on the list.	42118264	1473013324718	1473013324855	m	77
80998	885547	He said he had been surprised to see his name on the list.	He said he had been surprised to see his name on the list.	42118267	1473013324844	1473013324968	e	69
80998	885547	He said he had been surprised to see his name on the list.	He said he had been surprised to see his name on the list.	42118270	1473013325833	1473013325956	 	32
80998	885547	He said he had been surprised to see his name on the list.	He said he had been surprised to see his name on the list.	42118271	1473013326249	1473013326392	o	79
80998	885547	He said he had been surprised to see his name on the list.	He said he had been surprised to see his name on the list.	42118274	1473013326488	1473013326614	n	78
80998	885547	He said he had been surprised to see his name on the list.	He said he had been surprised to see his name on the list.	42118307	1473013326687	1473013326828	 	32
80998	885547	He said he had been surprised to see his name on the list.	He said he had been surprised to see his name on the list.	42118308	1473013327394	1473013327422	t	84
80998	885547	He said he had been surprised to see his name on the list.	He said he had been surprised to see his name on the list.	42118310	1473013327677	1473013327792	h	72
80998	885547	He said he had been surprised to see his name on the list.	He said he had been surprised to see his name on the list.	42118312	1473013327811	1473013327909	e	69
80998	885547	He said he had been surprised to see his name on the list.	He said he had been surprised to see his name on the list.	42118314	1473013327922	1473013328074	 	32
80998	885547	He said he had been surprised to see his name on the list.	He said he had been surprised to see his name on the list.	42118360	1473013329234	1473013329366	l	76
80998	885547	He said he had been surprised to see his name on the list.	He said he had been surprised to see his name on the list.	42118363	1473013329474	1473013329617	i	73
80998	885547	He said he had been surprised to see his name on the list.	He said he had been surprised to see his name on the list.	42118366	1473013329668	1473013329877	s	83
80998	885547	He said he had been surprised to see his name on the list.	He said he had been surprised to see his name on the list.	42118368	1473013329860	1473013329955	t	84
80998	885547	He said he had been surprised to see his name on the list.	He said he had been surprised to see his name on the list.	42118369	1473013329999	1473013330128	 	32
80998	885547	He said he had been surprised to see his name on the list.	He said he had been surprised to see his name on the list.	42118468	1473013331138	1473013331244	\	220
80998	885547	He said he had been surprised to see his name on the list.	He said he had been surprised to see his name on the list.	42118470	1473013332464	1473013332541	BKSP	8
80998	885547	He said he had been surprised to see his name on the list.	He said he had been surprised to see his name on the list.	42118472	1473013332646	1473013332744	BKSP	8
80998	885547	He said he had been surprised to see his name on the list.	He said he had been surprised to see his name on the list.	42118475	1473013333833	1473013333950	.	190
80998	885570	Please let me know if there is any way that I can help you.	Please let me know if there is any way that I can help you.	42118684	1473013335535	1473013335649	CAPS_LOCK	20
80998	885570	Please let me know if there is any way that I can help you.	Please let me know if there is any way that I can help you.	42118686	1473013337613	1473013337720	P	80
80998	885570	Please let me know if there is any way that I can help you.	Please let me know if there is any way that I can help you.	42118689	1473013337855	1473013338034	CAPS_LOCK	20
80998	885570	Please let me know if there is any way that I can help you.	Please let me know if there is any way that I can help you.	42118691	1473013339029	1473013339141	l	76
80998	885570	Please let me know if there is any way that I can help you.	Please let me know if there is any way that I can help you.	42118692	1473013341081	1473013341260	e	69
80998	885570	Please let me know if there is any way that I can help you.	Please let me know if there is any way that I can help you.	42118693	1473013341264	1473013341403	s	83
80998	885570	Please let me know if there is any way that I can help you.	Please let me know if there is any way that I can help you.	42118694	1473013341769	1473013341851	BKSP	8
80998	885570	Please let me know if there is any way that I can help you.	Please let me know if there is any way that I can help you.	42118695	1473013341922	1473013342078	a	65
80998	885570	Please let me know if there is any way that I can help you.	Please let me know if there is any way that I can help you.	42118722	1473013342100	1473013342227	s	83
80998	885570	Please let me know if there is any way that I can help you.	Please let me know if there is any way that I can help you.	42118724	1473013342813	1473013342925	e	69
80998	885570	Please let me know if there is any way that I can help you.	Please let me know if there is any way that I can help you.	42118725	1473013342964	1473013343098	 	32
80998	885570	Please let me know if there is any way that I can help you.	Please let me know if there is any way that I can help you.	42118727	1473013343861	1473013343981	l	76
80998	885570	Please let me know if there is any way that I can help you.	Please let me know if there is any way that I can help you.	42118728	1473013344128	1473013344255	i	73
80998	885570	Please let me know if there is any way that I can help you.	Please let me know if there is any way that I can help you.	42118775	1473013344629	1473013344781	s	83
80998	885570	Please let me know if there is any way that I can help you.	Please let me know if there is any way that I can help you.	42118777	1473013344741	1473013344847	t	84
80998	885570	Please let me know if there is any way that I can help you.	Please let me know if there is any way that I can help you.	42118779	1473013344907	1473013345007	 	32
80998	885570	Please let me know if there is any way that I can help you.	Please let me know if there is any way that I can help you.	42118780	1473013345857	1473013345926	BKSP	8
80998	885570	Please let me know if there is any way that I can help you.	Please let me know if there is any way that I can help you.	42118781	1473013346016	1473013346089	BKSP	8
80998	885570	Please let me know if there is any way that I can help you.	Please let me know if there is any way that I can help you.	42118782	1473013346173	1473013346230	BKSP	8
80998	885570	Please let me know if there is any way that I can help you.	Please let me know if there is any way that I can help you.	42118783	1473013346317	1473013346414	BKSP	8
80998	885570	Please let me know if there is any way that I can help you.	Please let me know if there is any way that I can help you.	42118784	1473013347225	1473013347400	e	69
80998	885570	Please let me know if there is any way that I can help you.	Please let me know if there is any way that I can help you.	42118842	1473013347370	1473013347507	t	84
80998	885570	Please let me know if there is any way that I can help you.	Please let me know if there is any way that I can help you.	42118843	1473013347480	1473013347602	 	32
80998	885570	Please let me know if there is any way that I can help you.	Please let me know if there is any way that I can help you.	42118844	1473013348974	1473013349076	m	77
80998	885570	Please let me know if there is any way that I can help you.	Please let me know if there is any way that I can help you.	42118846	1473013349059	1473013349162	e	69
80998	885570	Please let me know if there is any way that I can help you.	Please let me know if there is any way that I can help you.	42118849	1473013349227	1473013349350	 	32
80998	885570	Please let me know if there is any way that I can help you.	Please let me know if there is any way that I can help you.	42118852	1473013350388	1473013350509	k	75
80998	885570	Please let me know if there is any way that I can help you.	Please let me know if there is any way that I can help you.	42118897	1473013350696	1473013350796	n	78
80998	885570	Please let me know if there is any way that I can help you.	Please let me know if there is any way that I can help you.	42118898	1473013350912	1473013351047	o	79
80998	885570	Please let me know if there is any way that I can help you.	Please let me know if there is any way that I can help you.	42118899	1473013351006	1473013351119	w	87
80998	885570	Please let me know if there is any way that I can help you.	Please let me know if there is any way that I can help you.	42118901	1473013351707	1473013351825	 	32
80998	885570	Please let me know if there is any way that I can help you.	Please let me know if there is any way that I can help you.	42118903	1473013352339	1473013352448	i	73
80998	885570	Please let me know if there is any way that I can help you.	Please let me know if there is any way that I can help you.	42118969	1473013352454	1473013352540	f	70
80998	885570	Please let me know if there is any way that I can help you.	Please let me know if there is any way that I can help you.	42118971	1473013352563	1473013352678	 	32
80998	885570	Please let me know if there is any way that I can help you.	Please let me know if there is any way that I can help you.	42118973	1473013354610	1473013354704	t	84
80998	885570	Please let me know if there is any way that I can help you.	Please let me know if there is any way that I can help you.	42118975	1473013354684	1473013354794	h	72
80998	885570	Please let me know if there is any way that I can help you.	Please let me know if there is any way that I can help you.	42118977	1473013354872	1473013355147	e	69
80998	885570	Please let me know if there is any way that I can help you.	Please let me know if there is any way that I can help you.	42119043	1473013355109	1473013355283	r	82
80998	885570	Please let me know if there is any way that I can help you.	Please let me know if there is any way that I can help you.	42119044	1473013356224	1473013356333	s	83
80998	885570	Please let me know if there is any way that I can help you.	Please let me know if there is any way that I can help you.	42119045	1473013356364	1473013356481	 	32
80998	885570	Please let me know if there is any way that I can help you.	Please let me know if there is any way that I can help you.	42119046	1473013357163	1473013357218	BKSP	8
80998	885570	Please let me know if there is any way that I can help you.	Please let me know if there is any way that I can help you.	42119047	1473013357314	1473013357385	BKSP	8
80998	885570	Please let me know if there is any way that I can help you.	Please let me know if there is any way that I can help you.	42119048	1473013357634	1473013357744	e	69
80998	885570	Please let me know if there is any way that I can help you.	Please let me know if there is any way that I can help you.	42119049	1473013357763	1473013357895	 	32
80998	885570	Please let me know if there is any way that I can help you.	Please let me know if there is any way that I can help you.	42119051	1473013358569	1473013358657	i	73
80998	885570	Please let me know if there is any way that I can help you.	Please let me know if there is any way that I can help you.	42119082	1473013358699	1473013358800	s	83
80998	885570	Please let me know if there is any way that I can help you.	Please let me know if there is any way that I can help you.	42119085	1473013358853	1473013358951	 	32
80998	885570	Please let me know if there is any way that I can help you.	Please let me know if there is any way that I can help you.	42119089	1473013359565	1473013359703	a	65
80998	885570	Please let me know if there is any way that I can help you.	Please let me know if there is any way that I can help you.	42119092	1473013359685	1473013359789	n	78
80998	885570	Please let me know if there is any way that I can help you.	Please let me know if there is any way that I can help you.	42119094	1473013359967	1473013360050	y	89
80998	885570	Please let me know if there is any way that I can help you.	Please let me know if there is any way that I can help you.	42119172	1473013360094	1473013360221	 	32
80998	885570	Please let me know if there is any way that I can help you.	Please let me know if there is any way that I can help you.	42119176	1473013361812	1473013361951	w	87
80998	885570	Please let me know if there is any way that I can help you.	Please let me know if there is any way that I can help you.	42119184	1473013361976	1473013362159	a	65
80998	885570	Please let me know if there is any way that I can help you.	Please let me know if there is any way that I can help you.	42119180	1473013362116	1473013362150	s	83
80998	885570	Please let me know if there is any way that I can help you.	Please let me know if there is any way that I can help you.	42119187	1473013362861	1473013362962	BKSP	8
80998	885570	Please let me know if there is any way that I can help you.	Please let me know if there is any way that I can help you.	42119190	1473013363445	1473013363511	y	89
80998	885570	Please let me know if there is any way that I can help you.	Please let me know if there is any way that I can help you.	42119266	1473013363541	1473013363670	 	32
80998	885570	Please let me know if there is any way that I can help you.	Please let me know if there is any way that I can help you.	42119267	1473013366504	1473013366599	t	84
80998	885570	Please let me know if there is any way that I can help you.	Please let me know if there is any way that I can help you.	42119269	1473013366603	1473013366718	h	72
80998	885570	Please let me know if there is any way that I can help you.	Please let me know if there is any way that I can help you.	42119272	1473013366710	1473013366856	a	65
80998	885570	Please let me know if there is any way that I can help you.	Please let me know if there is any way that I can help you.	42119332	1473013366772	1473013366903	t	84
80998	885570	Please let me know if there is any way that I can help you.	Please let me know if there is any way that I can help you.	42119335	1473013367212	1473013367343	 	32
80998	885570	Please let me know if there is any way that I can help you.	Please let me know if there is any way that I can help you.	42119338	1473013368102	1473013368238	CAPS_LOCK	20
80998	885570	Please let me know if there is any way that I can help you.	Please let me know if there is any way that I can help you.	42119339	1473013368266	1473013368380	I	73
80998	885570	Please let me know if there is any way that I can help you.	Please let me know if there is any way that I can help you.	42119340	1473013369038	1473013369185	c	67
80998	885570	Please let me know if there is any way that I can help you.	Please let me know if there is any way that I can help you.	42119341	1473013369131	1473013369293	a	65
80998	885570	Please let me know if there is any way that I can help you.	Please let me know if there is any way that I can help you.	42119362	1473013369267	1473013369413	n	78
80998	885570	Please let me know if there is any way that I can help you.	Please let me know if there is any way that I can help you.	42119363	1473013369557	1473013369674	 	32
80998	885570	Please let me know if there is any way that I can help you.	Please let me know if there is any way that I can help you.	42119364	1473013369849	1473013369922	BKSP	8
80998	885570	Please let me know if there is any way that I can help you.	Please let me know if there is any way that I can help you.	42119366	1473013370014	1473013370101	BKSP	8
80998	885570	Please let me know if there is any way that I can help you.	Please let me know if there is any way that I can help you.	42119369	1473013370182	1473013370252	BKSP	8
80998	885570	Please let me know if there is any way that I can help you.	Please let me know if there is any way that I can help you.	42119372	1473013370289	1473013370364	BKSP	8
80998	885570	Please let me know if there is any way that I can help you.	Please let me know if there is any way that I can help you.	42119375	1473013370925	1473013371003	 	32
80998	885570	Please let me know if there is any way that I can help you.	Please let me know if there is any way that I can help you.	42119380	1473013371029	1473013371175	c	67
80998	885570	Please let me know if there is any way that I can help you.	Please let me know if there is any way that I can help you.	42119384	1473013371121	1473013371291	a	65
80998	885570	Please let me know if there is any way that I can help you.	Please let me know if there is any way that I can help you.	42119461	1473013371181	1473013371326	n	78
80998	885570	Please let me know if there is any way that I can help you.	Please let me know if there is any way that I can help you.	42119463	1473013371393	1473013371523	 	32
80998	885570	Please let me know if there is any way that I can help you.	Please let me know if there is any way that I can help you.	42119464	1473013372564	1473013372666	h	72
80998	885570	Please let me know if there is any way that I can help you.	Please let me know if there is any way that I can help you.	42119465	1473013373657	1473013373744	e	69
80998	885570	Please let me know if there is any way that I can help you.	Please let me know if there is any way that I can help you.	42119466	1473013373781	1473013373868	l	76
80998	885570	Please let me know if there is any way that I can help you.	Please let me know if there is any way that I can help you.	42119468	1473013374452	1473013374598	p	80
80998	885570	Please let me know if there is any way that I can help you.	Please let me know if there is any way that I can help you.	42119510	1473013375101	1473013375227	 	32
80998	885570	Please let me know if there is any way that I can help you.	Please let me know if there is any way that I can help you.	42119512	1473013375595	1473013375710	y	89
80998	885570	Please let me know if there is any way that I can help you.	Please let me know if there is any way that I can help you.	42119515	1473013375831	1473013375968	o	79
80998	885570	Please let me know if there is any way that I can help you.	Please let me know if there is any way that I can help you.	42119519	1473013375987	1473013376124	u	85
80998	885570	Please let me know if there is any way that I can help you.	Please let me know if there is any way that I can help you.	42119520	1473013376234	1473013376368	 	32
80998	885570	Please let me know if there is any way that I can help you.	Please let me know if there is any way that I can help you.	42119568	1473013377287	1473013377410	BKSP	8
80998	885570	Please let me know if there is any way that I can help you.	Please let me know if there is any way that I can help you.	42119571	1473013378090	1473013378227	.	190
80998	885593	If lunch doesn't work then how about coffee?	If lunch doesn't work then how about coffee?	42119844	1473013381340	1473013381425	i	73
80998	885593	If lunch doesn't work then how about coffee?	If lunch doesn't work then how about coffee?	42119846	1473013381533	1473013382190	CAPS_LOCK	20
80998	885593	If lunch doesn't work then how about coffee?	If lunch doesn't work then how about coffee?	42119849	1473013382430	1473013382523	BKSP	8
80998	885593	If lunch doesn't work then how about coffee?	If lunch doesn't work then how about coffee?	42119851	1473013383256	1473013383311	I	73
80998	885593	If lunch doesn't work then how about coffee?	If lunch doesn't work then how about coffee?	42119856	1473013384543	1473013385478	CAPS_LOCK	20
80998	885593	If lunch doesn't work then how about coffee?	If lunch doesn't work then how about coffee?	42119853	1473013384802	1473013384931	f	70
80998	885593	If lunch doesn't work then how about coffee?	If lunch doesn't work then how about coffee?	42119854	1473013385078	1473013385224	 	32
80998	885593	If lunch doesn't work then how about coffee?	If lunch doesn't work then how about coffee?	42119857	1473013386687	1473013386804	l	76
80998	885593	If lunch doesn't work then how about coffee?	If lunch doesn't work then how about coffee?	42119887	1473013386929	1473013387026	u	85
80998	885593	If lunch doesn't work then how about coffee?	If lunch doesn't work then how about coffee?	42119890	1473013387908	1473013387991	n	78
80998	885593	If lunch doesn't work then how about coffee?	If lunch doesn't work then how about coffee?	42119893	1473013387967	1473013388079	c	67
80998	885593	If lunch doesn't work then how about coffee?	If lunch doesn't work then how about coffee?	42119896	1473013388149	1473013388287	h	72
80998	885593	If lunch doesn't work then how about coffee?	If lunch doesn't work then how about coffee?	42119900	1473013388348	1473013388440	 	32
80998	885593	If lunch doesn't work then how about coffee?	If lunch doesn't work then how about coffee?	42120052	1473013389871	1473013389989	d	68
80998	885593	If lunch doesn't work then how about coffee?	If lunch doesn't work then how about coffee?	42120054	1473013389994	1473013390120	o	79
80998	885593	If lunch doesn't work then how about coffee?	If lunch doesn't work then how about coffee?	42120055	1473013390131	1473013390262	e	69
80998	885593	If lunch doesn't work then how about coffee?	If lunch doesn't work then how about coffee?	42120056	1473013392570	1473013392688	s	83
80998	885593	If lunch doesn't work then how about coffee?	If lunch doesn't work then how about coffee?	42120057	1473013392796	1473013392919	n	78
80998	885593	If lunch doesn't work then how about coffee?	If lunch doesn't work then how about coffee?	42120161	1473013394020	1473013394146	'	222
80998	885593	If lunch doesn't work then how about coffee?	If lunch doesn't work then how about coffee?	42120162	1473013394925	1473013395010	t	84
80998	885593	If lunch doesn't work then how about coffee?	If lunch doesn't work then how about coffee?	42120164	1473013394996	1473013395142	 	32
80998	885593	If lunch doesn't work then how about coffee?	If lunch doesn't work then how about coffee?	42120166	1473013396069	1473013396160	w	87
80998	885593	If lunch doesn't work then how about coffee?	If lunch doesn't work then how about coffee?	42120168	1473013396196	1473013396336	o	79
80998	885593	If lunch doesn't work then how about coffee?	If lunch doesn't work then how about coffee?	42120228	1473013396390	1473013396501	r	82
80998	885593	If lunch doesn't work then how about coffee?	If lunch doesn't work then how about coffee?	42120230	1473013397042	1473013397194	k	75
80998	885593	If lunch doesn't work then how about coffee?	If lunch doesn't work then how about coffee?	42120231	1473013397657	1473013397766	 	32
80998	885593	If lunch doesn't work then how about coffee?	If lunch doesn't work then how about coffee?	42120232	1473013398052	1473013398138	t	84
80998	885593	If lunch doesn't work then how about coffee?	If lunch doesn't work then how about coffee?	42120233	1473013398143	1473013398258	h	72
80998	885593	If lunch doesn't work then how about coffee?	If lunch doesn't work then how about coffee?	42120288	1473013398334	1473013398400	e	69
80998	885593	If lunch doesn't work then how about coffee?	If lunch doesn't work then how about coffee?	42120292	1473013398421	1473013398568	 	32
80998	885593	If lunch doesn't work then how about coffee?	If lunch doesn't work then how about coffee?	42120294	1473013398900	1473013398998	BKSP	8
80998	885593	If lunch doesn't work then how about coffee?	If lunch doesn't work then how about coffee?	42120295	1473013399199	1473013399305	n	78
80998	885593	If lunch doesn't work then how about coffee?	If lunch doesn't work then how about coffee?	42120296	1473013399574	1473013399713	 	32
80998	885593	If lunch doesn't work then how about coffee?	If lunch doesn't work then how about coffee?	42120297	1473013400351	1473013400478	h	72
80998	885593	If lunch doesn't work then how about coffee?	If lunch doesn't work then how about coffee?	42120324	1473013400489	1473013400679	o	79
80998	885593	If lunch doesn't work then how about coffee?	If lunch doesn't work then how about coffee?	42120327	1473013400686	1473013400743	w	87
80998	885593	If lunch doesn't work then how about coffee?	If lunch doesn't work then how about coffee?	42120330	1473013400814	1473013400928	 	32
80998	885593	If lunch doesn't work then how about coffee?	If lunch doesn't work then how about coffee?	42120335	1473013401796	1473013401922	a	65
80998	885593	If lunch doesn't work then how about coffee?	If lunch doesn't work then how about coffee?	42120423	1473013401908	1473013402016	b	66
80998	885593	If lunch doesn't work then how about coffee?	If lunch doesn't work then how about coffee?	42120426	1473013402181	1473013402298	o	79
80998	885593	If lunch doesn't work then how about coffee?	If lunch doesn't work then how about coffee?	42120429	1473013402255	1473013402435	u	85
80998	885593	If lunch doesn't work then how about coffee?	If lunch doesn't work then how about coffee?	42120431	1473013402418	1473013402501	t	84
80998	885593	If lunch doesn't work then how about coffee?	If lunch doesn't work then how about coffee?	42120433	1473013402574	1473013402675	 	32
80998	885593	If lunch doesn't work then how about coffee?	If lunch doesn't work then how about coffee?	42120436	1473013404609	1473013404730	c	67
80998	885593	If lunch doesn't work then how about coffee?	If lunch doesn't work then how about coffee?	42120488	1473013404750	1473013404832	o	79
80998	885593	If lunch doesn't work then how about coffee?	If lunch doesn't work then how about coffee?	42120493	1473013405580	1473013405639	f	70
80998	885593	If lunch doesn't work then how about coffee?	If lunch doesn't work then how about coffee?	42120496	1473013405741	1473013405824	f	70
80998	885593	If lunch doesn't work then how about coffee?	If lunch doesn't work then how about coffee?	42120498	1473013405969	1473013406092	e	69
80998	885593	If lunch doesn't work then how about coffee?	If lunch doesn't work then how about coffee?	42120500	1473013406182	1473013406280	e	69
80998	885593	If lunch doesn't work then how about coffee?	If lunch doesn't work then how about coffee?	42120632	1473013406302	1473013406448	 	32
80998	885593	If lunch doesn't work then how about coffee?	If lunch doesn't work then how about coffee?	42120633	1473013406888	1473013407015	BKSP	8
80998	885593	If lunch doesn't work then how about coffee?	If lunch doesn't work then how about coffee?	42120634	1473013407768	1473013407966	SHIFT	16
80998	885593	If lunch doesn't work then how about coffee?	If lunch doesn't work then how about coffee?	42120635	1473013408093	1473013408298	/	191
80998	885593	If lunch doesn't work then how about coffee?	If lunch doesn't work then how about coffee?	42120636	1473013408880	1473013408992	BKSP	8
80998	885593	If lunch doesn't work then how about coffee?	If lunch doesn't work then how about coffee?	42120637	1473013409649	1473013410642	SHIFT	16
80998	885593	If lunch doesn't work then how about coffee?	If lunch doesn't work then how about coffee?	42120638	1473013410505	1473013410680	?	191
80998	885615	All our demographics indicate that is a family audience.	All our demographics indicate that  is a family audience.	42120848	1473013413882	1473013414011	CAPS_LOCK	20
80998	885615	All our demographics indicate that is a family audience.	All our demographics indicate that  is a family audience.	42120850	1473013414992	1473013415159	A	65
80998	885615	All our demographics indicate that is a family audience.	All our demographics indicate that  is a family audience.	42120854	1473013415472	1473013415603	CAPS_LOCK	20
80998	885615	All our demographics indicate that is a family audience.	All our demographics indicate that  is a family audience.	42120858	1473013415694	1473013415788	l	76
80998	885615	All our demographics indicate that is a family audience.	All our demographics indicate that  is a family audience.	42120861	1473013415864	1473013415988	l	76
80998	885615	All our demographics indicate that is a family audience.	All our demographics indicate that  is a family audience.	42120864	1473013416049	1473013416233	 	32
80998	885615	All our demographics indicate that is a family audience.	All our demographics indicate that  is a family audience.	42120866	1473013417165	1473013417301	o	79
80998	885615	All our demographics indicate that is a family audience.	All our demographics indicate that  is a family audience.	42120929	1473013417320	1473013417471	u	85
80998	885615	All our demographics indicate that is a family audience.	All our demographics indicate that  is a family audience.	42120930	1473013417463	1473013417546	r	82
80998	885615	All our demographics indicate that is a family audience.	All our demographics indicate that  is a family audience.	42120931	1473013417595	1473013417797	 	32
80998	885615	All our demographics indicate that is a family audience.	All our demographics indicate that  is a family audience.	42120932	1473013420480	1473013420574	d	68
80998	885615	All our demographics indicate that is a family audience.	All our demographics indicate that  is a family audience.	42120933	1473013420674	1473013420773	e	69
80998	885615	All our demographics indicate that is a family audience.	All our demographics indicate that  is a family audience.	42121015	1473013421215	1473013421322	m	77
80998	885615	All our demographics indicate that is a family audience.	All our demographics indicate that  is a family audience.	42121018	1473013421355	1473013421508	o	79
80998	885615	All our demographics indicate that is a family audience.	All our demographics indicate that  is a family audience.	42121021	1473013422494	1473013422600	g	71
80998	885615	All our demographics indicate that is a family audience.	All our demographics indicate that  is a family audience.	42121025	1473013422688	1473013422872	r	82
80998	885615	All our demographics indicate that is a family audience.	All our demographics indicate that  is a family audience.	42121028	1473013422876	1473013423052	a	65
80998	885615	All our demographics indicate that is a family audience.	All our demographics indicate that  is a family audience.	42121105	1473013424016	1473013424113	p	80
80998	885615	All our demographics indicate that is a family audience.	All our demographics indicate that  is a family audience.	42121108	1473013424420	1473013424521	h	72
80998	885615	All our demographics indicate that is a family audience.	All our demographics indicate that  is a family audience.	42121109	1473013424958	1473013425067	i	73
80998	885615	All our demographics indicate that is a family audience.	All our demographics indicate that  is a family audience.	42121113	1473013425120	1473013425301	c	67
80998	885615	All our demographics indicate that is a family audience.	All our demographics indicate that  is a family audience.	42121114	1473013425511	1473013425594	s	83
80998	885615	All our demographics indicate that is a family audience.	All our demographics indicate that  is a family audience.	42121219	1473013425894	1473013426039	 	32
80998	885615	All our demographics indicate that is a family audience.	All our demographics indicate that  is a family audience.	42121221	1473013426857	1473013426926	i	73
80998	885615	All our demographics indicate that is a family audience.	All our demographics indicate that  is a family audience.	42121222	1473013427074	1473013427150	n	78
80998	885615	All our demographics indicate that is a family audience.	All our demographics indicate that  is a family audience.	42121224	1473013428057	1473013428114	d	68
80998	885615	All our demographics indicate that is a family audience.	All our demographics indicate that  is a family audience.	42121227	1473013429338	1473013429415	i	73
80998	885615	All our demographics indicate that is a family audience.	All our demographics indicate that  is a family audience.	42121310	1473013431596	1473013431770	c	67
80998	885615	All our demographics indicate that is a family audience.	All our demographics indicate that  is a family audience.	42121311	1473013431733	1473013431987	a	65
80998	885615	All our demographics indicate that is a family audience.	All our demographics indicate that  is a family audience.	42121313	1473013431951	1473013432076	t	84
80998	885615	All our demographics indicate that is a family audience.	All our demographics indicate that  is a family audience.	42121315	1473013432146	1473013432278	e	69
80998	885615	All our demographics indicate that is a family audience.	All our demographics indicate that  is a family audience.	42121317	1473013432283	1473013432432	 	32
80998	885615	All our demographics indicate that is a family audience.	All our demographics indicate that  is a family audience.	42121349	1473013433143	1473013433240	t	84
80998	885615	All our demographics indicate that is a family audience.	All our demographics indicate that  is a family audience.	42121351	1473013433220	1473013433334	h	72
80998	885615	All our demographics indicate that is a family audience.	All our demographics indicate that  is a family audience.	42121355	1473013433359	1473013433544	a	65
80998	885615	All our demographics indicate that is a family audience.	All our demographics indicate that  is a family audience.	42121353	1473013433395	1473013433495	t	84
80998	885615	All our demographics indicate that is a family audience.	All our demographics indicate that  is a family audience.	42121357	1473013433625	1473013433686	t	84
80998	885615	All our demographics indicate that is a family audience.	All our demographics indicate that  is a family audience.	42121388	1473013434470	1473013434559	BKSP	8
80998	885615	All our demographics indicate that is a family audience.	All our demographics indicate that  is a family audience.	42121390	1473013434746	1473013434843	 	32
80998	885615	All our demographics indicate that is a family audience.	All our demographics indicate that  is a family audience.	42121394	1473013434974	1473013435079	 	32
80998	885615	All our demographics indicate that is a family audience.	All our demographics indicate that  is a family audience.	42121396	1473013435660	1473013435760	i	73
80998	885615	All our demographics indicate that is a family audience.	All our demographics indicate that  is a family audience.	42121398	1473013435785	1473013435873	s	83
80998	885615	All our demographics indicate that is a family audience.	All our demographics indicate that  is a family audience.	42121455	1473013435855	1473013435979	 	32
80998	885615	All our demographics indicate that is a family audience.	All our demographics indicate that  is a family audience.	42121457	1473013436315	1473013436433	a	65
80998	885615	All our demographics indicate that is a family audience.	All our demographics indicate that  is a family audience.	42121459	1473013436446	1473013436561	 	32
80998	885615	All our demographics indicate that is a family audience.	All our demographics indicate that  is a family audience.	42121461	1473013437357	1473013437512	f	70
80998	885615	All our demographics indicate that is a family audience.	All our demographics indicate that  is a family audience.	42121464	1473013437454	1473013437628	a	65
80998	885615	All our demographics indicate that is a family audience.	All our demographics indicate that  is a family audience.	42121466	1473013437977	1473013438071	m	77
80998	885615	All our demographics indicate that is a family audience.	All our demographics indicate that  is a family audience.	42121555	1473013438202	1473013438305	i	73
80998	885615	All our demographics indicate that is a family audience.	All our demographics indicate that  is a family audience.	42121558	1473013439089	1473013439161	l	76
80998	885615	All our demographics indicate that is a family audience.	All our demographics indicate that  is a family audience.	42121561	1473013439459	1473013439600	y	89
80998	885615	All our demographics indicate that is a family audience.	All our demographics indicate that  is a family audience.	42121565	1473013439653	1473013439794	 	32
80998	885615	All our demographics indicate that is a family audience.	All our demographics indicate that  is a family audience.	42121568	1473013441119	1473013441263	a	65
80998	885615	All our demographics indicate that is a family audience.	All our demographics indicate that  is a family audience.	42121664	1473013441245	1473013441328	u	85
80998	885615	All our demographics indicate that is a family audience.	All our demographics indicate that  is a family audience.	42121665	1473013442133	1473013442216	d	68
80998	885615	All our demographics indicate that is a family audience.	All our demographics indicate that  is a family audience.	42121666	1473013442324	1473013442407	e	69
80998	885615	All our demographics indicate that is a family audience.	All our demographics indicate that  is a family audience.	42121668	1473013442585	1473013442703	n	78
80998	885615	All our demographics indicate that is a family audience.	All our demographics indicate that  is a family audience.	42121670	1473013443891	1473013444053	c	67
80998	885615	All our demographics indicate that is a family audience.	All our demographics indicate that  is a family audience.	42121672	1473013444057	1473013444191	e	69
80998	885615	All our demographics indicate that is a family audience.	All our demographics indicate that  is a family audience.	42121853	1473013444183	1473013444324	 	32
80998	885615	All our demographics indicate that is a family audience.	All our demographics indicate that  is a family audience.	42121855	1473013444630	1473013444759	BKSP	8
80998	885615	All our demographics indicate that is a family audience.	All our demographics indicate that  is a family audience.	42121857	1473013445652	1473013445730	BKSP	8
80998	885615	All our demographics indicate that is a family audience.	All our demographics indicate that  is a family audience.	42121859	1473013445828	1473013445894	BKSP	8
80998	885615	All our demographics indicate that is a family audience.	All our demographics indicate that  is a family audience.	42121861	1473013445987	1473013446047	BKSP	8
80998	885615	All our demographics indicate that is a family audience.	All our demographics indicate that  is a family audience.	42121863	1473013446134	1473013446195	BKSP	8
80998	885615	All our demographics indicate that is a family audience.	All our demographics indicate that  is a family audience.	42121865	1473013446597	1473013446718	BKSP	8
80998	885615	All our demographics indicate that is a family audience.	All our demographics indicate that  is a family audience.	42121866	1473013448503	1473013448601	d	68
80998	885615	All our demographics indicate that is a family audience.	All our demographics indicate that  is a family audience.	42121868	1473013448608	1473013448740	i	73
80998	885615	All our demographics indicate that is a family audience.	All our demographics indicate that  is a family audience.	42121870	1473013449164	1473013449247	e	69
80998	885615	All our demographics indicate that is a family audience.	All our demographics indicate that  is a family audience.	42121873	1473013449704	1473013449796	n	78
80998	885615	All our demographics indicate that is a family audience.	All our demographics indicate that  is a family audience.	42121876	1473013450461	1473013450578	c	67
80998	885615	All our demographics indicate that is a family audience.	All our demographics indicate that  is a family audience.	42121970	1473013450637	1473013450769	e	69
80998	885615	All our demographics indicate that is a family audience.	All our demographics indicate that  is a family audience.	42121971	1473013450811	1473013450888	 	32
80998	885615	All our demographics indicate that is a family audience.	All our demographics indicate that  is a family audience.	42121972	1473013451238	1473013451375	BKSP	8
80998	885615	All our demographics indicate that is a family audience.	All our demographics indicate that  is a family audience.	42121973	1473013453870	1473013454014	.	190
80998	885639	Megan, try this for Phillips.	Megan, try this for phillips.	42122126	1473013455727	1473013455847	CAPS_LOCK	20
80998	885639	Megan, try this for Phillips.	Megan, try this for phillips.	42122131	1473013457474	1473013457572	M	77
80998	885639	Megan, try this for Phillips.	Megan, try this for phillips.	42122134	1473013457622	1473013457706	CAPS_LOCK	20
80998	885639	Megan, try this for Phillips.	Megan, try this for phillips.	42122137	1473013457918	1473013457955	e	69
80998	885639	Megan, try this for Phillips.	Megan, try this for phillips.	42122139	1473013460012	1473013460109	g	71
80998	885639	Megan, try this for Phillips.	Megan, try this for phillips.	42122142	1473013460191	1473013460355	a	65
80998	885639	Megan, try this for Phillips.	Megan, try this for phillips.	42122144	1473013460494	1473013460622	n	78
80998	885639	Megan, try this for Phillips.	Megan, try this for phillips.	42122256	1473013462110	1473013462219	.	190
80998	885639	Megan, try this for Phillips.	Megan, try this for phillips.	42122258	1473013462694	1473013462866	BKSP	8
80998	885639	Megan, try this for Phillips.	Megan, try this for phillips.	42122260	1473013463531	1473013463652	,	188
80998	885639	Megan, try this for Phillips.	Megan, try this for phillips.	42122262	1473013463846	1473013463999	 	32
80998	885639	Megan, try this for Phillips.	Megan, try this for phillips.	42122264	1473013464898	1473013465078	t	84
80998	885639	Megan, try this for Phillips.	Megan, try this for phillips.	42122300	1473013465023	1473013465162	r	82
80998	885639	Megan, try this for Phillips.	Megan, try this for phillips.	42122301	1473013465175	1473013465298	y	89
80998	885639	Megan, try this for Phillips.	Megan, try this for phillips.	42122302	1473013465482	1473013465631	 	32
80998	885639	Megan, try this for Phillips.	Megan, try this for phillips.	42122303	1473013466374	1473013466470	t	84
80998	885639	Megan, try this for Phillips.	Megan, try this for phillips.	42122304	1473013466474	1473013466569	h	72
80998	885639	Megan, try this for Phillips.	Megan, try this for phillips.	42122306	1473013466582	1473013466760	i	73
80998	885639	Megan, try this for Phillips.	Megan, try this for phillips.	42122346	1473013466842	1473013466954	s	83
80998	885639	Megan, try this for Phillips.	Megan, try this for phillips.	42122347	1473013466976	1473013467140	 	32
80998	885639	Megan, try this for Phillips.	Megan, try this for phillips.	42122348	1473013467973	1473013468074	f	70
80998	885639	Megan, try this for Phillips.	Megan, try this for phillips.	42122349	1473013468064	1473013468193	o	79
80998	885639	Megan, try this for Phillips.	Megan, try this for phillips.	42122506	1473013468178	1473013468273	r	82
80998	885639	Megan, try this for Phillips.	Megan, try this for phillips.	42122510	1473013468331	1473013468460	 	32
80998	885639	Megan, try this for Phillips.	Megan, try this for phillips.	42122514	1473013470421	1473013470584	p	80
80998	885639	Megan, try this for Phillips.	Megan, try this for phillips.	42122515	1473013471964	1473013472064	h	72
80998	885639	Megan, try this for Phillips.	Megan, try this for phillips.	42122516	1473013472078	1473013472250	i	73
80998	885639	Megan, try this for Phillips.	Megan, try this for phillips.	42122517	1473013472562	1473013472619	BKSP	8
80998	885639	Megan, try this for Phillips.	Megan, try this for phillips.	42122518	1473013472712	1473013472778	BKSP	8
80998	885639	Megan, try this for Phillips.	Megan, try this for phillips.	42122519	1473013472996	1473013473163	BKSP	8
80998	885639	Megan, try this for Phillips.	Megan, try this for phillips.	42122520	1473013474298	1473013474447	p	80
80998	885639	Megan, try this for Phillips.	Megan, try this for phillips.	42122576	1473013474805	1473013474917	h	72
80998	885639	Megan, try this for Phillips.	Megan, try this for phillips.	42122580	1473013474922	1473013475105	i	73
80998	885639	Megan, try this for Phillips.	Megan, try this for phillips.	42122586	1473013476459	1473013476505	l	76
80998	885639	Megan, try this for Phillips.	Megan, try this for phillips.	42122592	1473013476584	1473013476673	l	76
80998	885639	Megan, try this for Phillips.	Megan, try this for phillips.	42122597	1473013476873	1473013477032	i	73
80998	885639	Megan, try this for Phillips.	Megan, try this for phillips.	42122690	1473013477170	1473013477326	p	80
80998	885639	Megan, try this for Phillips.	Megan, try this for phillips.	42122691	1473013477308	1473013477417	s	83
80998	885639	Megan, try this for Phillips.	Megan, try this for phillips.	42122692	1473013477473	1473013477598	 	32
80998	885639	Megan, try this for Phillips.	Megan, try this for phillips.	42122693	1473013477909	1473013478026	BKSP	8
80998	885639	Megan, try this for Phillips.	Megan, try this for phillips.	42122694	1473013479991	1473013480116	.	190
80998	885652	He is listed as day to day.	He is listed as day to day.	42122844	1473013483357	1473013483451	H	72
80998	885652	He is listed as day to day.	He is listed as day to day.	42122847	1473013483533	1473013483657	CAPS_LOCK	20
80998	885652	He is listed as day to day.	He is listed as day to day.	42122851	1473013483773	1473013483864	e	69
80998	885652	He is listed as day to day.	He is listed as day to day.	42122855	1473013483897	1473013484015	 	32
80998	885652	He is listed as day to day.	He is listed as day to day.	42122857	1473013485156	1473013485265	i	73
80998	885652	He is listed as day to day.	He is listed as day to day.	42122859	1473013485437	1473013485555	 	32
80998	885652	He is listed as day to day.	He is listed as day to day.	42122935	1473013486092	1473013486163	BKSP	8
80998	885652	He is listed as day to day.	He is listed as day to day.	42122936	1473013486257	1473013486322	BKSP	8
80998	885652	He is listed as day to day.	He is listed as day to day.	42122938	1473013486347	1473013486459	s	83
80998	885652	He is listed as day to day.	He is listed as day to day.	42122941	1473013486435	1473013486566	 	32
80998	885652	He is listed as day to day.	He is listed as day to day.	42122943	1473013486960	1473013487046	BKSP	8
80998	885652	He is listed as day to day.	He is listed as day to day.	42122946	1473013487122	1473013487202	BKSP	8
80998	885652	He is listed as day to day.	He is listed as day to day.	42122949	1473013487358	1473013487492	i	73
80998	885652	He is listed as day to day.	He is listed as day to day.	42122953	1473013487469	1473013487583	s	83
80998	885652	He is listed as day to day.	He is listed as day to day.	42123008	1473013487572	1473013487710	 	32
80998	885652	He is listed as day to day.	He is listed as day to day.	42123009	1473013488469	1473013488633	l	76
80998	885652	He is listed as day to day.	He is listed as day to day.	42123010	1473013488746	1473013488886	i	73
80998	885652	He is listed as day to day.	He is listed as day to day.	42123011	1473013488959	1473013489066	s	83
80998	885652	He is listed as day to day.	He is listed as day to day.	42123012	1473013490565	1473013490766	t	84
80998	885652	He is listed as day to day.	He is listed as day to day.	42123078	1473013490720	1473013490864	e	69
80998	885652	He is listed as day to day.	He is listed as day to day.	42123083	1473013491051	1473013491089	d	70
80998	885652	He is listed as day to day.	He is listed as day to day.	42123085	1473013491155	1473013491304	 	32
80998	885652	He is listed as day to day.	He is listed as day to day.	42123086	1473013491536	1473013491613	BKSP	8
80998	885652	He is listed as day to day.	He is listed as day to day.	42123087	1473013491693	1473013491769	BKSP	8
80998	885652	He is listed as day to day.	He is listed as day to day.	42123088	1473013491863	1473013491940	BKSP	8
80998	885652	He is listed as day to day.	He is listed as day to day.	42123090	1473013492693	1473013492793	d	68
80998	885652	He is listed as day to day.	He is listed as day to day.	42123092	1473013492841	1473013492964	 	32
80998	885652	He is listed as day to day.	He is listed as day to day.	42123182	1473013493860	1473013494019	a	65
80998	885652	He is listed as day to day.	He is listed as day to day.	42123185	1473013494024	1473013494197	s	83
80998	885652	He is listed as day to day.	He is listed as day to day.	42123187	1473013494233	1473013494356	 	32
80998	885652	He is listed as day to day.	He is listed as day to day.	42123189	1473013495568	1473013495725	d	68
80998	885652	He is listed as day to day.	He is listed as day to day.	42123286	1473013495716	1473013495927	a	65
80998	885652	He is listed as day to day.	He is listed as day to day.	42123287	1473013497053	1473013497171	y	89
80998	885652	He is listed as day to day.	He is listed as day to day.	42123289	1473013497329	1473013497404	 	32
80998	885652	He is listed as day to day.	He is listed as day to day.	42123291	1473013499042	1473013499122	t	84
80998	885652	He is listed as day to day.	He is listed as day to day.	42123293	1473013499127	1473013499230	o	79
80998	885652	He is listed as day to day.	He is listed as day to day.	42123296	1473013499326	1473013499426	 	32
80998	885652	He is listed as day to day.	He is listed as day to day.	42123378	1473013500073	1473013500244	d	68
80998	885652	He is listed as day to day.	He is listed as day to day.	42123380	1473013500206	1473013500361	a	65
80998	885652	He is listed as day to day.	He is listed as day to day.	42123382	1473013500338	1473013500482	y	89
80998	885652	He is listed as day to day.	He is listed as day to day.	42123384	1473013500587	1473013500728	 	32
80998	885652	He is listed as day to day.	He is listed as day to day.	42123386	1473013501185	1473013501295	BKSP	8
80998	885652	He is listed as day to day.	He is listed as day to day.	42123387	1473013501958	1473013502034	.	190
80998	885652	He is listed as day to day.	He is listed as day to day.	42123411	1473013502232	1473013502327	]	221
80998	885652	He is listed as day to day.	He is listed as day to day.	42123413	1473013503166	1473013503246	BKSP	8
