PARTICIPANT_ID	TEST_SECTION_ID	SENTENCE	USER_INPUT	KEYSTROKE_ID	PRESS_TIME	RELEASE_TIME	LETTER	KEYCODE
83948	917237	Please call me if you have any questions.	Please call me if you have any question,.s	43634449	1473067728882	1473067729002	SHIFT	16
83948	917237	Please call me if you have any questions.	Please call me if you have any question,.s	43634447	1473067728922	1473067728977	P	80
83948	917237	Please call me if you have any questions.	Please call me if you have any question,.s	43634450	1473067729047	1473067729137	l	76
83948	917237	Please call me if you have any questions.	Please call me if you have any question,.s	43634452	1473067729122	1473067729187	e	69
83948	917237	Please call me if you have any questions.	Please call me if you have any question,.s	43634453	1473067729147	1473067729323	a	65
83948	917237	Please call me if you have any questions.	Please call me if you have any question,.s	43634456	1473067729280	1473067729391	s	83
83948	917237	Please call me if you have any questions.	Please call me if you have any question,.s	43634458	1473067729346	1473067729443	e	69
83948	917237	Please call me if you have any questions.	Please call me if you have any question,.s	43634460	1473067729412	1473067729548	 	32
83948	917237	Please call me if you have any questions.	Please call me if you have any question,.s	43634467	1473067729658	1473067729754	c	67
83948	917237	Please call me if you have any questions.	Please call me if you have any question,.s	43634503	1473067729739	1473067729824	l	65
83948	917237	Please call me if you have any questions.	Please call me if you have any question,.s	43634506	1473067729904	1473067730005	l	76
83948	917237	Please call me if you have any questions.	Please call me if you have any question,.s	43634510	1473067729984	1473067730100	 	32
83948	917237	Please call me if you have any questions.	Please call me if you have any question,.s	43634513	1473067730065	1473067730150	m	77
83948	917237	Please call me if you have any questions.	Please call me if you have any question,.s	43634516	1473067730100	1473067730170	e	69
83948	917237	Please call me if you have any questions.	Please call me if you have any question,.s	43634520	1473067730205	1473067730304	 	32
83948	917237	Please call me if you have any questions.	Please call me if you have any question,.s	43634523	1473067730290	1473067730385	i	73
83948	917237	Please call me if you have any questions.	Please call me if you have any question,.s	43634526	1473067730369	1473067730460	f	70
83948	917237	Please call me if you have any questions.	Please call me if you have any question,.s	43634528	1473067730415	1473067730575	 	32
83948	917237	Please call me if you have any questions.	Please call me if you have any question,.s	43634529	1473067730561	1473067730601	y	89
83948	917237	Please call me if you have any questions.	Please call me if you have any question,.s	43634530	1473067730631	1473067730746	o	79
83948	917237	Please call me if you have any questions.	Please call me if you have any question,.s	43634551	1473067730716	1473067730806	u	85
83948	917237	Please call me if you have any questions.	Please call me if you have any question,.s	43634553	1473067730776	1473067730861	 	32
83948	917237	Please call me if you have any questions.	Please call me if you have any question,.s	43634555	1473067730932	1473067731012	h	72
83948	917237	Please call me if you have any questions.	Please call me if you have any question,.s	43634559	1473067731047	1473067731147	a	65
83948	917237	Please call me if you have any questions.	Please call me if you have any question,.s	43634562	1473067731107	1473067731192	v	86
83948	917237	Please call me if you have any questions.	Please call me if you have any question,.s	43634565	1473067731247	1473067731332	e	69
83948	917237	Please call me if you have any questions.	Please call me if you have any question,.s	43634574	1473067731327	1473067731404	 	32
83948	917237	Please call me if you have any questions.	Please call me if you have any question,.s	43634581	1473067731425	1473067731523	a	65
83948	917237	Please call me if you have any questions.	Please call me if you have any question,.s	43634577	1473067731458	1473067731513	n	78
83948	917237	Please call me if you have any questions.	Please call me if you have any question,.s	43634584	1473067731653	1473067731738	u	89
83948	917237	Please call me if you have any questions.	Please call me if you have any question,.s	43634586	1473067731748	1473067731835	 	32
83948	917237	Please call me if you have any questions.	Please call me if you have any question,.s	43634644	1473067731820	1473067731919	q	81
83948	917237	Please call me if you have any questions.	Please call me if you have any question,.s	43634647	1473067732049	1473067732099	u	85
83948	917237	Please call me if you have any questions.	Please call me if you have any question,.s	43634649	1473067732255	1473067732290	BKSP	8
83948	917237	Please call me if you have any questions.	Please call me if you have any question,.s	43634652	1473067732380	1473067732410	BKSP	8
83948	917237	Please call me if you have any questions.	Please call me if you have any question,.s	43634654	1473067732500	1473067732535	BKSP	8
83948	917237	Please call me if you have any questions.	Please call me if you have any question,.s	43634658	1473067732621	1473067732656	BKSP	8
83948	917237	Please call me if you have any questions.	Please call me if you have any question,.s	43634662	1473067732676	1473067732731	 	32
83948	917237	Please call me if you have any questions.	Please call me if you have any question,.s	43634667	1473067732797	1473067732856	u	85
83948	917237	Please call me if you have any questions.	Please call me if you have any question,.s	43634673	1473067732867	1473067732931	q	81
83948	917237	Please call me if you have any questions.	Please call me if you have any question,.s	43634676	1473067733452	1473067733491	BKSP	8
83948	917237	Please call me if you have any questions.	Please call me if you have any question,.s	43634682	1473067733578	1473067733616	BKSP	8
83948	917237	Please call me if you have any questions.	Please call me if you have any question,.s	43634685	1473067733673	1473067733758	q	81
83948	917237	Please call me if you have any questions.	Please call me if you have any question,.s	43634661	1473067733738	1473067733793	u	85
83948	917237	Please call me if you have any questions.	Please call me if you have any question,.s	43634664	1473067733799	1473067733902	e	69
83948	917237	Please call me if you have any questions.	Please call me if you have any question,.s	43634669	1473067733889	1473067734009	s	83
83948	917237	Please call me if you have any questions.	Please call me if you have any question,.s	43634675	1473067733974	1473067734070	t	84
83948	917237	Please call me if you have any questions.	Please call me if you have any question,.s	43634692	1473067734010	1473067734108	i	73
83948	917237	Please call me if you have any questions.	Please call me if you have any question,.s	43634696	1473067734054	1473067734113	n	79
83948	917237	Please call me if you have any questions.	Please call me if you have any question,.s	43634698	1473067734220	1473067734254	.	188
83948	917237	Please call me if you have any questions.	Please call me if you have any question,.s	43634700	1473067734269	1473067734355	s	83
83948	917245	England star Paul Gascoigne was one of the recipients of the loans.	England star Paul Gascoigne was one of the recipients of the loans.	43634830	1473067738378	1473067738620	SHIFT	16
83948	917245	England star Paul Gascoigne was one of the recipients of the loans.	England star Paul Gascoigne was one of the recipients of the loans.	43634832	1473067738615	1473067738715	E	69
83948	917245	England star Paul Gascoigne was one of the recipients of the loans.	England star Paul Gascoigne was one of the recipients of the loans.	43634834	1473067738810	1473067738896	n	78
83948	917245	England star Paul Gascoigne was one of the recipients of the loans.	England star Paul Gascoigne was one of the recipients of the loans.	43634835	1473067738931	1473067738991	g	71
83948	917245	England star Paul Gascoigne was one of the recipients of the loans.	England star Paul Gascoigne was one of the recipients of the loans.	43634836	1473067739037	1473067739116	l	76
83948	917245	England star Paul Gascoigne was one of the recipients of the loans.	England star Paul Gascoigne was one of the recipients of the loans.	43634838	1473067739117	1473067739231	a	65
83948	917245	England star Paul Gascoigne was one of the recipients of the loans.	England star Paul Gascoigne was one of the recipients of the loans.	43634843	1473067739256	1473067739347	n	78
83948	917245	England star Paul Gascoigne was one of the recipients of the loans.	England star Paul Gascoigne was one of the recipients of the loans.	43634844	1473067739382	1473067739462	d	68
83948	917245	England star Paul Gascoigne was one of the recipients of the loans.	England star Paul Gascoigne was one of the recipients of the loans.	43634845	1473067739463	1473067739572	 	32
83948	917245	England star Paul Gascoigne was one of the recipients of the loans.	England star Paul Gascoigne was one of the recipients of the loans.	43634846	1473067739627	1473067739727	s	83
83948	917245	England star Paul Gascoigne was one of the recipients of the loans.	England star Paul Gascoigne was one of the recipients of the loans.	43634848	1473067739788	1473067739858	t	84
83948	917245	England star Paul Gascoigne was one of the recipients of the loans.	England star Paul Gascoigne was one of the recipients of the loans.	43634892	1473067739893	1473067739997	a	65
83948	917245	England star Paul Gascoigne was one of the recipients of the loans.	England star Paul Gascoigne was one of the recipients of the loans.	43634895	1473067739973	1473067740058	r	82
83948	917245	England star Paul Gascoigne was one of the recipients of the loans.	England star Paul Gascoigne was one of the recipients of the loans.	43634898	1473067740269	1473067740399	 	32
83948	917245	England star Paul Gascoigne was one of the recipients of the loans.	England star Paul Gascoigne was one of the recipients of the loans.	43634900	1473067740571	1473067740690	SHIFT	16
83948	917245	England star Paul Gascoigne was one of the recipients of the loans.	England star Paul Gascoigne was one of the recipients of the loans.	43634903	1473067740610	1473067740690	P	80
83948	917245	England star Paul Gascoigne was one of the recipients of the loans.	England star Paul Gascoigne was one of the recipients of the loans.	43634906	1473067740780	1473067740850	u	65
83948	917245	England star Paul Gascoigne was one of the recipients of the loans.	England star Paul Gascoigne was one of the recipients of the loans.	43634925	1473067740940	1473067741071	l	76
83948	917245	England star Paul Gascoigne was one of the recipients of the loans.	England star Paul Gascoigne was one of the recipients of the loans.	43634929	1473067741027	1473067741141	 	32
83948	917245	England star Paul Gascoigne was one of the recipients of the loans.	England star Paul Gascoigne was one of the recipients of the loans.	43634933	1473067741031	1473067741552	SHIFT	16
83948	917245	England star Paul Gascoigne was one of the recipients of the loans.	England star Paul Gascoigne was one of the recipients of the loans.	43634939	1473067741507	1473067741582	G	71
83948	917245	England star Paul Gascoigne was one of the recipients of the loans.	England star Paul Gascoigne was one of the recipients of the loans.	43634946	1473067741677	1473067741752	a	65
83948	917245	England star Paul Gascoigne was one of the recipients of the loans.	England star Paul Gascoigne was one of the recipients of the loans.	43634968	1473067741722	1473067741843	s	83
83948	917245	England star Paul Gascoigne was one of the recipients of the loans.	England star Paul Gascoigne was one of the recipients of the loans.	43634970	1473067742018	1473067742087	c	67
83948	917245	England star Paul Gascoigne was one of the recipients of the loans.	England star Paul Gascoigne was one of the recipients of the loans.	43634973	1473067742173	1473067742254	o	79
83948	917245	England star Paul Gascoigne was one of the recipients of the loans.	England star Paul Gascoigne was one of the recipients of the loans.	43634979	1473067742304	1473067742400	i	73
83948	917245	England star Paul Gascoigne was one of the recipients of the loans.	England star Paul Gascoigne was one of the recipients of the loans.	43634984	1473067742475	1473067742544	g	71
83948	917245	England star Paul Gascoigne was one of the recipients of the loans.	England star Paul Gascoigne was one of the recipients of the loans.	43634986	1473067742564	1473067742625	n	78
83948	917245	England star Paul Gascoigne was one of the recipients of the loans.	England star Paul Gascoigne was one of the recipients of the loans.	43635002	1473067742710	1473067742790	e	69
83948	917245	England star Paul Gascoigne was one of the recipients of the loans.	England star Paul Gascoigne was one of the recipients of the loans.	43635004	1473067742801	1473067742880	 	32
83948	917245	England star Paul Gascoigne was one of the recipients of the loans.	England star Paul Gascoigne was one of the recipients of the loans.	43635008	1473067742947	1473067743040	w	87
83948	917245	England star Paul Gascoigne was one of the recipients of the loans.	England star Paul Gascoigne was one of the recipients of the loans.	43635015	1473067743061	1473067743146	a	65
83948	917245	England star Paul Gascoigne was one of the recipients of the loans.	England star Paul Gascoigne was one of the recipients of the loans.	43635000	1473067743116	1473067743221	s	83
83948	917245	England star Paul Gascoigne was one of the recipients of the loans.	England star Paul Gascoigne was one of the recipients of the loans.	43635003	1473067743173	1473067743269	 	32
83948	917245	England star Paul Gascoigne was one of the recipients of the loans.	England star Paul Gascoigne was one of the recipients of the loans.	43635006	1473067743269	1473067743361	o	79
83948	917245	England star Paul Gascoigne was one of the recipients of the loans.	England star Paul Gascoigne was one of the recipients of the loans.	43635011	1473067743316	1473067743406	n	78
83948	917245	England star Paul Gascoigne was one of the recipients of the loans.	England star Paul Gascoigne was one of the recipients of the loans.	43635016	1473067743367	1473067743437	e	69
83948	917245	England star Paul Gascoigne was one of the recipients of the loans.	England star Paul Gascoigne was one of the recipients of the loans.	43635021	1473067743447	1473067743576	 	32
83948	917245	England star Paul Gascoigne was one of the recipients of the loans.	England star Paul Gascoigne was one of the recipients of the loans.	43635039	1473067743537	1473067743641	o	79
83948	917245	England star Paul Gascoigne was one of the recipients of the loans.	England star Paul Gascoigne was one of the recipients of the loans.	43635040	1473067743607	1473067743669	f	70
83948	917245	England star Paul Gascoigne was one of the recipients of the loans.	England star Paul Gascoigne was one of the recipients of the loans.	43635041	1473067743661	1473067743741	 	32
83948	917245	England star Paul Gascoigne was one of the recipients of the loans.	England star Paul Gascoigne was one of the recipients of the loans.	43635042	1473067743777	1473067743857	h	84
83948	917245	England star Paul Gascoigne was one of the recipients of the loans.	England star Paul Gascoigne was one of the recipients of the loans.	43635043	1473067743853	1473067743948	e	69
83948	917245	England star Paul Gascoigne was one of the recipients of the loans.	England star Paul Gascoigne was one of the recipients of the loans.	43635044	1473067743918	1473067744043	 	32
83948	917245	England star Paul Gascoigne was one of the recipients of the loans.	England star Paul Gascoigne was one of the recipients of the loans.	43635045	1473067744029	1473067744123	p	80
83948	917245	England star Paul Gascoigne was one of the recipients of the loans.	England star Paul Gascoigne was one of the recipients of the loans.	43635046	1473067744108	1473067744242	a	65
83948	917245	England star Paul Gascoigne was one of the recipients of the loans.	England star Paul Gascoigne was one of the recipients of the loans.	43635047	1473067744208	1473067744268	r	82
83948	917245	England star Paul Gascoigne was one of the recipients of the loans.	England star Paul Gascoigne was one of the recipients of the loans.	43635049	1473067744359	1473067744429	t	84
83948	917245	England star Paul Gascoigne was one of the recipients of the loans.	England star Paul Gascoigne was one of the recipients of the loans.	43635095	1473067744629	1473067744670	BKSP	8
83948	917245	England star Paul Gascoigne was one of the recipients of the loans.	England star Paul Gascoigne was one of the recipients of the loans.	43635099	1473067744760	1473067744805	BKSP	8
83948	917245	England star Paul Gascoigne was one of the recipients of the loans.	England star Paul Gascoigne was one of the recipients of the loans.	43635101	1473067744894	1473067744935	BKSP	8
83948	917245	England star Paul Gascoigne was one of the recipients of the loans.	England star Paul Gascoigne was one of the recipients of the loans.	43635103	1473067745025	1473067745074	BKSP	8
83948	917245	England star Paul Gascoigne was one of the recipients of the loans.	England star Paul Gascoigne was one of the recipients of the loans.	43635105	1473067745186	1473067745271	r	82
83948	917245	England star Paul Gascoigne was one of the recipients of the loans.	England star Paul Gascoigne was one of the recipients of the loans.	43635107	1473067745241	1473067745351	e	69
83948	917245	England star Paul Gascoigne was one of the recipients of the loans.	England star Paul Gascoigne was one of the recipients of the loans.	43635109	1473067745490	1473067745552	c	67
83948	917245	England star Paul Gascoigne was one of the recipients of the loans.	England star Paul Gascoigne was one of the recipients of the loans.	43635110	1473067745556	1473067745622	i	73
83948	917245	England star Paul Gascoigne was one of the recipients of the loans.	England star Paul Gascoigne was one of the recipients of the loans.	43635111	1473067745728	1473067745798	p	80
83948	917245	England star Paul Gascoigne was one of the recipients of the loans.	England star Paul Gascoigne was one of the recipients of the loans.	43635112	1473067745863	1473067745948	i	73
83948	917245	England star Paul Gascoigne was one of the recipients of the loans.	England star Paul Gascoigne was one of the recipients of the loans.	43635113	1473067745963	1473067746043	e	69
83948	917245	England star Paul Gascoigne was one of the recipients of the loans.	England star Paul Gascoigne was one of the recipients of the loans.	43635115	1473067746058	1473067746122	n	78
83948	917245	England star Paul Gascoigne was one of the recipients of the loans.	England star Paul Gascoigne was one of the recipients of the loans.	43635119	1473067746242	1473067746318	t	84
83948	917245	England star Paul Gascoigne was one of the recipients of the loans.	England star Paul Gascoigne was one of the recipients of the loans.	43635123	1473067746338	1473067746453	s	83
83948	917245	England star Paul Gascoigne was one of the recipients of the loans.	England star Paul Gascoigne was one of the recipients of the loans.	43635133	1473067746419	1473067746509	 	32
83948	917245	England star Paul Gascoigne was one of the recipients of the loans.	England star Paul Gascoigne was one of the recipients of the loans.	43635135	1473067746489	1473067746579	o	79
83948	917245	England star Paul Gascoigne was one of the recipients of the loans.	England star Paul Gascoigne was one of the recipients of the loans.	43635139	1473067746533	1473067746599	f	70
83948	917245	England star Paul Gascoigne was one of the recipients of the loans.	England star Paul Gascoigne was one of the recipients of the loans.	43635142	1473067746619	1473067746669	 	32
83948	917245	England star Paul Gascoigne was one of the recipients of the loans.	England star Paul Gascoigne was one of the recipients of the loans.	43635145	1473067746709	1473067746814	t	84
83948	917245	England star Paul Gascoigne was one of the recipients of the loans.	England star Paul Gascoigne was one of the recipients of the loans.	43635149	1473067746730	1473067746825	h	72
83948	917245	England star Paul Gascoigne was one of the recipients of the loans.	England star Paul Gascoigne was one of the recipients of the loans.	43635152	1473067746790	1473067746877	e	69
83948	917245	England star Paul Gascoigne was one of the recipients of the loans.	England star Paul Gascoigne was one of the recipients of the loans.	43635163	1473067746855	1473067746950	 	32
83948	917245	England star Paul Gascoigne was one of the recipients of the loans.	England star Paul Gascoigne was one of the recipients of the loans.	43635157	1473067746905	1473067746945	l	76
83948	917245	England star Paul Gascoigne was one of the recipients of the loans.	England star Paul Gascoigne was one of the recipients of the loans.	43635167	1473067747040	1473067747111	o	79
83948	917245	England star Paul Gascoigne was one of the recipients of the loans.	England star Paul Gascoigne was one of the recipients of the loans.	43635170	1473067747181	1473067747341	a	65
83948	917245	England star Paul Gascoigne was one of the recipients of the loans.	England star Paul Gascoigne was one of the recipients of the loans.	43635172	1473067747271	1473067747350	n	78
83948	917245	England star Paul Gascoigne was one of the recipients of the loans.	England star Paul Gascoigne was one of the recipients of the loans.	43635175	1473067747386	1473067747496	s	83
83948	917245	England star Paul Gascoigne was one of the recipients of the loans.	England star Paul Gascoigne was one of the recipients of the loans.	43635181	1473067747467	1473067747531	.	190
83948	917256	Fares shown are roundtrip.	Fares shown are roundtrip.	43635399	1473067752218	1473067752358	SHIFT	16
83948	917256	Fares shown are roundtrip.	Fares shown are roundtrip.	43635403	1473067752327	1473067752423	F	70
83948	917256	Fares shown are roundtrip.	Fares shown are roundtrip.	43635407	1473067752463	1473067752558	a	65
83948	917256	Fares shown are roundtrip.	Fares shown are roundtrip.	43635411	1473067752547	1473067752674	r	82
83948	917256	Fares shown are roundtrip.	Fares shown are roundtrip.	43635415	1473067752675	1473067752763	e	69
83948	917256	Fares shown are roundtrip.	Fares shown are roundtrip.	43635417	1473067752779	1473067752929	s	83
83948	917256	Fares shown are roundtrip.	Fares shown are roundtrip.	43635456	1473067752935	1473067753090	 	32
83948	917256	Fares shown are roundtrip.	Fares shown are roundtrip.	43635460	1473067753212	1473067753284	s	83
83948	917256	Fares shown are roundtrip.	Fares shown are roundtrip.	43635462	1473067753289	1473067753391	h	72
83948	917256	Fares shown are roundtrip.	Fares shown are roundtrip.	43635465	1473067753350	1473067753441	o	79
83948	917256	Fares shown are roundtrip.	Fares shown are roundtrip.	43635467	1473067753471	1473067753550	w	87
83948	917256	Fares shown are roundtrip.	Fares shown are roundtrip.	43635452	1473067753581	1473067753681	n	78
83948	917256	Fares shown are roundtrip.	Fares shown are roundtrip.	43635457	1473067753706	1473067753823	 	32
83948	917256	Fares shown are roundtrip.	Fares shown are roundtrip.	43635459	1473067753806	1473067753927	a	65
83948	917256	Fares shown are roundtrip.	Fares shown are roundtrip.	43635463	1473067753899	1473067753987	r	82
83948	917256	Fares shown are roundtrip.	Fares shown are roundtrip.	43635484	1473067753967	1473067754046	e	69
83948	917256	Fares shown are roundtrip.	Fares shown are roundtrip.	43635487	1473067753992	1473067754116	 	32
83948	917256	Fares shown are roundtrip.	Fares shown are roundtrip.	43635489	1473067754141	1473067754238	r	82
83948	917256	Fares shown are roundtrip.	Fares shown are roundtrip.	43635491	1473067754242	1473067754343	o	79
83948	917256	Fares shown are roundtrip.	Fares shown are roundtrip.	43635492	1473067754324	1473067754388	u	85
83948	917256	Fares shown are roundtrip.	Fares shown are roundtrip.	43635493	1473067754483	1473067754542	n	78
83948	917256	Fares shown are roundtrip.	Fares shown are roundtrip.	43635499	1473067754557	1473067754632	d	68
83948	917256	Fares shown are roundtrip.	Fares shown are roundtrip.	43635503	1473067754738	1473067754794	t	84
83948	917256	Fares shown are roundtrip.	Fares shown are roundtrip.	43635507	1473067754878	1473067754963	r	82
83948	917256	Fares shown are roundtrip.	Fares shown are roundtrip.	43635514	1473067754928	1473067755039	i	73
83948	917256	Fares shown are roundtrip.	Fares shown are roundtrip.	43635522	1473067755009	1473067755080	p	80
83948	917256	Fares shown are roundtrip.	Fares shown are roundtrip.	43635523	1473067755195	1473067755251	.	190
83948	917262	If we don't get it, could be trouble.	If we don't get it, could be trouble.	43635805	1473067761565	1473067761693	SHIFT	16
83948	917262	If we don't get it, could be trouble.	If we don't get it, could be trouble.	43635807	1473067761645	1473067761711	I	73
83948	917262	If we don't get it, could be trouble.	If we don't get it, could be trouble.	43635809	1473067761731	1473067761806	f	70
83948	917262	If we don't get it, could be trouble.	If we don't get it, could be trouble.	43635812	1473067761771	1473067761881	 	32
83948	917262	If we don't get it, could be trouble.	If we don't get it, could be trouble.	43635816	1473067761921	1473067762054	w	87
83948	917262	If we don't get it, could be trouble.	If we don't get it, could be trouble.	43635823	1473067762011	1473067762091	e	69
83948	917262	If we don't get it, could be trouble.	If we don't get it, could be trouble.	43635824	1473067762063	1473067762141	 	32
83948	917262	If we don't get it, could be trouble.	If we don't get it, could be trouble.	43635825	1473067762206	1473067762281	d	68
83948	917262	If we don't get it, could be trouble.	If we don't get it, could be trouble.	43635826	1473067762272	1473067762351	o	79
83948	917262	If we don't get it, could be trouble.	If we don't get it, could be trouble.	43635827	1473067762325	1473067762381	n	78
83948	917262	If we don't get it, could be trouble.	If we don't get it, could be trouble.	43635828	1473067762457	1473067762547	'	222
83948	917262	If we don't get it, could be trouble.	If we don't get it, could be trouble.	43635843	1473067762532	1473067762618	t	84
83948	917262	If we don't get it, could be trouble.	If we don't get it, could be trouble.	43635846	1473067762594	1473067762713	 	32
83948	917262	If we don't get it, could be trouble.	If we don't get it, could be trouble.	43635850	1473067762743	1473067762788	g	71
83948	917262	If we don't get it, could be trouble.	If we don't get it, could be trouble.	43635855	1473067762828	1473067762927	e	69
83948	917262	If we don't get it, could be trouble.	If we don't get it, could be trouble.	43635858	1473067762895	1473067762958	t	84
83948	917262	If we don't get it, could be trouble.	If we don't get it, could be trouble.	43635881	1473067762937	1473067763054	 	32
83948	917262	If we don't get it, could be trouble.	If we don't get it, could be trouble.	43635889	1473067763039	1473067763138	i	73
83948	917262	If we don't get it, could be trouble.	If we don't get it, could be trouble.	43635885	1473067763064	1473067763138	t	84
83948	917262	If we don't get it, could be trouble.	If we don't get it, could be trouble.	43635892	1473067763263	1473067763369	,	188
83948	917262	If we don't get it, could be trouble.	If we don't get it, could be trouble.	43635895	1473067763349	1473067763470	 	32
83948	917262	If we don't get it, could be trouble.	If we don't get it, could be trouble.	43635899	1473067763575	1473067763670	c	67
83948	917262	If we don't get it, could be trouble.	If we don't get it, could be trouble.	43635897	1473067763619	1473067763710	o	79
83948	917262	If we don't get it, could be trouble.	If we don't get it, could be trouble.	43635900	1473067763685	1473067763792	u	85
83948	917262	If we don't get it, could be trouble.	If we don't get it, could be trouble.	43635906	1473067763792	1473067763895	l	76
83948	917262	If we don't get it, could be trouble.	If we don't get it, could be trouble.	43635903	1473067763816	1473067763871	d	68
83948	917262	If we don't get it, could be trouble.	If we don't get it, could be trouble.	43635909	1473067763866	1473067763935	 	32
83948	917262	If we don't get it, could be trouble.	If we don't get it, could be trouble.	43635913	1473067763956	1473067764006	b	66
83948	917262	If we don't get it, could be trouble.	If we don't get it, could be trouble.	43635949	1473067764086	1473067764151	e	69
83948	917262	If we don't get it, could be trouble.	If we don't get it, could be trouble.	43635953	1473067764128	1473067764252	 	32
83948	917262	If we don't get it, could be trouble.	If we don't get it, could be trouble.	43635957	1473067764743	1473067764802	t	84
83948	917262	If we don't get it, could be trouble.	If we don't get it, could be trouble.	43635959	1473067764868	1473067764943	o	82
83948	917262	If we don't get it, could be trouble.	If we don't get it, could be trouble.	43635969	1473067764928	1473067765013	u	85
83948	917262	If we don't get it, could be trouble.	If we don't get it, could be trouble.	43635970	1473067765064	1473067765119	b	66
83948	917262	If we don't get it, could be trouble.	If we don't get it, could be trouble.	43635971	1473067765116	1473067765179	l	76
83948	917262	If we don't get it, could be trouble.	If we don't get it, could be trouble.	43635972	1473067765219	1473067765283	e	69
83948	917262	If we don't get it, could be trouble.	If we don't get it, could be trouble.	43635973	1473067765293	1473067765338	.	190
83948	917268	I'm looking forward to the long weekend!	I'm looking forward to the long weekend!	43636127	1473067769369	1473067769519	SHIFT	16
83948	917268	I'm looking forward to the long weekend!	I'm looking forward to the long weekend!	43636125	1473067769439	1473067769493	I	73
83948	917268	I'm looking forward to the long weekend!	I'm looking forward to the long weekend!	43636129	1473067769569	1473067769650	'	222
83948	917268	I'm looking forward to the long weekend!	I'm looking forward to the long weekend!	43636132	1473067769620	1473067769730	m	77
83948	917268	I'm looking forward to the long weekend!	I'm looking forward to the long weekend!	43636135	1473067769706	1473067769809	 	32
83948	917268	I'm looking forward to the long weekend!	I'm looking forward to the long weekend!	43636155	1473067769803	1473067769836	l	76
83948	917268	I'm looking forward to the long weekend!	I'm looking forward to the long weekend!	43636160	1473067769940	1473067769975	o	79
83948	917268	I'm looking forward to the long weekend!	I'm looking forward to the long weekend!	43636165	1473067770056	1473067770156	o	79
83948	917268	I'm looking forward to the long weekend!	I'm looking forward to the long weekend!	43636170	1473067770156	1473067770221	k	75
83948	917268	I'm looking forward to the long weekend!	I'm looking forward to the long weekend!	43636174	1473067770310	1473067770405	i	73
83948	917268	I'm looking forward to the long weekend!	I'm looking forward to the long weekend!	43636182	1473067770365	1473067770471	n	78
83948	917268	I'm looking forward to the long weekend!	I'm looking forward to the long weekend!	43636184	1473067770430	1473067770511	g	71
83948	917268	I'm looking forward to the long weekend!	I'm looking forward to the long weekend!	43636186	1473067770476	1473067770587	 	32
83948	917268	I'm looking forward to the long weekend!	I'm looking forward to the long weekend!	43636187	1473067770626	1473067770696	f	70
83948	917268	I'm looking forward to the long weekend!	I'm looking forward to the long weekend!	43636188	1473067770707	1473067770801	o	79
83948	917268	I'm looking forward to the long weekend!	I'm looking forward to the long weekend!	43636189	1473067770821	1473067770912	r	82
83948	917268	I'm looking forward to the long weekend!	I'm looking forward to the long weekend!	43636194	1473067770932	1473067771027	w	87
83948	917268	I'm looking forward to the long weekend!	I'm looking forward to the long weekend!	43636198	1473067771007	1473067771128	a	65
83948	917268	I'm looking forward to the long weekend!	I'm looking forward to the long weekend!	43636202	1473067771102	1473067771193	r	82
83948	917268	I'm looking forward to the long weekend!	I'm looking forward to the long weekend!	43636205	1473067771255	1473067771324	d	68
83948	917268	I'm looking forward to the long weekend!	I'm looking forward to the long weekend!	43636208	1473067771354	1473067771474	 	32
83948	917268	I'm looking forward to the long weekend!	I'm looking forward to the long weekend!	43636214	1473067771498	1473067771594	t	84
83948	917268	I'm looking forward to the long weekend!	I'm looking forward to the long weekend!	43636217	1473067771554	1473067771639	o	79
83948	917268	I'm looking forward to the long weekend!	I'm looking forward to the long weekend!	43636221	1473067771619	1473067771706	 	32
83948	917268	I'm looking forward to the long weekend!	I'm looking forward to the long weekend!	43636227	1473067771695	1473067771789	t	84
83948	917268	I'm looking forward to the long weekend!	I'm looking forward to the long weekend!	43636234	1473067771801	1473067771875	h	72
83948	917268	I'm looking forward to the long weekend!	I'm looking forward to the long weekend!	43636243	1473067771860	1473067771924	e	69
83948	917268	I'm looking forward to the long weekend!	I'm looking forward to the long weekend!	43636246	1473067771905	1473067772009	 	32
83948	917268	I'm looking forward to the long weekend!	I'm looking forward to the long weekend!	43636249	1473067771980	1473067772019	l	76
83948	917268	I'm looking forward to the long weekend!	I'm looking forward to the long weekend!	43636250	1473067772111	1473067772220	o	79
83948	917268	I'm looking forward to the long weekend!	I'm looking forward to the long weekend!	43636251	1473067772181	1473067772299	n	78
83948	917268	I'm looking forward to the long weekend!	I'm looking forward to the long weekend!	43636253	1473067772246	1473067772315	g	71
83948	917268	I'm looking forward to the long weekend!	I'm looking forward to the long weekend!	43636255	1473067772321	1473067772466	 	32
83948	917268	I'm looking forward to the long weekend!	I'm looking forward to the long weekend!	43636258	1473067772436	1473067772552	w	87
83948	917268	I'm looking forward to the long weekend!	I'm looking forward to the long weekend!	43636260	1473067772510	1473067772581	e	69
83948	917268	I'm looking forward to the long weekend!	I'm looking forward to the long weekend!	43636265	1473067772672	1473067772726	e	69
83948	917268	I'm looking forward to the long weekend!	I'm looking forward to the long weekend!	43636287	1473067772721	1473067772791	k	75
83948	917268	I'm looking forward to the long weekend!	I'm looking forward to the long weekend!	43636289	1473067772822	1473067772902	e	69
83948	917268	I'm looking forward to the long weekend!	I'm looking forward to the long weekend!	43636290	1473067772873	1473067772952	n	78
83948	917268	I'm looking forward to the long weekend!	I'm looking forward to the long weekend!	43636291	1473067773028	1473067773122	d	68
83948	917268	I'm looking forward to the long weekend!	I'm looking forward to the long weekend!	43636292	1473067773168	1473067773449	SHIFT	16
83948	917268	I'm looking forward to the long weekend!	I'm looking forward to the long weekend!	43636294	1473067773369	1473067773449	!	49
83948	917275	Scotty and I will be in NYC.	Scotty and I will be in NYC.	43636444	1473067777839	1473067778004	SHIFT	16
83948	917275	Scotty and I will be in NYC.	Scotty and I will be in NYC.	43636446	1473067777945	1473067778034	S	83
83948	917275	Scotty and I will be in NYC.	Scotty and I will be in NYC.	43636447	1473067778115	1473067778196	c	67
83948	917275	Scotty and I will be in NYC.	Scotty and I will be in NYC.	43636448	1473067778164	1473067778239	o	79
83948	917275	Scotty and I will be in NYC.	Scotty and I will be in NYC.	43636449	1473067778315	1473067778365	t	84
83948	917275	Scotty and I will be in NYC.	Scotty and I will be in NYC.	43636451	1473067778450	1473067778505	t	84
83948	917275	Scotty and I will be in NYC.	Scotty and I will be in NYC.	43636456	1473067778510	1473067778585	y	89
83948	917275	Scotty and I will be in NYC.	Scotty and I will be in NYC.	43636458	1473067778593	1473067778652	 	32
83948	917275	Scotty and I will be in NYC.	Scotty and I will be in NYC.	43636462	1473067778690	1473067778776	a	65
83948	917275	Scotty and I will be in NYC.	Scotty and I will be in NYC.	43636466	1473067778757	1473067778826	n	78
83948	917275	Scotty and I will be in NYC.	Scotty and I will be in NYC.	43636473	1473067778822	1473067778902	d	68
83948	917275	Scotty and I will be in NYC.	Scotty and I will be in NYC.	43636475	1473067778911	1473067778991	 	32
83948	917275	Scotty and I will be in NYC.	Scotty and I will be in NYC.	43636478	1473067778967	1473067779077	SHIFT	16
83948	917275	Scotty and I will be in NYC.	Scotty and I will be in NYC.	43636482	1473067779042	1473067779131	I	73
83948	917275	Scotty and I will be in NYC.	Scotty and I will be in NYC.	43636485	1473067779110	1473067779222	 	32
83948	917275	Scotty and I will be in NYC.	Scotty and I will be in NYC.	43636487	1473067779208	1473067779302	w	87
83948	917275	Scotty and I will be in NYC.	Scotty and I will be in NYC.	43636499	1473067779275	1473067779367	e	69
83948	917275	Scotty and I will be in NYC.	Scotty and I will be in NYC.	43636502	1473067779639	1473067779678	BKSP	8
83948	917275	Scotty and I will be in NYC.	Scotty and I will be in NYC.	43636506	1473067779802	1473067779838	i	73
83948	917275	Scotty and I will be in NYC.	Scotty and I will be in NYC.	43636513	1473067779924	1473067779969	l	76
83948	917275	Scotty and I will be in NYC.	Scotty and I will be in NYC.	43636519	1473067780049	1473067780140	l	76
83948	917275	Scotty and I will be in NYC.	Scotty and I will be in NYC.	43636523	1473067780110	1473067780210	 	32
83948	917275	Scotty and I will be in NYC.	Scotty and I will be in NYC.	43636533	1473067780180	1473067780245	b	66
83948	917275	Scotty and I will be in NYC.	Scotty and I will be in NYC.	43636534	1473067780324	1473067780400	e	69
83948	917275	Scotty and I will be in NYC.	Scotty and I will be in NYC.	43636536	1473067780396	1473067780496	 	32
83948	917275	Scotty and I will be in NYC.	Scotty and I will be in NYC.	43636538	1473067780497	1473067780616	i	73
83948	917275	Scotty and I will be in NYC.	Scotty and I will be in NYC.	43636540	1473067780570	1473067780651	n	78
83948	917275	Scotty and I will be in NYC.	Scotty and I will be in NYC.	43636554	1473067780621	1473067780705	 	32
83948	917275	Scotty and I will be in NYC.	Scotty and I will be in NYC.	43636566	1473067780696	1473067781227	SHIFT	16
83948	917275	Scotty and I will be in NYC.	Scotty and I will be in NYC.	43636556	1473067780781	1473067780836	N	78
83948	917275	Scotty and I will be in NYC.	Scotty and I will be in NYC.	43636560	1473067780957	1473067781016	Y	89
83948	917275	Scotty and I will be in NYC.	Scotty and I will be in NYC.	43636563	1473067781131	1473067781217	C	67
83948	917275	Scotty and I will be in NYC.	Scotty and I will be in NYC.	43636568	1473067781418	1473067781478	.	190
83948	917281	I'll get with him by phone to confirm.	I'll get with him by phone to confirm.	43636715	1473067785336	1473067785477	SHIFT	16
83948	917281	I'll get with him by phone to confirm.	I'll get with him by phone to confirm.	43636710	1473067785403	1473067785467	I	73
83948	917281	I'll get with him by phone to confirm.	I'll get with him by phone to confirm.	43636720	1473067785552	1473067785602	'	222
83948	917281	I'll get with him by phone to confirm.	I'll get with him by phone to confirm.	43636724	1473067785672	1473067785722	l	76
83948	917281	I'll get with him by phone to confirm.	I'll get with him by phone to confirm.	43636725	1473067785792	1473067785849	l	76
83948	917281	I'll get with him by phone to confirm.	I'll get with him by phone to confirm.	43636726	1473067785878	1473067786003	 	32
83948	917281	I'll get with him by phone to confirm.	I'll get with him by phone to confirm.	43636730	1473067785949	1473067786014	g	71
83948	917281	I'll get with him by phone to confirm.	I'll get with him by phone to confirm.	43636735	1473067786084	1473067786160	e	69
83948	917281	I'll get with him by phone to confirm.	I'll get with him by phone to confirm.	43636739	1473067786123	1473067786193	t	84
83948	917281	I'll get with him by phone to confirm.	I'll get with him by phone to confirm.	43636743	1473067786160	1473067786275	 	32
83948	917281	I'll get with him by phone to confirm.	I'll get with him by phone to confirm.	43636746	1473067786275	1473067786374	w	87
83948	917281	I'll get with him by phone to confirm.	I'll get with him by phone to confirm.	43636749	1473067786340	1473067786384	i	73
83948	917281	I'll get with him by phone to confirm.	I'll get with him by phone to confirm.	43636753	1473067786429	1473067786502	t	84
83948	917281	I'll get with him by phone to confirm.	I'll get with him by phone to confirm.	43636756	1473067786454	1473067786530	h	72
83948	917281	I'll get with him by phone to confirm.	I'll get with him by phone to confirm.	43636760	1473067786564	1473067786640	 	32
83948	917281	I'll get with him by phone to confirm.	I'll get with him by phone to confirm.	43636764	1473067786624	1473067786716	h	72
83948	917281	I'll get with him by phone to confirm.	I'll get with him by phone to confirm.	43636770	1473067786731	1473067786855	i	73
83948	917281	I'll get with him by phone to confirm.	I'll get with him by phone to confirm.	43636784	1473067786821	1473067786916	m	77
83948	917281	I'll get with him by phone to confirm.	I'll get with him by phone to confirm.	43636785	1473067786871	1473067786991	 	32
83948	917281	I'll get with him by phone to confirm.	I'll get with him by phone to confirm.	43636787	1473067787232	1473067787302	b	66
83948	917281	I'll get with him by phone to confirm.	I'll get with him by phone to confirm.	43636788	1473067787306	1473067787396	y	89
83948	917281	I'll get with him by phone to confirm.	I'll get with him by phone to confirm.	43636790	1473067787372	1473067787441	 	32
83948	917281	I'll get with him by phone to confirm.	I'll get with him by phone to confirm.	43636792	1473067787653	1473067787718	p	80
83948	917281	I'll get with him by phone to confirm.	I'll get with him by phone to confirm.	43636815	1473067787719	1473067787823	h	72
83948	917281	I'll get with him by phone to confirm.	I'll get with him by phone to confirm.	43636816	1473067787832	1473067787940	o	79
83948	917281	I'll get with him by phone to confirm.	I'll get with him by phone to confirm.	43636818	1473067787928	1473067788003	n	78
83948	917281	I'll get with him by phone to confirm.	I'll get with him by phone to confirm.	43636820	1473067788069	1473067788158	e	69
83948	917281	I'll get with him by phone to confirm.	I'll get with him by phone to confirm.	43636822	1473067788320	1473067788449	 	32
83948	917281	I'll get with him by phone to confirm.	I'll get with him by phone to confirm.	43636830	1473067788494	1473067788574	t	84
83948	917281	I'll get with him by phone to confirm.	I'll get with him by phone to confirm.	43636832	1473067788548	1473067788634	o	79
83948	917281	I'll get with him by phone to confirm.	I'll get with him by phone to confirm.	43636834	1473067788599	1473067788715	 	32
83948	917281	I'll get with him by phone to confirm.	I'll get with him by phone to confirm.	43636836	1473067788782	1473067788846	c	67
83948	917281	I'll get with him by phone to confirm.	I'll get with him by phone to confirm.	43636838	1473067788847	1473067788915	o	79
83948	917281	I'll get with him by phone to confirm.	I'll get with him by phone to confirm.	43636846	1473067788896	1473067788965	n	78
83948	917281	I'll get with him by phone to confirm.	I'll get with him by phone to confirm.	43636848	1473067788987	1473067789045	f	70
83948	917281	I'll get with him by phone to confirm.	I'll get with him by phone to confirm.	43636851	1473067789075	1473067789121	i	73
83948	917281	I'll get with him by phone to confirm.	I'll get with him by phone to confirm.	43636853	1473067789141	1473067789201	r	82
83948	917281	I'll get with him by phone to confirm.	I'll get with him by phone to confirm.	43636856	1473067789206	1473067789256	m	77
83948	917281	I'll get with him by phone to confirm.	I'll get with him by phone to confirm.	43636861	1473067789326	1473067789372	.	190
83948	917289	Please send me an email to let me know.	Please send me an email to let me know.	43637027	1473067793431	1473067793551	SHIFT	16
83948	917289	Please send me an email to let me know.	Please send me an email to let me know.	43637025	1473067793506	1473067793546	P	80
83948	917289	Please send me an email to let me know.	Please send me an email to let me know.	43637032	1473067793622	1473067793701	l	76
83948	917289	Please send me an email to let me know.	Please send me an email to let me know.	43637035	1473067793651	1473067793742	e	69
83948	917289	Please send me an email to let me know.	Please send me an email to let me know.	43637037	1473067793729	1473067793842	a	65
83948	917289	Please send me an email to let me know.	Please send me an email to let me know.	43637038	1473067793808	1473067793893	s	83
83948	917289	Please send me an email to let me know.	Please send me an email to let me know.	43637039	1473067793852	1473067793917	e	69
83948	917289	Please send me an email to let me know.	Please send me an email to let me know.	43637040	1473067793888	1473067793992	 	32
83948	917289	Please send me an email to let me know.	Please send me an email to let me know.	43637041	1473067794002	1473067794113	s	83
83948	917289	Please send me an email to let me know.	Please send me an email to let me know.	43637042	1473067794077	1473067794168	e	69
83948	917289	Please send me an email to let me know.	Please send me an email to let me know.	43637058	1473067794143	1473067794218	n	78
83948	917289	Please send me an email to let me know.	Please send me an email to let me know.	43637062	1473067794273	1473067794350	d	68
83948	917289	Please send me an email to let me know.	Please send me an email to let me know.	43637067	1473067794344	1473067794433	 	32
83948	917289	Please send me an email to let me know.	Please send me an email to let me know.	43637073	1473067794399	1473067794468	m	77
83948	917289	Please send me an email to let me know.	Please send me an email to let me know.	43637077	1473067794458	1473067794519	e	69
83948	917289	Please send me an email to let me know.	Please send me an email to let me know.	43637080	1473067794559	1473067794645	 	32
83948	917289	Please send me an email to let me know.	Please send me an email to let me know.	43637089	1473067794624	1473067794759	a	65
83948	917289	Please send me an email to let me know.	Please send me an email to let me know.	43637091	1473067794689	1473067794789	n	78
83948	917289	Please send me an email to let me know.	Please send me an email to let me know.	43637093	1473067794804	1473067794919	 	32
83948	917289	Please send me an email to let me know.	Please send me an email to let me know.	43637095	1473067794977	1473067795065	e	69
83948	917289	Please send me an email to let me know.	Please send me an email to let me know.	43637097	1473067795036	1473067795120	m	77
83948	917289	Please send me an email to let me know.	Please send me an email to let me know.	43637099	1473067795141	1473067795230	a	65
83948	917289	Please send me an email to let me know.	Please send me an email to let me know.	43637122	1473067795240	1473067795321	i	73
83948	917289	Please send me an email to let me know.	Please send me an email to let me know.	43637130	1473067795381	1473067795484	l	76
83948	917289	Please send me an email to let me know.	Please send me an email to let me know.	43637137	1473067795461	1473067795566	 	32
83948	917289	Please send me an email to let me know.	Please send me an email to let me know.	43637145	1473067795582	1473067795661	t	84
83948	917289	Please send me an email to let me know.	Please send me an email to let me know.	43637158	1473067795637	1473067795709	o	79
83948	917289	Please send me an email to let me know.	Please send me an email to let me know.	43637161	1473067795697	1473067795807	 	32
83948	917289	Please send me an email to let me know.	Please send me an email to let me know.	43637164	1473067795788	1473067795863	k	75
83948	917289	Please send me an email to let me know.	Please send me an email to let me know.	43637167	1473067796093	1473067796139	BKSP	8
83948	917289	Please send me an email to let me know.	Please send me an email to let me know.	43637170	1473067796293	1473067796344	l	76
83948	917289	Please send me an email to let me know.	Please send me an email to let me know.	43637173	1473067796353	1473067796458	e	69
83948	917289	Please send me an email to let me know.	Please send me an email to let me know.	43637176	1473067796418	1473067796503	t	84
83948	917289	Please send me an email to let me know.	Please send me an email to let me know.	43637178	1473067796463	1473067796573	 	32
83948	917289	Please send me an email to let me know.	Please send me an email to let me know.	43637181	1473067796543	1473067796639	m	77
83948	917289	Please send me an email to let me know.	Please send me an email to let me know.	43637185	1473067796649	1473067796710	e	69
83948	917289	Please send me an email to let me know.	Please send me an email to let me know.	43637191	1473067796714	1473067796849	 	32
83948	917289	Please send me an email to let me know.	Please send me an email to let me know.	43637199	1473067796800	1473067796884	k	75
83948	917289	Please send me an email to let me know.	Please send me an email to let me know.	43637205	1473067796859	1473067796965	n	78
83948	917289	Please send me an email to let me know.	Please send me an email to let me know.	43637209	1473067796946	1473067797010	o	79
83948	917289	Please send me an email to let me know.	Please send me an email to let me know.	43637213	1473067796979	1473067797045	w	87
83948	917289	Please send me an email to let me know.	Please send me an email to let me know.	43637222	1473067797116	1473067797160	.	190
83948	917295	Pilot Nick Young said communications at Sanaa airport were excellent.	Pilot Nick Young said communications at Sanaa airport were excellent.	43637714	1473067807942	1473067808115	SHIFT	16
83948	917295	Pilot Nick Young said communications at Sanaa airport were excellent.	Pilot Nick Young said communications at Sanaa airport were excellent.	43637711	1473067808062	1473067808113	P	80
83948	917295	Pilot Nick Young said communications at Sanaa airport were excellent.	Pilot Nick Young said communications at Sanaa airport were excellent.	43637717	1473067808201	1473067808272	i	73
83948	917295	Pilot Nick Young said communications at Sanaa airport were excellent.	Pilot Nick Young said communications at Sanaa airport were excellent.	43637722	1473067808338	1473067808382	l	76
83948	917295	Pilot Nick Young said communications at Sanaa airport were excellent.	Pilot Nick Young said communications at Sanaa airport were excellent.	43637725	1473067808487	1473067808537	o	79
83948	917295	Pilot Nick Young said communications at Sanaa airport were excellent.	Pilot Nick Young said communications at Sanaa airport were excellent.	43637727	1473067808638	1473067808703	t	84
83948	917295	Pilot Nick Young said communications at Sanaa airport were excellent.	Pilot Nick Young said communications at Sanaa airport were excellent.	43637746	1473067808678	1473067808758	 	32
83948	917295	Pilot Nick Young said communications at Sanaa airport were excellent.	Pilot Nick Young said communications at Sanaa airport were excellent.	43637749	1473067808808	1473067808913	SHIFT	16
83948	917295	Pilot Nick Young said communications at Sanaa airport were excellent.	Pilot Nick Young said communications at Sanaa airport were excellent.	43637753	1473067808843	1473067808913	N	78
83948	917295	Pilot Nick Young said communications at Sanaa airport were excellent.	Pilot Nick Young said communications at Sanaa airport were excellent.	43637758	1473067808996	1473067809054	i	73
83948	917295	Pilot Nick Young said communications at Sanaa airport were excellent.	Pilot Nick Young said communications at Sanaa airport were excellent.	43637763	1473067809109	1473067809191	c	67
83948	917295	Pilot Nick Young said communications at Sanaa airport were excellent.	Pilot Nick Young said communications at Sanaa airport were excellent.	43637767	1473067809174	1473067809239	k	75
83948	917295	Pilot Nick Young said communications at Sanaa airport were excellent.	Pilot Nick Young said communications at Sanaa airport were excellent.	43637771	1473067809249	1473067809424	 	32
83948	917295	Pilot Nick Young said communications at Sanaa airport were excellent.	Pilot Nick Young said communications at Sanaa airport were excellent.	43637773	1473067809319	1473067809449	SHIFT	16
83948	917295	Pilot Nick Young said communications at Sanaa airport were excellent.	Pilot Nick Young said communications at Sanaa airport were excellent.	43637775	1473067809406	1473067809454	Y	89
83948	917295	Pilot Nick Young said communications at Sanaa airport were excellent.	Pilot Nick Young said communications at Sanaa airport were excellent.	43637776	1473067809494	1473067809585	o	79
83948	917295	Pilot Nick Young said communications at Sanaa airport were excellent.	Pilot Nick Young said communications at Sanaa airport were excellent.	43637778	1473067809571	1473067809615	u	85
83948	917295	Pilot Nick Young said communications at Sanaa airport were excellent.	Pilot Nick Young said communications at Sanaa airport were excellent.	43637780	1473067809706	1473067809786	n	78
83948	917295	Pilot Nick Young said communications at Sanaa airport were excellent.	Pilot Nick Young said communications at Sanaa airport were excellent.	43637785	1473067809786	1473067809855	g	71
83948	917295	Pilot Nick Young said communications at Sanaa airport were excellent.	Pilot Nick Young said communications at Sanaa airport were excellent.	43637819	1473067809845	1473067809971	 	32
83948	917295	Pilot Nick Young said communications at Sanaa airport were excellent.	Pilot Nick Young said communications at Sanaa airport were excellent.	43637823	1473067810029	1473067810076	a	65
83948	917295	Pilot Nick Young said communications at Sanaa airport were excellent.	Pilot Nick Young said communications at Sanaa airport were excellent.	43637825	1473067810056	1473067810196	s	83
83948	917295	Pilot Nick Young said communications at Sanaa airport were excellent.	Pilot Nick Young said communications at Sanaa airport were excellent.	43637827	1473067810573	1473067810607	BKSP	8
83948	917295	Pilot Nick Young said communications at Sanaa airport were excellent.	Pilot Nick Young said communications at Sanaa airport were excellent.	43637829	1473067810693	1473067810728	BKSP	8
83948	917295	Pilot Nick Young said communications at Sanaa airport were excellent.	Pilot Nick Young said communications at Sanaa airport were excellent.	43637833	1473067810729	1473067810823	s	83
83948	917295	Pilot Nick Young said communications at Sanaa airport were excellent.	Pilot Nick Young said communications at Sanaa airport were excellent.	43637836	1473067810798	1473067810888	a	65
83948	917295	Pilot Nick Young said communications at Sanaa airport were excellent.	Pilot Nick Young said communications at Sanaa airport were excellent.	43637840	1473067810848	1473067810918	i	73
83948	917295	Pilot Nick Young said communications at Sanaa airport were excellent.	Pilot Nick Young said communications at Sanaa airport were excellent.	43637842	1473067810962	1473067811043	d	68
83948	917295	Pilot Nick Young said communications at Sanaa airport were excellent.	Pilot Nick Young said communications at Sanaa airport were excellent.	43637846	1473067811028	1473067811120	 	32
83948	917295	Pilot Nick Young said communications at Sanaa airport were excellent.	Pilot Nick Young said communications at Sanaa airport were excellent.	43637849	1473067811209	1473067811289	c	67
83948	917295	Pilot Nick Young said communications at Sanaa airport were excellent.	Pilot Nick Young said communications at Sanaa airport were excellent.	43637889	1473067811234	1473067811299	o	79
83948	917295	Pilot Nick Young said communications at Sanaa airport were excellent.	Pilot Nick Young said communications at Sanaa airport were excellent.	43637891	1473067811283	1473067811348	m	77
83948	917295	Pilot Nick Young said communications at Sanaa airport were excellent.	Pilot Nick Young said communications at Sanaa airport were excellent.	43637894	1473067811425	1473067811464	m	77
83948	917295	Pilot Nick Young said communications at Sanaa airport were excellent.	Pilot Nick Young said communications at Sanaa airport were excellent.	43637897	1473067811735	1473067811825	u	85
83948	917295	Pilot Nick Young said communications at Sanaa airport were excellent.	Pilot Nick Young said communications at Sanaa airport were excellent.	43637901	1473067811919	1473067811976	n	78
83948	917295	Pilot Nick Young said communications at Sanaa airport were excellent.	Pilot Nick Young said communications at Sanaa airport were excellent.	43637908	1473067812146	1473067812211	i	73
83948	917295	Pilot Nick Young said communications at Sanaa airport were excellent.	Pilot Nick Young said communications at Sanaa airport were excellent.	43637912	1473067812407	1473067812472	c	67
83948	917295	Pilot Nick Young said communications at Sanaa airport were excellent.	Pilot Nick Young said communications at Sanaa airport were excellent.	43637903	1473067812484	1473067812602	a	65
83948	917295	Pilot Nick Young said communications at Sanaa airport were excellent.	Pilot Nick Young said communications at Sanaa airport were excellent.	43637907	1473067812582	1473067812652	t	84
83948	917295	Pilot Nick Young said communications at Sanaa airport were excellent.	Pilot Nick Young said communications at Sanaa airport were excellent.	43637911	1473067812617	1473067812732	i	73
83948	917295	Pilot Nick Young said communications at Sanaa airport were excellent.	Pilot Nick Young said communications at Sanaa airport were excellent.	43637969	1473067812658	1473067812747	o	79
83948	917295	Pilot Nick Young said communications at Sanaa airport were excellent.	Pilot Nick Young said communications at Sanaa airport were excellent.	43637970	1473067812702	1473067812772	n	78
83948	917295	Pilot Nick Young said communications at Sanaa airport were excellent.	Pilot Nick Young said communications at Sanaa airport were excellent.	43637972	1473067812777	1473067812868	s	83
83948	917295	Pilot Nick Young said communications at Sanaa airport were excellent.	Pilot Nick Young said communications at Sanaa airport were excellent.	43637975	1473067812883	1473067812987	 	32
83948	917295	Pilot Nick Young said communications at Sanaa airport were excellent.	Pilot Nick Young said communications at Sanaa airport were excellent.	43637978	1473067813003	1473067813133	a	65
83948	917295	Pilot Nick Young said communications at Sanaa airport were excellent.	Pilot Nick Young said communications at Sanaa airport were excellent.	43637981	1473067813183	1473067813274	t	84
83948	917295	Pilot Nick Young said communications at Sanaa airport were excellent.	Pilot Nick Young said communications at Sanaa airport were excellent.	43638002	1473067813259	1473067813392	 	32
83948	917295	Pilot Nick Young said communications at Sanaa airport were excellent.	Pilot Nick Young said communications at Sanaa airport were excellent.	43638008	1473067813409	1473067813604	SHIFT	16
83948	917295	Pilot Nick Young said communications at Sanaa airport were excellent.	Pilot Nick Young said communications at Sanaa airport were excellent.	43638015	1473067813629	1473067813745	s	83
83948	917295	Pilot Nick Young said communications at Sanaa airport were excellent.	Pilot Nick Young said communications at Sanaa airport were excellent.	43638019	1473067813735	1473067813815	SHIFT	16
83948	917295	Pilot Nick Young said communications at Sanaa airport were excellent.	Pilot Nick Young said communications at Sanaa airport were excellent.	43638027	1473067814296	1473067814467	SHIFT	16
83948	917295	Pilot Nick Young said communications at Sanaa airport were excellent.	Pilot Nick Young said communications at Sanaa airport were excellent.	43638022	1473067814331	1473067814380	BKSP	8
83948	917295	Pilot Nick Young said communications at Sanaa airport were excellent.	Pilot Nick Young said communications at Sanaa airport were excellent.	43638031	1473067814421	1473067814507	S	83
83948	917295	Pilot Nick Young said communications at Sanaa airport were excellent.	Pilot Nick Young said communications at Sanaa airport were excellent.	43638035	1473067814587	1473067814665	a	65
83948	917295	Pilot Nick Young said communications at Sanaa airport were excellent.	Pilot Nick Young said communications at Sanaa airport were excellent.	43638040	1473067814651	1473067814707	n	78
83948	917295	Pilot Nick Young said communications at Sanaa airport were excellent.	Pilot Nick Young said communications at Sanaa airport were excellent.	43638044	1473067814752	1473067814827	a	65
83948	917295	Pilot Nick Young said communications at Sanaa airport were excellent.	Pilot Nick Young said communications at Sanaa airport were excellent.	43638052	1473067814914	1473067814978	a	65
83948	917295	Pilot Nick Young said communications at Sanaa airport were excellent.	Pilot Nick Young said communications at Sanaa airport were excellent.	43638053	1473067815013	1473067815145	 	32
83948	917295	Pilot Nick Young said communications at Sanaa airport were excellent.	Pilot Nick Young said communications at Sanaa airport were excellent.	43638054	1473067815268	1473067815359	a	65
83948	917295	Pilot Nick Young said communications at Sanaa airport were excellent.	Pilot Nick Young said communications at Sanaa airport were excellent.	43638056	1473067815364	1473067815434	i	73
83948	917295	Pilot Nick Young said communications at Sanaa airport were excellent.	Pilot Nick Young said communications at Sanaa airport were excellent.	43638058	1473067815464	1473067815524	r	82
83948	917295	Pilot Nick Young said communications at Sanaa airport were excellent.	Pilot Nick Young said communications at Sanaa airport were excellent.	43638105	1473067815564	1473067815620	p	80
83948	917295	Pilot Nick Young said communications at Sanaa airport were excellent.	Pilot Nick Young said communications at Sanaa airport were excellent.	43638107	1473067815621	1473067815740	o	79
83948	917295	Pilot Nick Young said communications at Sanaa airport were excellent.	Pilot Nick Young said communications at Sanaa airport were excellent.	43638108	1473067815770	1473067815860	r	82
83948	917295	Pilot Nick Young said communications at Sanaa airport were excellent.	Pilot Nick Young said communications at Sanaa airport were excellent.	43638111	1473067815960	1473067816037	t	84
83948	917295	Pilot Nick Young said communications at Sanaa airport were excellent.	Pilot Nick Young said communications at Sanaa airport were excellent.	43638115	1473067816055	1473067816176	 	32
83948	917295	Pilot Nick Young said communications at Sanaa airport were excellent.	Pilot Nick Young said communications at Sanaa airport were excellent.	43638122	1473067816227	1473067816381	w	87
83948	917295	Pilot Nick Young said communications at Sanaa airport were excellent.	Pilot Nick Young said communications at Sanaa airport were excellent.	43638125	1473067816311	1473067816441	e	69
83948	917295	Pilot Nick Young said communications at Sanaa airport were excellent.	Pilot Nick Young said communications at Sanaa airport were excellent.	43638128	1473067816411	1473067816538	r	82
83948	917295	Pilot Nick Young said communications at Sanaa airport were excellent.	Pilot Nick Young said communications at Sanaa airport were excellent.	43638132	1473067816521	1473067816613	e	69
83948	917295	Pilot Nick Young said communications at Sanaa airport were excellent.	Pilot Nick Young said communications at Sanaa airport were excellent.	43638135	1473067816617	1473067816732	 	32
83948	917295	Pilot Nick Young said communications at Sanaa airport were excellent.	Pilot Nick Young said communications at Sanaa airport were excellent.	43638189	1473067816762	1473067816867	e	69
83948	917295	Pilot Nick Young said communications at Sanaa airport were excellent.	Pilot Nick Young said communications at Sanaa airport were excellent.	43638190	1473067816973	1473067817029	x	88
83948	917295	Pilot Nick Young said communications at Sanaa airport were excellent.	Pilot Nick Young said communications at Sanaa airport were excellent.	43638191	1473067817450	1473067817479	BKSP	8
83948	917295	Pilot Nick Young said communications at Sanaa airport were excellent.	Pilot Nick Young said communications at Sanaa airport were excellent.	43638192	1473067817522	1473067817599	c	67
83948	917295	Pilot Nick Young said communications at Sanaa airport were excellent.	Pilot Nick Young said communications at Sanaa airport were excellent.	43638193	1473067818060	1473067818120	BKSP	8
83948	917295	Pilot Nick Young said communications at Sanaa airport were excellent.	Pilot Nick Young said communications at Sanaa airport were excellent.	43638194	1473067818271	1473067818336	x	88
83948	917295	Pilot Nick Young said communications at Sanaa airport were excellent.	Pilot Nick Young said communications at Sanaa airport were excellent.	43638195	1473067818466	1473067818551	c	67
83948	917295	Pilot Nick Young said communications at Sanaa airport were excellent.	Pilot Nick Young said communications at Sanaa airport were excellent.	43638200	1473067818672	1473067818734	e	69
83948	917295	Pilot Nick Young said communications at Sanaa airport were excellent.	Pilot Nick Young said communications at Sanaa airport were excellent.	43638205	1473067818722	1473067818763	l	76
83948	917295	Pilot Nick Young said communications at Sanaa airport were excellent.	Pilot Nick Young said communications at Sanaa airport were excellent.	43638209	1473067818842	1473067818892	l	76
83948	917295	Pilot Nick Young said communications at Sanaa airport were excellent.	Pilot Nick Young said communications at Sanaa airport were excellent.	43638214	1473067818908	1473067818972	e	69
83948	917295	Pilot Nick Young said communications at Sanaa airport were excellent.	Pilot Nick Young said communications at Sanaa airport were excellent.	43638218	1473067818976	1473067819043	n	78
83948	917295	Pilot Nick Young said communications at Sanaa airport were excellent.	Pilot Nick Young said communications at Sanaa airport were excellent.	43638226	1473067819123	1473067819194	t	84
83948	917295	Pilot Nick Young said communications at Sanaa airport were excellent.	Pilot Nick Young said communications at Sanaa airport were excellent.	43638227	1473067819194	1473067819241	.	190
83948	917317	Referring to his meeting in Washington with US President Bill Clinton.	Referring to his meeting in Washington with US President Bill Clinton.	43638475	1473067823739	1473067823874	SHIFT	16
83948	917317	Referring to his meeting in Washington with US President Bill Clinton.	Referring to his meeting in Washington with US President Bill Clinton.	43638480	1473067823859	1473067823951	R	82
83948	917317	Referring to his meeting in Washington with US President Bill Clinton.	Referring to his meeting in Washington with US President Bill Clinton.	43638483	1473067823951	1473067824020	e	69
83948	917317	Referring to his meeting in Washington with US President Bill Clinton.	Referring to his meeting in Washington with US President Bill Clinton.	43638489	1473067824095	1473067824140	f	70
83948	917317	Referring to his meeting in Washington with US President Bill Clinton.	Referring to his meeting in Washington with US President Bill Clinton.	43638493	1473067824210	1473067824290	e	69
83948	917317	Referring to his meeting in Washington with US President Bill Clinton.	Referring to his meeting in Washington with US President Bill Clinton.	43638496	1473067824265	1473067824305	r	82
83948	917317	Referring to his meeting in Washington with US President Bill Clinton.	Referring to his meeting in Washington with US President Bill Clinton.	43638497	1473067824380	1473067824446	r	82
83948	917317	Referring to his meeting in Washington with US President Bill Clinton.	Referring to his meeting in Washington with US President Bill Clinton.	43638499	1473067824450	1473067824551	i	73
83948	917317	Referring to his meeting in Washington with US President Bill Clinton.	Referring to his meeting in Washington with US President Bill Clinton.	43638501	1473067824496	1473067824606	n	78
83948	917317	Referring to his meeting in Washington with US President Bill Clinton.	Referring to his meeting in Washington with US President Bill Clinton.	43638503	1473067824561	1473067824611	g	71
83948	917317	Referring to his meeting in Washington with US President Bill Clinton.	Referring to his meeting in Washington with US President Bill Clinton.	43638508	1473067824611	1473067824696	 	32
83948	917317	Referring to his meeting in Washington with US President Bill Clinton.	Referring to his meeting in Washington with US President Bill Clinton.	43638511	1473067824711	1473067824771	t	84
83948	917317	Referring to his meeting in Washington with US President Bill Clinton.	Referring to his meeting in Washington with US President Bill Clinton.	43638516	1473067824736	1473067824831	o	79
83948	917317	Referring to his meeting in Washington with US President Bill Clinton.	Referring to his meeting in Washington with US President Bill Clinton.	43638520	1473067824816	1473067824922	 	32
83948	917317	Referring to his meeting in Washington with US President Bill Clinton.	Referring to his meeting in Washington with US President Bill Clinton.	43638524	1473067824902	1473067825017	h	72
83948	917317	Referring to his meeting in Washington with US President Bill Clinton.	Referring to his meeting in Washington with US President Bill Clinton.	43638550	1473067824992	1473067825097	i	73
83948	917317	Referring to his meeting in Washington with US President Bill Clinton.	Referring to his meeting in Washington with US President Bill Clinton.	43638553	1473067825053	1473067825142	s	83
83948	917317	Referring to his meeting in Washington with US President Bill Clinton.	Referring to his meeting in Washington with US President Bill Clinton.	43638556	1473067825132	1473067825241	 	32
83948	917317	Referring to his meeting in Washington with US President Bill Clinton.	Referring to his meeting in Washington with US President Bill Clinton.	43638559	1473067825202	1473067825288	m	77
83948	917317	Referring to his meeting in Washington with US President Bill Clinton.	Referring to his meeting in Washington with US President Bill Clinton.	43638562	1473067825313	1473067825373	e	69
83948	917317	Referring to his meeting in Washington with US President Bill Clinton.	Referring to his meeting in Washington with US President Bill Clinton.	43638566	1473067825473	1473067825563	e	69
83948	917317	Referring to his meeting in Washington with US President Bill Clinton.	Referring to his meeting in Washington with US President Bill Clinton.	43638588	1473067825573	1473067825648	t	84
83948	917317	Referring to his meeting in Washington with US President Bill Clinton.	Referring to his meeting in Washington with US President Bill Clinton.	43638591	1473067825653	1473067825774	i	73
83948	917317	Referring to his meeting in Washington with US President Bill Clinton.	Referring to his meeting in Washington with US President Bill Clinton.	43638592	1473067825724	1473067825824	n	78
83948	917317	Referring to his meeting in Washington with US President Bill Clinton.	Referring to his meeting in Washington with US President Bill Clinton.	43638593	1473067825779	1473067825850	g	71
83948	917317	Referring to his meeting in Washington with US President Bill Clinton.	Referring to his meeting in Washington with US President Bill Clinton.	43638601	1473067825837	1473067825964	 	32
83948	917317	Referring to his meeting in Washington with US President Bill Clinton.	Referring to his meeting in Washington with US President Bill Clinton.	43638604	1473067825968	1473067826100	i	73
83948	917317	Referring to his meeting in Washington with US President Bill Clinton.	Referring to his meeting in Washington with US President Bill Clinton.	43638606	1473067826049	1473067826150	n	78
83948	917317	Referring to his meeting in Washington with US President Bill Clinton.	Referring to his meeting in Washington with US President Bill Clinton.	43638608	1473067826110	1473067826205	 	32
83948	917317	Referring to his meeting in Washington with US President Bill Clinton.	Referring to his meeting in Washington with US President Bill Clinton.	43638612	1473067826160	1473067826324	SHIFT	16
83948	917317	Referring to his meeting in Washington with US President Bill Clinton.	Referring to his meeting in Washington with US President Bill Clinton.	43638615	1473067826285	1473067826375	W	87
83948	917317	Referring to his meeting in Washington with US President Bill Clinton.	Referring to his meeting in Washington with US President Bill Clinton.	43638622	1473067826465	1473067826541	a	65
83948	917317	Referring to his meeting in Washington with US President Bill Clinton.	Referring to his meeting in Washington with US President Bill Clinton.	43638629	1473067826520	1473067826627	s	83
83948	917317	Referring to his meeting in Washington with US President Bill Clinton.	Referring to his meeting in Washington with US President Bill Clinton.	43638630	1473067826611	1473067826691	h	72
83948	917317	Referring to his meeting in Washington with US President Bill Clinton.	Referring to his meeting in Washington with US President Bill Clinton.	43638633	1473067826700	1473067826816	i	73
83948	917317	Referring to his meeting in Washington with US President Bill Clinton.	Referring to his meeting in Washington with US President Bill Clinton.	43638636	1473067826781	1473067826871	n	78
83948	917317	Referring to his meeting in Washington with US President Bill Clinton.	Referring to his meeting in Washington with US President Bill Clinton.	43638638	1473067826841	1473067826902	g	71
83948	917317	Referring to his meeting in Washington with US President Bill Clinton.	Referring to his meeting in Washington with US President Bill Clinton.	43638641	1473067827007	1473067827067	t	84
83948	917317	Referring to his meeting in Washington with US President Bill Clinton.	Referring to his meeting in Washington with US President Bill Clinton.	43638655	1473067827030	1473067827142	o	79
83948	917317	Referring to his meeting in Washington with US President Bill Clinton.	Referring to his meeting in Washington with US President Bill Clinton.	43638660	1473067827077	1473067827201	n	78
83948	917317	Referring to his meeting in Washington with US President Bill Clinton.	Referring to his meeting in Washington with US President Bill Clinton.	43638663	1473067827172	1473067827282	 	32
83948	917317	Referring to his meeting in Washington with US President Bill Clinton.	Referring to his meeting in Washington with US President Bill Clinton.	43638666	1473067827312	1473067827428	w	87
83948	917317	Referring to his meeting in Washington with US President Bill Clinton.	Referring to his meeting in Washington with US President Bill Clinton.	43638669	1473067827398	1473067827489	i	73
83948	917317	Referring to his meeting in Washington with US President Bill Clinton.	Referring to his meeting in Washington with US President Bill Clinton.	43638671	1473067827508	1473067827586	t	84
83948	917317	Referring to his meeting in Washington with US President Bill Clinton.	Referring to his meeting in Washington with US President Bill Clinton.	43638682	1473067827538	1473067827622	h	72
83948	917317	Referring to his meeting in Washington with US President Bill Clinton.	Referring to his meeting in Washington with US President Bill Clinton.	43638684	1473067827603	1473067827703	 	32
83948	917317	Referring to his meeting in Washington with US President Bill Clinton.	Referring to his meeting in Washington with US President Bill Clinton.	43638696	1473067827695	1473067827948	SHIFT	16
83948	917317	Referring to his meeting in Washington with US President Bill Clinton.	Referring to his meeting in Washington with US President Bill Clinton.	43638687	1473067827780	1473067827865	U	85
83948	917317	Referring to his meeting in Washington with US President Bill Clinton.	Referring to his meeting in Washington with US President Bill Clinton.	43638692	1473067827850	1473067827944	S	83
83948	917317	Referring to his meeting in Washington with US President Bill Clinton.	Referring to his meeting in Washington with US President Bill Clinton.	43638702	1473067827969	1473067828069	 	32
83948	917317	Referring to his meeting in Washington with US President Bill Clinton.	Referring to his meeting in Washington with US President Bill Clinton.	43638708	1473067828129	1473067828189	p	80
83948	917317	Referring to his meeting in Washington with US President Bill Clinton.	Referring to his meeting in Washington with US President Bill Clinton.	43638737	1473067828240	1473067828591	SHIFT	16
83948	917317	Referring to his meeting in Washington with US President Bill Clinton.	Referring to his meeting in Washington with US President Bill Clinton.	43638733	1473067828375	1473067828425	BKSP	8
83948	917317	Referring to his meeting in Washington with US President Bill Clinton.	Referring to his meeting in Washington with US President Bill Clinton.	43638743	1473067828550	1473067828611	P	80
83948	917317	Referring to his meeting in Washington with US President Bill Clinton.	Referring to his meeting in Washington with US President Bill Clinton.	43638748	1473067828641	1473067828738	r	82
83948	917317	Referring to his meeting in Washington with US President Bill Clinton.	Referring to his meeting in Washington with US President Bill Clinton.	43638751	1473067828731	1473067828770	e	69
83948	917317	Referring to his meeting in Washington with US President Bill Clinton.	Referring to his meeting in Washington with US President Bill Clinton.	43638755	1473067828811	1473067828901	s	83
83948	917317	Referring to his meeting in Washington with US President Bill Clinton.	Referring to his meeting in Washington with US President Bill Clinton.	43638758	1473067828911	1473067828976	i	73
83948	917317	Referring to his meeting in Washington with US President Bill Clinton.	Referring to his meeting in Washington with US President Bill Clinton.	43638783	1473067829012	1473067829057	d	68
83948	917317	Referring to his meeting in Washington with US President Bill Clinton.	Referring to his meeting in Washington with US President Bill Clinton.	43638789	1473067829158	1473067829236	e	69
83948	917317	Referring to his meeting in Washington with US President Bill Clinton.	Referring to his meeting in Washington with US President Bill Clinton.	43638794	1473067829231	1473067829276	 	32
83948	917317	Referring to his meeting in Washington with US President Bill Clinton.	Referring to his meeting in Washington with US President Bill Clinton.	43638797	1473067829286	1473067829351	t	84
83948	917317	Referring to his meeting in Washington with US President Bill Clinton.	Referring to his meeting in Washington with US President Bill Clinton.	43638800	1473067829577	1473067829617	BKSP	8
83948	917317	Referring to his meeting in Washington with US President Bill Clinton.	Referring to his meeting in Washington with US President Bill Clinton.	43638801	1473067829704	1473067829748	BKSP	8
83948	917317	Referring to his meeting in Washington with US President Bill Clinton.	Referring to his meeting in Washington with US President Bill Clinton.	43638802	1473067829884	1473067829929	n	78
83948	917317	Referring to his meeting in Washington with US President Bill Clinton.	Referring to his meeting in Washington with US President Bill Clinton.	43638821	1473067829962	1473067830037	t	84
83948	917317	Referring to his meeting in Washington with US President Bill Clinton.	Referring to his meeting in Washington with US President Bill Clinton.	43638824	1473067830019	1473067830134	 	32
83948	917317	Referring to his meeting in Washington with US President Bill Clinton.	Referring to his meeting in Washington with US President Bill Clinton.	43638832	1473067830139	1473067830400	SHIFT	16
83948	917317	Referring to his meeting in Washington with US President Bill Clinton.	Referring to his meeting in Washington with US President Bill Clinton.	43638828	1473067830340	1473067830395	B	66
83948	917317	Referring to his meeting in Washington with US President Bill Clinton.	Referring to his meeting in Washington with US President Bill Clinton.	43638835	1473067830401	1473067830465	i	73
83948	917317	Referring to his meeting in Washington with US President Bill Clinton.	Referring to his meeting in Washington with US President Bill Clinton.	43638840	1473067830766	1473067830836	l	76
83948	917317	Referring to his meeting in Washington with US President Bill Clinton.	Referring to his meeting in Washington with US President Bill Clinton.	43638868	1473067830921	1473067830990	l	76
83948	917317	Referring to his meeting in Washington with US President Bill Clinton.	Referring to his meeting in Washington with US President Bill Clinton.	43638874	1473067831051	1473067831172	 	32
83948	917317	Referring to his meeting in Washington with US President Bill Clinton.	Referring to his meeting in Washington with US President Bill Clinton.	43638877	1473067831192	1473067831341	SHIFT	16
83948	917317	Referring to his meeting in Washington with US President Bill Clinton.	Referring to his meeting in Washington with US President Bill Clinton.	43638879	1473067831307	1473067831387	C	67
83948	917317	Referring to his meeting in Washington with US President Bill Clinton.	Referring to his meeting in Washington with US President Bill Clinton.	43638882	1473067831363	1473067831417	l	76
83948	917317	Referring to his meeting in Washington with US President Bill Clinton.	Referring to his meeting in Washington with US President Bill Clinton.	43638885	1473067831502	1473067831592	i	73
83948	917317	Referring to his meeting in Washington with US President Bill Clinton.	Referring to his meeting in Washington with US President Bill Clinton.	43639003	1473067831553	1473067831623	n	78
83948	917317	Referring to his meeting in Washington with US President Bill Clinton.	Referring to his meeting in Washington with US President Bill Clinton.	43639009	1473067831858	1473067831934	t	84
83948	917317	Referring to his meeting in Washington with US President Bill Clinton.	Referring to his meeting in Washington with US President Bill Clinton.	43639016	1473067831949	1473067832049	o	79
83948	917317	Referring to his meeting in Washington with US President Bill Clinton.	Referring to his meeting in Washington with US President Bill Clinton.	43639021	1473067832009	1473067832079	n	78
83948	917317	Referring to his meeting in Washington with US President Bill Clinton.	Referring to his meeting in Washington with US President Bill Clinton.	43639025	1473067832164	1473067832184	ALT	18
83948	917317	Referring to his meeting in Washington with US President Bill Clinton.	Referring to his meeting in Washington with US President Bill Clinton.	43639030	1473067834269	1473067834319	ARW_UP	38
83948	917337	Megan, I'm a little too quick for myself.	Megan, I'm a little too quick for myself.	43639246	1473067837637	1473067837837	SHIFT	16
83948	917337	Megan, I'm a little too quick for myself.	Megan, I'm a little too quick for myself.	43639253	1473067837823	1473067837904	M	77
83948	917337	Megan, I'm a little too quick for myself.	Megan, I'm a little too quick for myself.	43639258	1473067837904	1473067837984	e	69
83948	917337	Megan, I'm a little too quick for myself.	Megan, I'm a little too quick for myself.	43639265	1473067838008	1473067838113	g	71
83948	917337	Megan, I'm a little too quick for myself.	Megan, I'm a little too quick for myself.	43639270	1473067838108	1473067838174	a	65
83948	917337	Megan, I'm a little too quick for myself.	Megan, I'm a little too quick for myself.	43639272	1473067838264	1473067838413	,	188
83948	917337	Megan, I'm a little too quick for myself.	Megan, I'm a little too quick for myself.	43639318	1473067838399	1473067838524	 	32
83948	917337	Megan, I'm a little too quick for myself.	Megan, I'm a little too quick for myself.	43639324	1473067838670	1473067838710	BKSP	8
83948	917337	Megan, I'm a little too quick for myself.	Megan, I'm a little too quick for myself.	43639329	1473067838790	1473067838845	BKSP	8
83948	917337	Megan, I'm a little too quick for myself.	Megan, I'm a little too quick for myself.	43639334	1473067838935	1473067839016	n	78
83948	917337	Megan, I'm a little too quick for myself.	Megan, I'm a little too quick for myself.	43639338	1473067839091	1473067839225	,	188
83948	917337	Megan, I'm a little too quick for myself.	Megan, I'm a little too quick for myself.	43639344	1473067839201	1473067839336	 	32
83948	917337	Megan, I'm a little too quick for myself.	Megan, I'm a little too quick for myself.	43639349	1473067839291	1473067839447	SHIFT	16
83948	917337	Megan, I'm a little too quick for myself.	Megan, I'm a little too quick for myself.	43639352	1473067839417	1473067839476	I	73
83948	917337	Megan, I'm a little too quick for myself.	Megan, I'm a little too quick for myself.	43639354	1473067839532	1473067839612	'	222
83948	917337	Megan, I'm a little too quick for myself.	Megan, I'm a little too quick for myself.	43639363	1473067839594	1473067839702	m	77
83948	917337	Megan, I'm a little too quick for myself.	Megan, I'm a little too quick for myself.	43639367	1473067839666	1473067839752	 	32
83948	917337	Megan, I'm a little too quick for myself.	Megan, I'm a little too quick for myself.	43639372	1473067839721	1473067839843	a	65
83948	917337	Megan, I'm a little too quick for myself.	Megan, I'm a little too quick for myself.	43639376	1473067839847	1473067839963	 	32
83948	917337	Megan, I'm a little too quick for myself.	Megan, I'm a little too quick for myself.	43639379	1473067839943	1473067840003	l	76
83948	917337	Megan, I'm a little too quick for myself.	Megan, I'm a little too quick for myself.	43639382	1473067840093	1473067840188	i	73
83948	917337	Megan, I'm a little too quick for myself.	Megan, I'm a little too quick for myself.	43639392	1473067840155	1473067840225	t	84
83948	917337	Megan, I'm a little too quick for myself.	Megan, I'm a little too quick for myself.	43639394	1473067840294	1473067840348	l	84
83948	917337	Megan, I'm a little too quick for myself.	Megan, I'm a little too quick for myself.	43639402	1473067840469	1473067840550	e	69
83948	917337	Megan, I'm a little too quick for myself.	Megan, I'm a little too quick for myself.	43639406	1473067840559	1473067840689	 	32
83948	917337	Megan, I'm a little too quick for myself.	Megan, I'm a little too quick for myself.	43639509	1473067840685	1473067840780	q	81
83948	917337	Megan, I'm a little too quick for myself.	Megan, I'm a little too quick for myself.	43639512	1473067840790	1473067840810	u	85
83948	917337	Megan, I'm a little too quick for myself.	Megan, I'm a little too quick for myself.	43639515	1473067841050	1473067841094	BKSP	8
83948	917337	Megan, I'm a little too quick for myself.	Megan, I'm a little too quick for myself.	43639519	1473067841331	1473067841366	o	79
83948	917337	Megan, I'm a little too quick for myself.	Megan, I'm a little too quick for myself.	43639524	1473067841542	1473067841577	BKSP	8
83948	917337	Megan, I'm a little too quick for myself.	Megan, I'm a little too quick for myself.	43639528	1473067841687	1473067841752	t	84
83948	917337	Megan, I'm a little too quick for myself.	Megan, I'm a little too quick for myself.	43639534	1473067841857	1473067841907	BKSP	8
83948	917337	Megan, I'm a little too quick for myself.	Megan, I'm a little too quick for myself.	43639543	1473067841998	1473067842023	BKSP	8
83948	917337	Megan, I'm a little too quick for myself.	Megan, I'm a little too quick for myself.	43639547	1473067842118	1473067842194	t	84
83948	917337	Megan, I'm a little too quick for myself.	Megan, I'm a little too quick for myself.	43639550	1473067842198	1473067842248	o	79
83948	917337	Megan, I'm a little too quick for myself.	Megan, I'm a little too quick for myself.	43639558	1473067842324	1473067842414	o	79
83948	917337	Megan, I'm a little too quick for myself.	Megan, I'm a little too quick for myself.	43639561	1473067842445	1473067842548	 	32
83948	917337	Megan, I'm a little too quick for myself.	Megan, I'm a little too quick for myself.	43639564	1473067842719	1473067842805	q	81
83948	917337	Megan, I'm a little too quick for myself.	Megan, I'm a little too quick for myself.	43639566	1473067842770	1473067842864	u	85
83948	917337	Megan, I'm a little too quick for myself.	Megan, I'm a little too quick for myself.	43639592	1473067842844	1473067842924	i	73
83948	917337	Megan, I'm a little too quick for myself.	Megan, I'm a little too quick for myself.	43639594	1473067842974	1473067843045	c	67
83948	917337	Megan, I'm a little too quick for myself.	Megan, I'm a little too quick for myself.	43639597	1473067843034	1473067843120	k	75
83948	917337	Megan, I'm a little too quick for myself.	Megan, I'm a little too quick for myself.	43639599	1473067843135	1473067843235	 	32
83948	917337	Megan, I'm a little too quick for myself.	Megan, I'm a little too quick for myself.	43639601	1473067843276	1473067843353	f	70
83948	917337	Megan, I'm a little too quick for myself.	Megan, I'm a little too quick for myself.	43639631	1473067843345	1473067843420	o	79
83948	917337	Megan, I'm a little too quick for myself.	Megan, I'm a little too quick for myself.	43639634	1473067843440	1473067843509	r	82
83948	917337	Megan, I'm a little too quick for myself.	Megan, I'm a little too quick for myself.	43639639	1473067843534	1473067843666	 	32
83948	917337	Megan, I'm a little too quick for myself.	Megan, I'm a little too quick for myself.	43639642	1473067843666	1473067843730	m	77
83948	917337	Megan, I'm a little too quick for myself.	Megan, I'm a little too quick for myself.	43639644	1473067843851	1473067843916	y	89
83948	917337	Megan, I'm a little too quick for myself.	Megan, I'm a little too quick for myself.	43639648	1473067843951	1473067844072	s	83
83948	917337	Megan, I'm a little too quick for myself.	Megan, I'm a little too quick for myself.	43639655	1473067844056	1473067844142	e	69
83948	917337	Megan, I'm a little too quick for myself.	Megan, I'm a little too quick for myself.	43639657	1473067844097	1473067844172	l	76
83948	917337	Megan, I'm a little too quick for myself.	Megan, I'm a little too quick for myself.	43639659	1473067844201	1473067844288	f	70
83948	917346	I got the impression that this is a message for internal use.	I got thte impression that this is a message for internal use.	43639862	1473067848867	1473067848991	SHIFT	16
83948	917346	I got the impression that this is a message for internal use.	I got thte impression that this is a message for internal use.	43639866	1473067848938	1473067849003	I	73
83948	917346	I got the impression that this is a message for internal use.	I got thte impression that this is a message for internal use.	43639868	1473067848998	1473067849053	 	32
83948	917346	I got the impression that this is a message for internal use.	I got thte impression that this is a message for internal use.	43639872	1473067849048	1473067849126	g	71
83948	917346	I got the impression that this is a message for internal use.	I got thte impression that this is a message for internal use.	43639877	1473067849113	1473067849213	o	79
83948	917346	I got the impression that this is a message for internal use.	I got thte impression that this is a message for internal use.	43639882	1473067849229	1473067849283	 	84
83948	917346	I got the impression that this is a message for internal use.	I got thte impression that this is a message for internal use.	43639893	1473067849440	1473067849515	t	84
83948	917346	I got the impression that this is a message for internal use.	I got thte impression that this is a message for internal use.	43639896	1473067849515	1473067849598	h	72
83948	917346	I got the impression that this is a message for internal use.	I got thte impression that this is a message for internal use.	43639899	1473067849599	1473067849680	t	84
83948	917346	I got the impression that this is a message for internal use.	I got thte impression that this is a message for internal use.	43639903	1473067849695	1473067849760	 	69
83948	917346	I got the impression that this is a message for internal use.	I got thte impression that this is a message for internal use.	43639932	1473067849893	1473067849981	i	73
83948	917346	I got the impression that this is a message for internal use.	I got thte impression that this is a message for internal use.	43639934	1473067849941	1473067850026	m	77
83948	917346	I got the impression that this is a message for internal use.	I got thte impression that this is a message for internal use.	43639935	1473067850101	1473067850171	p	80
83948	917346	I got the impression that this is a message for internal use.	I got thte impression that this is a message for internal use.	43639937	1473067850192	1473067850307	r	82
83948	917346	I got the impression that this is a message for internal use.	I got thte impression that this is a message for internal use.	43639972	1473067850299	1473067850391	e	69
83948	917346	I got the impression that this is a message for internal use.	I got thte impression that this is a message for internal use.	43639974	1473067850527	1473067850576	v	86
83948	917346	I got the impression that this is a message for internal use.	I got thte impression that this is a message for internal use.	43639976	1473067850753	1473067850793	BKSP	8
83948	917346	I got the impression that this is a message for internal use.	I got thte impression that this is a message for internal use.	43639979	1473067850828	1473067850898	s	83
83948	917346	I got the impression that this is a message for internal use.	I got thte impression that this is a message for internal use.	43639982	1473067850958	1473067851058	s	83
83948	917346	I got the impression that this is a message for internal use.	I got thte impression that this is a message for internal use.	43639986	1473067851054	1473067851213	i	73
83948	917346	I got the impression that this is a message for internal use.	I got thte impression that this is a message for internal use.	43639990	1473067851114	1473067851236	o	79
83948	917346	I got the impression that this is a message for internal use.	I got thte impression that this is a message for internal use.	43639991	1473067851164	1473067851268	n	78
83948	917346	I got the impression that this is a message for internal use.	I got thte impression that this is a message for internal use.	43639995	1473067851228	1473067851324	 	32
83948	917346	I got the impression that this is a message for internal use.	I got thte impression that this is a message for internal use.	43639996	1473067851324	1473067851383	t	84
83948	917346	I got the impression that this is a message for internal use.	I got thte impression that this is a message for internal use.	43639998	1473067851399	1473067851469	h	72
83948	917346	I got the impression that this is a message for internal use.	I got thte impression that this is a message for internal use.	43639999	1473067851460	1473067851545	a	65
83948	917346	I got the impression that this is a message for internal use.	I got thte impression that this is a message for internal use.	43640007	1473067851520	1473067851584	t	84
83948	917346	I got the impression that this is a message for internal use.	I got thte impression that this is a message for internal use.	43640011	1473067851580	1473067851660	 	32
83948	917346	I got the impression that this is a message for internal use.	I got thte impression that this is a message for internal use.	43640015	1473067851664	1473067851733	t	84
83948	917346	I got the impression that this is a message for internal use.	I got thte impression that this is a message for internal use.	43640020	1473067851720	1473067851815	h	72
83948	917346	I got the impression that this is a message for internal use.	I got thte impression that this is a message for internal use.	43640024	1473067851780	1473067851866	i	73
83948	917346	I got the impression that this is a message for internal use.	I got thte impression that this is a message for internal use.	43640043	1473067851841	1473067851907	s	83
83948	917346	I got the impression that this is a message for internal use.	I got thte impression that this is a message for internal use.	43640046	1473067851936	1473067852055	 	32
83948	917346	I got the impression that this is a message for internal use.	I got thte impression that this is a message for internal use.	43640050	1473067852041	1473067852131	i	73
83948	917346	I got the impression that this is a message for internal use.	I got thte impression that this is a message for internal use.	43640054	1473067852141	1473067852216	s	83
83948	917346	I got the impression that this is a message for internal use.	I got thte impression that this is a message for internal use.	43640058	1473067852237	1473067852327	 	32
83948	917346	I got the impression that this is a message for internal use.	I got thte impression that this is a message for internal use.	43640061	1473067852337	1473067852417	a	65
83948	917346	I got the impression that this is a message for internal use.	I got thte impression that this is a message for internal use.	43640071	1473067852421	1473067852552	 	32
83948	917346	I got the impression that this is a message for internal use.	I got thte impression that this is a message for internal use.	43640077	1473067852527	1473067852607	m	77
83948	917346	I got the impression that this is a message for internal use.	I got thte impression that this is a message for internal use.	43640087	1473067852617	1473067852698	e	69
83948	917346	I got the impression that this is a message for internal use.	I got thte impression that this is a message for internal use.	43640096	1473067852723	1473067852804	s	83
83948	917346	I got the impression that this is a message for internal use.	I got thte impression that this is a message for internal use.	43640102	1473067852863	1473067853002	s	83
83948	917346	I got the impression that this is a message for internal use.	I got thte impression that this is a message for internal use.	43640116	1473067852998	1473067853103	a	65
83948	917346	I got the impression that this is a message for internal use.	I got thte impression that this is a message for internal use.	43640118	1473067853078	1473067853158	g	71
83948	917346	I got the impression that this is a message for internal use.	I got thte impression that this is a message for internal use.	43640120	1473067853159	1473067853244	e	69
83948	917346	I got the impression that this is a message for internal use.	I got thte impression that this is a message for internal use.	43640123	1473067853228	1473067853319	 	32
83948	917346	I got the impression that this is a message for internal use.	I got thte impression that this is a message for internal use.	43640126	1473067853323	1473067853369	f	70
83948	917346	I got the impression that this is a message for internal use.	I got thte impression that this is a message for internal use.	43640131	1473067853394	1473067853490	o	79
83948	917346	I got the impression that this is a message for internal use.	I got thte impression that this is a message for internal use.	43640143	1473067853468	1473067853539	r	82
83948	917346	I got the impression that this is a message for internal use.	I got thte impression that this is a message for internal use.	43640147	1473067853503	1473067853597	 	32
83948	917346	I got the impression that this is a message for internal use.	I got thte impression that this is a message for internal use.	43640151	1473067853635	1473067853745	i	73
83948	917346	I got the impression that this is a message for internal use.	I got thte impression that this is a message for internal use.	43640155	1473067853705	1473067853805	n	78
83948	917346	I got the impression that this is a message for internal use.	I got thte impression that this is a message for internal use.	43640159	1473067853780	1473067853840	t	84
83948	917346	I got the impression that this is a message for internal use.	I got thte impression that this is a message for internal use.	43640162	1473067853881	1473067853965	e	69
83948	917346	I got the impression that this is a message for internal use.	I got thte impression that this is a message for internal use.	43640174	1473067853953	1473067854031	r	82
83948	917346	I got the impression that this is a message for internal use.	I got thte impression that this is a message for internal use.	43640178	1473067854031	1473067854106	n	78
83948	917346	I got the impression that this is a message for internal use.	I got thte impression that this is a message for internal use.	43640182	1473067854131	1473067854207	a	65
83948	917346	I got the impression that this is a message for internal use.	I got thte impression that this is a message for internal use.	43640185	1473067854220	1473067854310	l	76
83948	917346	I got the impression that this is a message for internal use.	I got thte impression that this is a message for internal use.	43640187	1473067854294	1473067854422	 	32
83948	917346	I got the impression that this is a message for internal use.	I got thte impression that this is a message for internal use.	43640190	1473067854452	1473067854537	u	85
83948	917346	I got the impression that this is a message for internal use.	I got thte impression that this is a message for internal use.	43640205	1473067854522	1473067854662	s	83
83948	917346	I got the impression that this is a message for internal use.	I got thte impression that this is a message for internal use.	43640210	1473067854607	1473067854717	e	69
83948	917346	I got the impression that this is a message for internal use.	I got thte impression that this is a message for internal use.	43640214	1473067854721	1473067854767	.	190
83948	917359	He was playing only his third event on the European Tour.	He was playing only his third event on the European Tour.	43640476	1473067859795	1473067859905	SHIFT	16
83948	917359	He was playing only his third event on the European Tour.	He was playing only his third event on the European Tour.	43640481	1473067859890	1473067859945	H	72
83948	917359	He was playing only his third event on the European Tour.	He was playing only his third event on the European Tour.	43640483	1473067859946	1473067860025	e	69
83948	917359	He was playing only his third event on the European Tour.	He was playing only his third event on the European Tour.	43640487	1473067860005	1473067860100	 	32
83948	917359	He was playing only his third event on the European Tour.	He was playing only his third event on the European Tour.	43640490	1473067860100	1473067860170	w	87
83948	917359	He was playing only his third event on the European Tour.	He was playing only his third event on the European Tour.	43640493	1473067860180	1473067860316	a	65
83948	917359	He was playing only his third event on the European Tour.	He was playing only his third event on the European Tour.	43640561	1473067860260	1473067860362	s	83
83948	917359	He was playing only his third event on the European Tour.	He was playing only his third event on the European Tour.	43640565	1473067860338	1473067860455	 	32
83948	917359	He was playing only his third event on the European Tour.	He was playing only his third event on the European Tour.	43640569	1473067860475	1473067860536	p	80
83948	917359	He was playing only his third event on the European Tour.	He was playing only his third event on the European Tour.	43640573	1473067860596	1473067860706	l	76
83948	917359	He was playing only his third event on the European Tour.	He was playing only his third event on the European Tour.	43640577	1473067861028	1473067861077	BKSP	8
83948	917359	He was playing only his third event on the European Tour.	He was playing only his third event on the European Tour.	43640581	1473067861396	1473067861453	l	76
83948	917359	He was playing only his third event on the European Tour.	He was playing only his third event on the European Tour.	43640584	1473067861599	1473067861639	y	89
83948	917359	He was playing only his third event on the European Tour.	He was playing only his third event on the European Tour.	43640616	1473067861860	1473067861894	BKSP	8
83948	917359	He was playing only his third event on the European Tour.	He was playing only his third event on the European Tour.	43640619	1473067861975	1473067862055	a	65
83948	917359	He was playing only his third event on the European Tour.	He was playing only his third event on the European Tour.	43640623	1473067862055	1473067862109	y	89
83948	917359	He was playing only his third event on the European Tour.	He was playing only his third event on the European Tour.	43640627	1473067862230	1473067862330	i	73
83948	917359	He was playing only his third event on the European Tour.	He was playing only his third event on the European Tour.	43640631	1473067862291	1473067862396	n	78
83948	917359	He was playing only his third event on the European Tour.	He was playing only his third event on the European Tour.	43640633	1473067862406	1473067862481	g	71
83948	917359	He was playing only his third event on the European Tour.	He was playing only his third event on the European Tour.	43640660	1473067862482	1473067862606	 	32
83948	917359	He was playing only his third event on the European Tour.	He was playing only his third event on the European Tour.	43640663	1473067862667	1473067862756	h	72
83948	917359	He was playing only his third event on the European Tour.	He was playing only his third event on the European Tour.	43640668	1473067862916	1473067862958	BKSP	8
83948	917359	He was playing only his third event on the European Tour.	He was playing only his third event on the European Tour.	43640671	1473067863097	1473067863177	o	79
83948	917359	He was playing only his third event on the European Tour.	He was playing only his third event on the European Tour.	43640675	1473067863142	1473067863233	n	78
83948	917359	He was playing only his third event on the European Tour.	He was playing only his third event on the European Tour.	43640680	1473067863259	1473067863327	l	76
83948	917359	He was playing only his third event on the European Tour.	He was playing only his third event on the European Tour.	43640684	1473067863398	1473067863484	y	89
83948	917359	He was playing only his third event on the European Tour.	He was playing only his third event on the European Tour.	43640692	1473067863490	1473067863581	 	32
83948	917359	He was playing only his third event on the European Tour.	He was playing only his third event on the European Tour.	43640700	1473067863569	1473067863679	h	72
83948	917359	He was playing only his third event on the European Tour.	He was playing only his third event on the European Tour.	43640711	1473067863654	1473067863753	i	73
83948	917359	He was playing only his third event on the European Tour.	He was playing only his third event on the European Tour.	43640723	1473067863721	1473067863803	s	83
83948	917359	He was playing only his third event on the European Tour.	He was playing only his third event on the European Tour.	43640724	1473067863803	1473067863869	 	32
83948	917359	He was playing only his third event on the European Tour.	He was playing only his third event on the European Tour.	43640725	1473067863900	1473067863965	t	84
83948	917359	He was playing only his third event on the European Tour.	He was playing only his third event on the European Tour.	43640726	1473067863920	1473067864025	h	72
83948	917359	He was playing only his third event on the European Tour.	He was playing only his third event on the European Tour.	43640727	1473067864010	1473067864084	i	73
83948	917359	He was playing only his third event on the European Tour.	He was playing only his third event on the European Tour.	43640728	1473067864085	1473067864200	r	82
83948	917359	He was playing only his third event on the European Tour.	He was playing only his third event on the European Tour.	43640804	1473067864185	1473067864234	s	83
83948	917359	He was playing only his third event on the European Tour.	He was playing only his third event on the European Tour.	43640806	1473067864282	1473067864370	d	68
83948	917359	He was playing only his third event on the European Tour.	He was playing only his third event on the European Tour.	43640807	1473067864540	1473067864576	BKSP	8
83948	917359	He was playing only his third event on the European Tour.	He was playing only his third event on the European Tour.	43640809	1473067864656	1473067864710	BKSP	8
83948	917359	He was playing only his third event on the European Tour.	He was playing only his third event on the European Tour.	43640810	1473067864786	1473067864867	d	68
83948	917359	He was playing only his third event on the European Tour.	He was playing only his third event on the European Tour.	43640812	1473067864896	1473067864990	 	32
83948	917359	He was playing only his third event on the European Tour.	He was playing only his third event on the European Tour.	43640813	1473067865102	1473067865193	v	86
83948	917359	He was playing only his third event on the European Tour.	He was playing only his third event on the European Tour.	43640815	1473067865353	1473067865407	BKSP	8
83948	917359	He was playing only his third event on the European Tour.	He was playing only his third event on the European Tour.	43640817	1473067865418	1473067865513	e	69
83948	917359	He was playing only his third event on the European Tour.	He was playing only his third event on the European Tour.	43640829	1473067865523	1473067865583	v	86
83948	917359	He was playing only his third event on the European Tour.	He was playing only his third event on the European Tour.	43640834	1473067865623	1473067865723	e	69
83948	917359	He was playing only his third event on the European Tour.	He was playing only his third event on the European Tour.	43640841	1473067865698	1473067865763	n	78
83948	917359	He was playing only his third event on the European Tour.	He was playing only his third event on the European Tour.	43640848	1473067865793	1473067865869	t	84
83948	917359	He was playing only his third event on the European Tour.	He was playing only his third event on the European Tour.	43640855	1473067865914	1473067866031	 	32
83948	917359	He was playing only his third event on the European Tour.	He was playing only his third event on the European Tour.	43640875	1473067866044	1473067866150	o	79
83948	917359	He was playing only his third event on the European Tour.	He was playing only his third event on the European Tour.	43640877	1473067866305	1473067866425	n	78
83948	917359	He was playing only his third event on the European Tour.	He was playing only his third event on the European Tour.	43640880	1473067866389	1473067866491	 	32
83948	917359	He was playing only his third event on the European Tour.	He was playing only his third event on the European Tour.	43640887	1473067866500	1473067866595	t	84
83948	917359	He was playing only his third event on the European Tour.	He was playing only his third event on the European Tour.	43640906	1473067866566	1473067866656	h	72
83948	917359	He was playing only his third event on the European Tour.	He was playing only his third event on the European Tour.	43640908	1473067866605	1473067866675	e	69
83948	917359	He was playing only his third event on the European Tour.	He was playing only his third event on the European Tour.	43640911	1473067866670	1473067866751	 	32
83948	917359	He was playing only his third event on the European Tour.	He was playing only his third event on the European Tour.	43640913	1473067866862	1473067866990	SHIFT	16
83948	917359	He was playing only his third event on the European Tour.	He was playing only his third event on the European Tour.	43640915	1473067866961	1473067867041	E	69
83948	917359	He was playing only his third event on the European Tour.	He was playing only his third event on the European Tour.	43640916	1473067867073	1473067867126	u	85
83948	917359	He was playing only his third event on the European Tour.	He was playing only his third event on the European Tour.	43640917	1473067867153	1473067867227	r	82
83948	917359	He was playing only his third event on the European Tour.	He was playing only his third event on the European Tour.	43640924	1473067867242	1473067867322	o	79
83948	917359	He was playing only his third event on the European Tour.	He was playing only his third event on the European Tour.	43640927	1473067867406	1473067867490	p	80
83948	917359	He was playing only his third event on the European Tour.	He was playing only his third event on the European Tour.	43640930	1473067867503	1473067867557	e	69
83948	917359	He was playing only his third event on the European Tour.	He was playing only his third event on the European Tour.	43640934	1473067867583	1473067867658	a	65
83948	917359	He was playing only his third event on the European Tour.	He was playing only his third event on the European Tour.	43640958	1473067867638	1473067867753	n	78
83948	917359	He was playing only his third event on the European Tour.	He was playing only his third event on the European Tour.	43640961	1473067867748	1473067867843	 	32
83948	917359	He was playing only his third event on the European Tour.	He was playing only his third event on the European Tour.	43640965	1473067867829	1473067867958	SHIFT	16
83948	917359	He was playing only his third event on the European Tour.	He was playing only his third event on the European Tour.	43640969	1473067867924	1473067868004	T	84
83948	917359	He was playing only his third event on the European Tour.	He was playing only his third event on the European Tour.	43640974	1473067868034	1473067868162	o	79
83948	917359	He was playing only his third event on the European Tour.	He was playing only his third event on the European Tour.	43641005	1473067868145	1473067868225	r	85
83948	917359	He was playing only his third event on the European Tour.	He was playing only his third event on the European Tour.	43641009	1473067868395	1473067868476	.	190
83948	917372	I'll just have her call Tracy.	I'll just have her call Traycy	43641211	1473067872200	1473067872320	SHIFT	16
83948	917372	I'll just have her call Tracy.	I'll just have her call Traycy	43641210	1473067872242	1473067872310	I	73
83948	917372	I'll just have her call Tracy.	I'll just have her call Traycy	43641212	1473067872435	1473067872514	l	76
83948	917372	I'll just have her call Tracy.	I'll just have her call Traycy	43641213	1473067872680	1473067872740	l	76
83948	917372	I'll just have her call Tracy.	I'll just have her call Traycy	43641214	1473067872730	1473067872907	 	32
83948	917372	I'll just have her call Tracy.	I'll just have her call Traycy	43641216	1473067873057	1473067873093	BKSP	8
83948	917372	I'll just have her call Tracy.	I'll just have her call Traycy	43641218	1473067873172	1473067873224	BKSP	8
83948	917372	I'll just have her call Tracy.	I'll just have her call Traycy	43641220	1473067873302	1473067873366	BKSP	8
83948	917372	I'll just have her call Tracy.	I'll just have her call Traycy	43641222	1473067873493	1473067873593	'	222
83948	917372	I'll just have her call Tracy.	I'll just have her call Traycy	43641233	1473067873663	1473067873737	l	76
83948	917372	I'll just have her call Tracy.	I'll just have her call Traycy	43641236	1473067873797	1473067873904	l	76
83948	917372	I'll just have her call Tracy.	I'll just have her call Traycy	43641239	1473067873868	1473067874003	 	32
83948	917372	I'll just have her call Tracy.	I'll just have her call Traycy	43641243	1473067873968	1473067874018	j	74
83948	917372	I'll just have her call Tracy.	I'll just have her call Traycy	43641247	1473067874115	1473067874183	u	85
83948	917372	I'll just have her call Tracy.	I'll just have her call Traycy	43641257	1473067874163	1473067874279	s	83
83948	917372	I'll just have her call Tracy.	I'll just have her call Traycy	43641261	1473067874228	1473067874310	t	84
83948	917372	I'll just have her call Tracy.	I'll just have her call Traycy	43641265	1473067874253	1473067874364	 	32
83948	917372	I'll just have her call Tracy.	I'll just have her call Traycy	43641270	1473067874354	1473067874454	h	72
83948	917372	I'll just have her call Tracy.	I'll just have her call Traycy	43641278	1473067874435	1473067874524	a	65
83948	917372	I'll just have her call Tracy.	I'll just have her call Traycy	43641303	1473067874500	1473067874554	v	86
83948	917372	I'll just have her call Tracy.	I'll just have her call Traycy	43641307	1473067874605	1473067874679	 	69
83948	917372	I'll just have her call Tracy.	I'll just have her call Traycy	43641311	1473067874715	1473067874797	h	72
83948	917372	I'll just have her call Tracy.	I'll just have her call Traycy	43641315	1473067874799	1473067874940	e	69
83948	917372	I'll just have her call Tracy.	I'll just have her call Traycy	43641318	1473067875106	1473067875182	r	82
83948	917372	I'll just have her call Tracy.	I'll just have her call Traycy	43641327	1473067875206	1473067875346	 	32
83948	917372	I'll just have her call Tracy.	I'll just have her call Traycy	43641329	1473067875371	1473067875500	c	67
83948	917372	I'll just have her call Tracy.	I'll just have her call Traycy	43641338	1473067875486	1473067875596	a	65
83948	917372	I'll just have her call Tracy.	I'll just have her call Traycy	43641332	1473067875506	1473067875537	l	76
83948	917372	I'll just have her call Tracy.	I'll just have her call Traycy	43641340	1473067875617	1473067875738	l	76
83948	917372	I'll just have her call Tracy.	I'll just have her call Traycy	43641361	1473067875682	1473067875818	 	32
83948	917372	I'll just have her call Tracy.	I'll just have her call Traycy	43641365	1473067875877	1473067875995	SHIFT	16
83948	917372	I'll just have her call Tracy.	I'll just have her call Traycy	43641371	1473067875968	1473067876023	T	84
83948	917372	I'll just have her call Tracy.	I'll just have her call Traycy	43641376	1473067876089	1473067876163	r	82
83948	917372	I'll just have her call Tracy.	I'll just have her call Traycy	43641383	1473067876128	1473067876208	a	65
83948	917372	I'll just have her call Tracy.	I'll just have her call Traycy	43641389	1473067876218	1473067876258	y	89
83948	917372	I'll just have her call Tracy.	I'll just have her call Traycy	43641395	1473067876308	1473067876419	c	67
83948	917372	I'll just have her call Tracy.	I'll just have her call Traycy	43641432	1473067876434	1473067876463	y	89
83948	917372	I'll just have her call Tracy.	I'll just have her call Traycy	43641433	1473067876579	1473067876617	BKSP	8
83948	917372	I'll just have her call Tracy.	I'll just have her call Traycy	43641435	1473067876689	1473067876744	BKSP	8
83948	917372	I'll just have her call Tracy.	I'll just have her call Traycy	43641437	1473067876803	1473067876880	c	67
83948	917372	I'll just have her call Tracy.	I'll just have her call Traycy	43641440	1473067876885	1473067876930	y	89
83948	917380	And if he's not, then he doesn't play.	And if he's not, then he doesn't play.	43641741	1473067883060	1473067883200	SHIFT	16
83948	917380	And if he's not, then he doesn't play.	And if he's not, then he doesn't play.	43641745	1473067883140	1473067883229	A	65
83948	917380	And if he's not, then he doesn't play.	And if he's not, then he doesn't play.	43641746	1473067883210	1473067883294	n	78
83948	917380	And if he's not, then he doesn't play.	And if he's not, then he doesn't play.	43641749	1473067883335	1473067883431	d	68
83948	917380	And if he's not, then he doesn't play.	And if he's not, then he doesn't play.	43641752	1473067883410	1473067883521	 	32
83948	917380	And if he's not, then he doesn't play.	And if he's not, then he doesn't play.	43641755	1473067883582	1473067883657	i	73
83948	917380	And if he's not, then he doesn't play.	And if he's not, then he doesn't play.	43641764	1473067883661	1473067883771	f	70
83948	917380	And if he's not, then he doesn't play.	And if he's not, then he doesn't play.	43641768	1473067883726	1473067883827	 	32
83948	917380	And if he's not, then he doesn't play.	And if he's not, then he doesn't play.	43641771	1473067883906	1473067883977	h	72
83948	917380	And if he's not, then he doesn't play.	And if he's not, then he doesn't play.	43641772	1473067883985	1473067884052	e	69
83948	917380	And if he's not, then he doesn't play.	And if he's not, then he doesn't play.	43641773	1473067884057	1473067884137	'	222
83948	917380	And if he's not, then he doesn't play.	And if he's not, then he doesn't play.	43641796	1473067884197	1473067884343	s	83
83948	917380	And if he's not, then he doesn't play.	And if he's not, then he doesn't play.	43641799	1473067884314	1473067884422	 	32
83948	917380	And if he's not, then he doesn't play.	And if he's not, then he doesn't play.	43641803	1473067884479	1473067884569	n	78
83948	917380	And if he's not, then he doesn't play.	And if he's not, then he doesn't play.	43641806	1473067884553	1473067884648	o	79
83948	917380	And if he's not, then he doesn't play.	And if he's not, then he doesn't play.	43641810	1473067884653	1473067884724	t	84
83948	917380	And if he's not, then he doesn't play.	And if he's not, then he doesn't play.	43641826	1473067884820	1473067884934	,	188
83948	917380	And if he's not, then he doesn't play.	And if he's not, then he doesn't play.	43641831	1473067884885	1473067884995	 	32
83948	917380	And if he's not, then he doesn't play.	And if he's not, then he doesn't play.	43641835	1473067885006	1473067885081	t	84
83948	917380	And if he's not, then he doesn't play.	And if he's not, then he doesn't play.	43641840	1473067885044	1473067885121	h	72
83948	917380	And if he's not, then he doesn't play.	And if he's not, then he doesn't play.	43641843	1473067885122	1473067885216	e	69
83948	917380	And if he's not, then he doesn't play.	And if he's not, then he doesn't play.	43641850	1473067885190	1473067885260	n	78
83948	917380	And if he's not, then he doesn't play.	And if he's not, then he doesn't play.	43641852	1473067885270	1473067885370	 	32
83948	917380	And if he's not, then he doesn't play.	And if he's not, then he doesn't play.	43641855	1473067885365	1473067885440	h	72
83948	917380	And if he's not, then he doesn't play.	And if he's not, then he doesn't play.	43641859	1473067885450	1473067885534	e	69
83948	917380	And if he's not, then he doesn't play.	And if he's not, then he doesn't play.	43641863	1473067885546	1473067885636	 	32
83948	917380	And if he's not, then he doesn't play.	And if he's not, then he doesn't play.	43641867	1473067885646	1473067885701	d	68
83948	917380	And if he's not, then he doesn't play.	And if he's not, then he doesn't play.	43641876	1473067885706	1473067885796	o	79
83948	917380	And if he's not, then he doesn't play.	And if he's not, then he doesn't play.	43641880	1473067885816	1473067885881	e	69
83948	917380	And if he's not, then he doesn't play.	And if he's not, then he doesn't play.	43641883	1473067885841	1473067885967	s	83
83948	917380	And if he's not, then he doesn't play.	And if he's not, then he doesn't play.	43641888	1473067885937	1473067885982	n	78
83948	917380	And if he's not, then he doesn't play.	And if he's not, then he doesn't play.	43641893	1473067886062	1473067886133	'	222
83948	917380	And if he's not, then he doesn't play.	And if he's not, then he doesn't play.	43641908	1473067886102	1473067886187	t	84
83948	917380	And if he's not, then he doesn't play.	And if he's not, then he doesn't play.	43641910	1473067886202	1473067886368	 	32
83948	917380	And if he's not, then he doesn't play.	And if he's not, then he doesn't play.	43641912	1473067886369	1473067886408	p	80
83948	917380	And if he's not, then he doesn't play.	And if he's not, then he doesn't play.	43641915	1473067886468	1473067886574	l	76
83948	917380	And if he's not, then he doesn't play.	And if he's not, then he doesn't play.	43641918	1473067886574	1473067886659	a	65
83948	917380	And if he's not, then he doesn't play.	And if he's not, then he doesn't play.	43641925	1473067886688	1473067886739	y	89
83948	917380	And if he's not, then he doesn't play.	And if he's not, then he doesn't play.	43641922	1473067886839	1473067886889	.	190
