PARTICIPANT_ID	TEST_SECTION_ID	SENTENCE	USER_INPUT	KEYSTROKE_ID	PRESS_TIME	RELEASE_TIME	LETTER	KEYCODE
85340	932236	I hope everything worked out okay with your rent.	I hope everything worked out okay with your rent.	44352334	1473093225441	1473093225756	SHIFT	16
85340	932236	I hope everything worked out okay with your rent.	I hope everything worked out okay with your rent.	44352331	1473093225622	1473093225745	NA	73
85340	932236	I hope everything worked out okay with your rent.	I hope everything worked out okay with your rent.	44352336	1473093225772	1473093225905	NA	32
85340	932236	I hope everything worked out okay with your rent.	I hope everything worked out okay with your rent.	44352338	1473093225993	1473093226126	NA	72
85340	932236	I hope everything worked out okay with your rent.	I hope everything worked out okay with your rent.	44352339	1473093226142	1473093226282	NA	79
85340	932236	I hope everything worked out okay with your rent.	I hope everything worked out okay with your rent.	44352340	1473093226379	1473093226518	NA	80
85340	932236	I hope everything worked out okay with your rent.	I hope everything worked out okay with your rent.	44352346	1473093226534	1473093226689	NA	69
85340	932236	I hope everything worked out okay with your rent.	I hope everything worked out okay with your rent.	44352348	1473093226646	1473093226780	NA	32
85340	932236	I hope everything worked out okay with your rent.	I hope everything worked out okay with your rent.	44352352	1473093226953	1473093227124	NA	69
85340	932236	I hope everything worked out okay with your rent.	I hope everything worked out okay with your rent.	44352355	1473093227155	1473093227283	NA	86
85340	932236	I hope everything worked out okay with your rent.	I hope everything worked out okay with your rent.	44352360	1473093227308	1473093227503	NA	69
85340	932236	I hope everything worked out okay with your rent.	I hope everything worked out okay with your rent.	44352404	1473093227415	1473093227560	NA	82
85340	932236	I hope everything worked out okay with your rent.	I hope everything worked out okay with your rent.	44352406	1473093227575	1473093227725	NA	89
85340	932236	I hope everything worked out okay with your rent.	I hope everything worked out okay with your rent.	44352408	1473093227951	1473093228134	NA	84
85340	932236	I hope everything worked out okay with your rent.	I hope everything worked out okay with your rent.	44352411	1473093228001	1473093228178	NA	72
85340	932236	I hope everything worked out okay with your rent.	I hope everything worked out okay with your rent.	44352413	1473093228174	1473093228485	NA	73
85340	932236	I hope everything worked out okay with your rent.	I hope everything worked out okay with your rent.	44352415	1473093228485	1473093228490	NA	78
85340	932236	I hope everything worked out okay with your rent.	I hope everything worked out okay with your rent.	44352425	1473093228496	1473093228654	NA	71
85340	932236	I hope everything worked out okay with your rent.	I hope everything worked out okay with your rent.	44352429	1473093228617	1473093228745	NA	32
85340	932236	I hope everything worked out okay with your rent.	I hope everything worked out okay with your rent.	44352433	1473093228950	1473093229122	NA	87
85340	932236	I hope everything worked out okay with your rent.	I hope everything worked out okay with your rent.	44352437	1473093229058	1473093229271	NA	79
85340	932236	I hope everything worked out okay with your rent.	I hope everything worked out okay with your rent.	44352494	1473093229229	1473093229400	NA	82
85340	932236	I hope everything worked out okay with your rent.	I hope everything worked out okay with your rent.	44352496	1473093229482	1473093229668	NA	75
85340	932236	I hope everything worked out okay with your rent.	I hope everything worked out okay with your rent.	44352498	1473093229823	1473093229951	NA	69
85340	932236	I hope everything worked out okay with your rent.	I hope everything worked out okay with your rent.	44352500	1473093230002	1473093230184	NA	68
85340	932236	I hope everything worked out okay with your rent.	I hope everything worked out okay with your rent.	44352502	1473093230120	1473093230232	NA	32
85340	932236	I hope everything worked out okay with your rent.	I hope everything worked out okay with your rent.	44352504	1473093230238	1473093230420	NA	79
85340	932236	I hope everything worked out okay with your rent.	I hope everything worked out okay with your rent.	44352518	1473093230346	1473093230505	NA	85
85340	932236	I hope everything worked out okay with your rent.	I hope everything worked out okay with your rent.	44352520	1473093230468	1473093230603	NA	84
85340	932236	I hope everything worked out okay with your rent.	I hope everything worked out okay with your rent.	44352522	1473093230617	1473093230741	NA	32
85340	932236	I hope everything worked out okay with your rent.	I hope everything worked out okay with your rent.	44352524	1473093230899	1473093231038	NA	79
85340	932236	I hope everything worked out okay with your rent.	I hope everything worked out okay with your rent.	44352526	1473093231123	1473093231247	NA	75
85340	932236	I hope everything worked out okay with your rent.	I hope everything worked out okay with your rent.	44352556	1473093231240	1473093231379	NA	65
85340	932236	I hope everything worked out okay with your rent.	I hope everything worked out okay with your rent.	44352557	1473093231353	1473093231480	NA	89
85340	932236	I hope everything worked out okay with your rent.	I hope everything worked out okay with your rent.	44352559	1473093231523	1473093231635	NA	32
85340	932236	I hope everything worked out okay with your rent.	I hope everything worked out okay with your rent.	44352563	1473093231763	1473093231903	NA	87
85340	932236	I hope everything worked out okay with your rent.	I hope everything worked out okay with your rent.	44352566	1473093231844	1473093231999	NA	73
85340	932236	I hope everything worked out okay with your rent.	I hope everything worked out okay with your rent.	44352568	1473093232038	1473093232177	NA	84
85340	932236	I hope everything worked out okay with your rent.	I hope everything worked out okay with your rent.	44352606	1473093232102	1473093232279	NA	72
85340	932236	I hope everything worked out okay with your rent.	I hope everything worked out okay with your rent.	44352609	1473093232262	1473093232418	NA	32
85340	932236	I hope everything worked out okay with your rent.	I hope everything worked out okay with your rent.	44352610	1473093232682	1473093232799	NA	89
85340	932236	I hope everything worked out okay with your rent.	I hope everything worked out okay with your rent.	44352611	1473093232794	1473093232970	NA	79
85340	932236	I hope everything worked out okay with your rent.	I hope everything worked out okay with your rent.	44352612	1473093232895	1473093233094	NA	85
85340	932236	I hope everything worked out okay with your rent.	I hope everything worked out okay with your rent.	44352613	1473093233216	1473093233394	NA	82
85340	932236	I hope everything worked out okay with your rent.	I hope everything worked out okay with your rent.	44352643	1473093233371	1473093233489	NA	32
85340	932236	I hope everything worked out okay with your rent.	I hope everything worked out okay with your rent.	44352646	1473093233814	1473093233953	NA	82
85340	932236	I hope everything worked out okay with your rent.	I hope everything worked out okay with your rent.	44352650	1473093233979	1473093234140	NA	69
85340	932236	I hope everything worked out okay with your rent.	I hope everything worked out okay with your rent.	44352652	1473093234107	1473093234247	NA	78
85340	932236	I hope everything worked out okay with your rent.	I hope everything worked out okay with your rent.	44352655	1473093234317	1473093234430	NA	84
85340	932236	I hope everything worked out okay with your rent.	I hope everything worked out okay with your rent.	44352659	1473093234593	1473093234743	NA	190
85340	932248	Clinton said Tuesday he would make an announcement by Thursday.	Clinton said Tuesday he would make an announcement by Thursday.	44352891	1473093240169	1473093240807	SHIFT	16
85340	932248	Clinton said Tuesday he would make an announcement by Thursday.	Clinton said Tuesday he would make an announcement by Thursday.	44352892	1473093240705	1473093240866	NA	67
85340	932248	Clinton said Tuesday he would make an announcement by Thursday.	Clinton said Tuesday he would make an announcement by Thursday.	44352895	1473093240906	1473093241072	NA	76
85340	932248	Clinton said Tuesday he would make an announcement by Thursday.	Clinton said Tuesday he would make an announcement by Thursday.	44352899	1473093241137	1473093241246	NA	73
85340	932248	Clinton said Tuesday he would make an announcement by Thursday.	Clinton said Tuesday he would make an announcement by Thursday.	44352905	1473093241373	1473093241474	NA	78
85340	932248	Clinton said Tuesday he would make an announcement by Thursday.	Clinton said Tuesday he would make an announcement by Thursday.	44352909	1473093241587	1473093241720	NA	84
85340	932248	Clinton said Tuesday he would make an announcement by Thursday.	Clinton said Tuesday he would make an announcement by Thursday.	44352938	1473093241891	1473093242024	NA	79
85340	932248	Clinton said Tuesday he would make an announcement by Thursday.	Clinton said Tuesday he would make an announcement by Thursday.	44352940	1473093242103	1473093242242	NA	78
85340	932248	Clinton said Tuesday he would make an announcement by Thursday.	Clinton said Tuesday he would make an announcement by Thursday.	44352941	1473093242237	1473093242349	NA	32
85340	932248	Clinton said Tuesday he would make an announcement by Thursday.	Clinton said Tuesday he would make an announcement by Thursday.	44352943	1473093242388	1473093242543	NA	83
85340	932248	Clinton said Tuesday he would make an announcement by Thursday.	Clinton said Tuesday he would make an announcement by Thursday.	44352945	1473093242594	1473093242748	NA	65
85340	932248	Clinton said Tuesday he would make an announcement by Thursday.	Clinton said Tuesday he would make an announcement by Thursday.	44353022	1473093242684	1473093242855	NA	73
85340	932248	Clinton said Tuesday he would make an announcement by Thursday.	Clinton said Tuesday he would make an announcement by Thursday.	44353027	1473093242845	1473093243022	NA	68
85340	932248	Clinton said Tuesday he would make an announcement by Thursday.	Clinton said Tuesday he would make an announcement by Thursday.	44353030	1473093242984	1473093243096	NA	32
85340	932248	Clinton said Tuesday he would make an announcement by Thursday.	Clinton said Tuesday he would make an announcement by Thursday.	44353035	1473093243478	1473093243691	SHIFT	16
85340	932248	Clinton said Tuesday he would make an announcement by Thursday.	Clinton said Tuesday he would make an announcement by Thursday.	44353038	1473093243727	1473093243899	NA	84
85340	932248	Clinton said Tuesday he would make an announcement by Thursday.	Clinton said Tuesday he would make an announcement by Thursday.	44353042	1473093244326	1473093244471		8
85340	932248	Clinton said Tuesday he would make an announcement by Thursday.	Clinton said Tuesday he would make an announcement by Thursday.	44353046	1473093244555	1473093244737	SHIFT	16
85340	932248	Clinton said Tuesday he would make an announcement by Thursday.	Clinton said Tuesday he would make an announcement by Thursday.	44353079	1473093244662	1473093244807	NA	84
85340	932248	Clinton said Tuesday he would make an announcement by Thursday.	Clinton said Tuesday he would make an announcement by Thursday.	44353081	1473093244872	1473093245048	NA	85
85340	932248	Clinton said Tuesday he would make an announcement by Thursday.	Clinton said Tuesday he would make an announcement by Thursday.	44353083	1473093245169	1473093245324	NA	69
85340	932248	Clinton said Tuesday he would make an announcement by Thursday.	Clinton said Tuesday he would make an announcement by Thursday.	44353085	1473093245419	1473093245574	NA	83
85340	932248	Clinton said Tuesday he would make an announcement by Thursday.	Clinton said Tuesday he would make an announcement by Thursday.	44353086	1473093245632	1473093245745	NA	32
85340	932248	Clinton said Tuesday he would make an announcement by Thursday.	Clinton said Tuesday he would make an announcement by Thursday.	44353087	1473093245984	1473093246112		8
85340	932248	Clinton said Tuesday he would make an announcement by Thursday.	Clinton said Tuesday he would make an announcement by Thursday.	44353111	1473093246080	1473093246241	NA	68
85340	932248	Clinton said Tuesday he would make an announcement by Thursday.	Clinton said Tuesday he would make an announcement by Thursday.	44353112	1473093246246	1473093246385	NA	65
85340	932248	Clinton said Tuesday he would make an announcement by Thursday.	Clinton said Tuesday he would make an announcement by Thursday.	44353113	1473093246364	1473093246525	NA	89
85340	932248	Clinton said Tuesday he would make an announcement by Thursday.	Clinton said Tuesday he would make an announcement by Thursday.	44353114	1473093246600	1473093246708	NA	32
85340	932248	Clinton said Tuesday he would make an announcement by Thursday.	Clinton said Tuesday he would make an announcement by Thursday.	44353115	1473093246957	1473093247085	NA	72
85340	932248	Clinton said Tuesday he would make an announcement by Thursday.	Clinton said Tuesday he would make an announcement by Thursday.	44353145	1473093247080	1473093247257	NA	69
85340	932248	Clinton said Tuesday he would make an announcement by Thursday.	Clinton said Tuesday he would make an announcement by Thursday.	44353146	1473093247252	1473093247364	NA	32
85340	932248	Clinton said Tuesday he would make an announcement by Thursday.	Clinton said Tuesday he would make an announcement by Thursday.	44353148	1473093247650	1473093247783	NA	87
85340	932248	Clinton said Tuesday he would make an announcement by Thursday.	Clinton said Tuesday he would make an announcement by Thursday.	44353150	1473093247719	1473093247890	NA	79
85340	932248	Clinton said Tuesday he would make an announcement by Thursday.	Clinton said Tuesday he would make an announcement by Thursday.	44353152	1473093247826	1473093247976	NA	85
85340	932248	Clinton said Tuesday he would make an announcement by Thursday.	Clinton said Tuesday he would make an announcement by Thursday.	44353154	1473093248047	1473093248181	NA	76
85340	932248	Clinton said Tuesday he would make an announcement by Thursday.	Clinton said Tuesday he would make an announcement by Thursday.	44353163	1473093248192	1473093248358	NA	68
85340	932248	Clinton said Tuesday he would make an announcement by Thursday.	Clinton said Tuesday he would make an announcement by Thursday.	44353165	1473093248299	1473093248417	NA	32
85340	932248	Clinton said Tuesday he would make an announcement by Thursday.	Clinton said Tuesday he would make an announcement by Thursday.	44353167	1473093248544	1473093248699	NA	77
85340	932248	Clinton said Tuesday he would make an announcement by Thursday.	Clinton said Tuesday he would make an announcement by Thursday.	44353173	1473093248651	1473093248807	NA	65
85340	932248	Clinton said Tuesday he would make an announcement by Thursday.	Clinton said Tuesday he would make an announcement by Thursday.	44353213	1473093248801	1473093248940	NA	75
85340	932248	Clinton said Tuesday he would make an announcement by Thursday.	Clinton said Tuesday he would make an announcement by Thursday.	44353217	1473093248974	1473093249124	NA	69
85340	932248	Clinton said Tuesday he would make an announcement by Thursday.	Clinton said Tuesday he would make an announcement by Thursday.	44353222	1473093249099	1473093249221	NA	32
85340	932248	Clinton said Tuesday he would make an announcement by Thursday.	Clinton said Tuesday he would make an announcement by Thursday.	44353227	1473093249378	1473093249538	NA	65
85340	932248	Clinton said Tuesday he would make an announcement by Thursday.	Clinton said Tuesday he would make an announcement by Thursday.	44353233	1473093249479	1473093249624	NA	78
85340	932248	Clinton said Tuesday he would make an announcement by Thursday.	Clinton said Tuesday he would make an announcement by Thursday.	44353238	1473093249731	1473093249838	NA	32
85340	932248	Clinton said Tuesday he would make an announcement by Thursday.	Clinton said Tuesday he would make an announcement by Thursday.	44353263	1473093249992	1473093250168	NA	65
85340	932248	Clinton said Tuesday he would make an announcement by Thursday.	Clinton said Tuesday he would make an announcement by Thursday.	44353266	1473093250104	1473093250399	NA	78
85340	932248	Clinton said Tuesday he would make an announcement by Thursday.	Clinton said Tuesday he would make an announcement by Thursday.	44353271	1473093250484	1473093250607	NA	78
85340	932248	Clinton said Tuesday he would make an announcement by Thursday.	Clinton said Tuesday he would make an announcement by Thursday.	44353274	1473093250711	1473093250882	NA	79
85340	932248	Clinton said Tuesday he would make an announcement by Thursday.	Clinton said Tuesday he would make an announcement by Thursday.	44353320	1473093250861	1473093251005	NA	85
85340	932248	Clinton said Tuesday he would make an announcement by Thursday.	Clinton said Tuesday he would make an announcement by Thursday.	44353322	1473093251062	1473093251212	NA	84
85340	932248	Clinton said Tuesday he would make an announcement by Thursday.	Clinton said Tuesday he would make an announcement by Thursday.	44353324	1473093251571	1473093251693	NA	78
85340	932248	Clinton said Tuesday he would make an announcement by Thursday.	Clinton said Tuesday he would make an announcement by Thursday.	44353326	1473093251980	1473093252130	NA	67
85340	932248	Clinton said Tuesday he would make an announcement by Thursday.	Clinton said Tuesday he would make an announcement by Thursday.	44353327	1473093252303	1473093252404		8
85340	932248	Clinton said Tuesday he would make an announcement by Thursday.	Clinton said Tuesday he would make an announcement by Thursday.	44353328	1473093252482	1473093252594		8
85340	932248	Clinton said Tuesday he would make an announcement by Thursday.	Clinton said Tuesday he would make an announcement by Thursday.	44353348	1473093252658	1473093252776		8
85340	932248	Clinton said Tuesday he would make an announcement by Thursday.	Clinton said Tuesday he would make an announcement by Thursday.	44353353	1473093252906	1473093253018	NA	78
85340	932248	Clinton said Tuesday he would make an announcement by Thursday.	Clinton said Tuesday he would make an announcement by Thursday.	44353356	1473093253029	1473093253161	NA	67
85340	932248	Clinton said Tuesday he would make an announcement by Thursday.	Clinton said Tuesday he would make an announcement by Thursday.	44353359	1473093253293	1473093253416	NA	69
85340	932248	Clinton said Tuesday he would make an announcement by Thursday.	Clinton said Tuesday he would make an announcement by Thursday.	44353362	1473093253613	1473093253737	NA	77
85340	932248	Clinton said Tuesday he would make an announcement by Thursday.	Clinton said Tuesday he would make an announcement by Thursday.	44353385	1473093253968	1473093254123	NA	69
85340	932248	Clinton said Tuesday he would make an announcement by Thursday.	Clinton said Tuesday he would make an announcement by Thursday.	44353388	1473093254139	1473093254267	NA	78
85340	932248	Clinton said Tuesday he would make an announcement by Thursday.	Clinton said Tuesday he would make an announcement by Thursday.	44353390	1473093254230	1473093254385	NA	84
85340	932248	Clinton said Tuesday he would make an announcement by Thursday.	Clinton said Tuesday he would make an announcement by Thursday.	44353391	1473093254419	1473093254531	NA	32
85340	932248	Clinton said Tuesday he would make an announcement by Thursday.	Clinton said Tuesday he would make an announcement by Thursday.	44353393	1473093254663	1473093254770	NA	66
85340	932248	Clinton said Tuesday he would make an announcement by Thursday.	Clinton said Tuesday he would make an announcement by Thursday.	44353428	1473093254910	1473093255028	NA	89
85340	932248	Clinton said Tuesday he would make an announcement by Thursday.	Clinton said Tuesday he would make an announcement by Thursday.	44353430	1473093255085	1473093255203	NA	32
85340	932248	Clinton said Tuesday he would make an announcement by Thursday.	Clinton said Tuesday he would make an announcement by Thursday.	44353435	1473093255692	1473093255884	SHIFT	16
85340	932248	Clinton said Tuesday he would make an announcement by Thursday.	Clinton said Tuesday he would make an announcement by Thursday.	44353437	1473093255772	1473093255927	NA	84
85340	932248	Clinton said Tuesday he would make an announcement by Thursday.	Clinton said Tuesday he would make an announcement by Thursday.	44353439	1473093256018	1473093256141	NA	72
85340	932248	Clinton said Tuesday he would make an announcement by Thursday.	Clinton said Tuesday he would make an announcement by Thursday.	44353441	1473093256226	1473093256359	NA	85
85340	932248	Clinton said Tuesday he would make an announcement by Thursday.	Clinton said Tuesday he would make an announcement by Thursday.	44353461	1473093256394	1473093256565	NA	82
85340	932248	Clinton said Tuesday he would make an announcement by Thursday.	Clinton said Tuesday he would make an announcement by Thursday.	44353463	1473093256774	1473093256914	NA	83
85340	932248	Clinton said Tuesday he would make an announcement by Thursday.	Clinton said Tuesday he would make an announcement by Thursday.	44353466	1473093257263	1473093257397	NA	68
85340	932248	Clinton said Tuesday he would make an announcement by Thursday.	Clinton said Tuesday he would make an announcement by Thursday.	44353470	1473093257441	1473093257591	NA	65
85340	932248	Clinton said Tuesday he would make an announcement by Thursday.	Clinton said Tuesday he would make an announcement by Thursday.	44353490	1473093257505	1473093257623	NA	89
85340	932248	Clinton said Tuesday he would make an announcement by Thursday.	Clinton said Tuesday he would make an announcement by Thursday.	44353492	1473093257752	1473093257875	NA	190
85340	932263	The move is also against our law.	The move is also against our law.	44353658	1473093262136	1473093262308	SHIFT	16
85340	932263	The move is also against our law.	The move is also against our law.	44353660	1473093262254	1473093262393	NA	84
85340	932263	The move is also against our law.	The move is also against our law.	44353663	1473093262399	1473093262521	NA	72
85340	932263	The move is also against our law.	The move is also against our law.	44353666	1473093262506	1473093262661	NA	69
85340	932263	The move is also against our law.	The move is also against our law.	44353668	1473093262597	1473093262709	NA	32
85340	932263	The move is also against our law.	The move is also against our law.	44353670	1473093262799	1473093262975	NA	77
85340	932263	The move is also against our law.	The move is also against our law.	44353696	1473093262905	1473093263119	NA	79
85340	932263	The move is also against our law.	The move is also against our law.	44353700	1473093263185	1473093263356	NA	86
85340	932263	The move is also against our law.	The move is also against our law.	44353704	1473093263395	1473093263572	NA	69
85340	932263	The move is also against our law.	The move is also against our law.	44353707	1473093263588	1473093263711	NA	32
85340	932263	The move is also against our law.	The move is also against our law.	44353710	1473093263768	1473093263908	NA	73
85340	932263	The move is also against our law.	The move is also against our law.	44353740	1473093263903	1473093264047	NA	83
85340	932263	The move is also against our law.	The move is also against our law.	44353742	1473093264015	1473093264122	NA	32
85340	932263	The move is also against our law.	The move is also against our law.	44353744	1473093264232	1473093264392	NA	65
85340	932263	The move is also against our law.	The move is also against our law.	44353746	1473093264376	1473093264569	NA	76
85340	932263	The move is also against our law.	The move is also against our law.	44353748	1473093264656	1473093264832	NA	83
85340	932263	The move is also against our law.	The move is also against our law.	44353750	1473093264838	1473093265004	NA	79
85340	932263	The move is also against our law.	The move is also against our law.	44353767	1473093264940	1473093265074	NA	32
85340	932263	The move is also against our law.	The move is also against our law.	44353768	1473093265168	1473093265313	NA	65
85340	932263	The move is also against our law.	The move is also against our law.	44353769	1473093265413	1473093265558	NA	71
85340	932263	The move is also against our law.	The move is also against our law.	44353771	1473093265581	1473093265752	NA	65
85340	932263	The move is also against our law.	The move is also against our law.	44353773	1473093265732	1473093265892	NA	73
85340	932263	The move is also against our law.	The move is also against our law.	44353776	1473093265950	1473093266074	NA	78
85340	932263	The move is also against our law.	The move is also against our law.	44353806	1473093266130	1473093266280	NA	83
85340	932263	The move is also against our law.	The move is also against our law.	44353807	1473093266357	1473093266501	NA	84
85340	932263	The move is also against our law.	The move is also against our law.	44353809	1473093266448	1473093266571	NA	32
85340	932263	The move is also against our law.	The move is also against our law.	44353810	1473093266598	1473093266779	NA	79
85340	932263	The move is also against our law.	The move is also against our law.	44353836	1473093266774	1473093266929	NA	82
85340	932263	The move is also against our law.	The move is also against our law.	44353839	1473093266898	1473093267047	NA	85
85340	932263	The move is also against our law.	The move is also against our law.	44353843	1473093267266	1473093267373		8
85340	932263	The move is also against our law.	The move is also against our law.	44353846	1473093267417	1473093267519		8
85340	932263	The move is also against our law.	The move is also against our law.	44353849	1473093267616	1473093267718	NA	85
85340	932263	The move is also against our law.	The move is also against our law.	44353873	1473093267691	1473093267846	NA	82
85340	932263	The move is also against our law.	The move is also against our law.	44353874	1473093267832	1473093267922	NA	32
85340	932263	The move is also against our law.	The move is also against our law.	44353875	1473093267984	1473093268112	NA	76
85340	932263	The move is also against our law.	The move is also against our law.	44353876	1473093268075	1473093268203	NA	65
85340	932263	The move is also against our law.	The move is also against our law.	44353877	1473093268244	1473093268415	NA	87
85340	932263	The move is also against our law.	The move is also against our law.	44353878	1473093268426	1473093268586	NA	190
85340	932272	I know my way around the hospital better than I do the stadium.	I know my way around the hospital better than I do the stadium.	44354024	1473093272663	1473093272849	SHIFT	16
85340	932272	I know my way around the hospital better than I do the stadium.	I know my way around the hospital better than I do the stadium.	44354027	1473093272785	1473093272898	NA	73
85340	932272	I know my way around the hospital better than I do the stadium.	I know my way around the hospital better than I do the stadium.	44354030	1473093272932	1473093273055	NA	32
85340	932272	I know my way around the hospital better than I do the stadium.	I know my way around the hospital better than I do the stadium.	44354032	1473093273138	1473093273293	NA	75
85340	932272	I know my way around the hospital better than I do the stadium.	I know my way around the hospital better than I do the stadium.	44354034	1473093273402	1473093273531	NA	66
85340	932272	I know my way around the hospital better than I do the stadium.	I know my way around the hospital better than I do the stadium.	44354065	1473093273472	1473093273557	NA	79
85340	932272	I know my way around the hospital better than I do the stadium.	I know my way around the hospital better than I do the stadium.	44354067	1473093273520	1473093273562	NA	78
85340	932272	I know my way around the hospital better than I do the stadium.	I know my way around the hospital better than I do the stadium.	44354071	1473093273889	1473093274001		8
85340	932272	I know my way around the hospital better than I do the stadium.	I know my way around the hospital better than I do the stadium.	44354074	1473093274071	1473093274157		8
85340	932272	I know my way around the hospital better than I do the stadium.	I know my way around the hospital better than I do the stadium.	44354076	1473093274202	1473093274314		8
85340	932272	I know my way around the hospital better than I do the stadium.	I know my way around the hospital better than I do the stadium.	44354078	1473093274444	1473093274599	NA	78
85340	932272	I know my way around the hospital better than I do the stadium.	I know my way around the hospital better than I do the stadium.	44354101	1473093274588	1473093274722	NA	79
85340	932272	I know my way around the hospital better than I do the stadium.	I know my way around the hospital better than I do the stadium.	44354106	1473093274712	1473093274840	NA	87
85340	932272	I know my way around the hospital better than I do the stadium.	I know my way around the hospital better than I do the stadium.	44354108	1473093274787	1473093274878	NA	32
85340	932272	I know my way around the hospital better than I do the stadium.	I know my way around the hospital better than I do the stadium.	44354109	1473093274957	1473093275107	NA	77
85340	932272	I know my way around the hospital better than I do the stadium.	I know my way around the hospital better than I do the stadium.	44354110	1473093275198	1473093275324	NA	89
85340	932272	I know my way around the hospital better than I do the stadium.	I know my way around the hospital better than I do the stadium.	44354112	1473093275363	1473093275470	NA	32
85340	932272	I know my way around the hospital better than I do the stadium.	I know my way around the hospital better than I do the stadium.	44354128	1473093275559	1473093275666	NA	65
85340	932272	I know my way around the hospital better than I do the stadium.	I know my way around the hospital better than I do the stadium.	44354129	1473093276060	1473093276179		8
85340	932272	I know my way around the hospital better than I do the stadium.	I know my way around the hospital better than I do the stadium.	44354130	1473093276141	1473093276265	NA	87
85340	932272	I know my way around the hospital better than I do the stadium.	I know my way around the hospital better than I do the stadium.	44354131	1473093276228	1473093276376	NA	65
85340	932272	I know my way around the hospital better than I do the stadium.	I know my way around the hospital better than I do the stadium.	44354162	1473093276323	1473093276440	NA	89
85340	932272	I know my way around the hospital better than I do the stadium.	I know my way around the hospital better than I do the stadium.	44354166	1473093276533	1473093276634	NA	32
85340	932272	I know my way around the hospital better than I do the stadium.	I know my way around the hospital better than I do the stadium.	44354170	1473093276778	1473093276975	NA	65
85340	932272	I know my way around the hospital better than I do the stadium.	I know my way around the hospital better than I do the stadium.	44354176	1473093276998	1473093277154	NA	82
85340	932272	I know my way around the hospital better than I do the stadium.	I know my way around the hospital better than I do the stadium.	44354180	1473093277132	1473093277304	NA	79
85340	932272	I know my way around the hospital better than I do the stadium.	I know my way around the hospital better than I do the stadium.	44354207	1473093277261	1473093277406	NA	85
85340	932272	I know my way around the hospital better than I do the stadium.	I know my way around the hospital better than I do the stadium.	44354209	1473093277540	1473093277669	NA	78
85340	932272	I know my way around the hospital better than I do the stadium.	I know my way around the hospital better than I do the stadium.	44354212	1473093277679	1473093277814	NA	68
85340	932272	I know my way around the hospital better than I do the stadium.	I know my way around the hospital better than I do the stadium.	44354214	1473093277754	1473093277877	NA	32
85340	932272	I know my way around the hospital better than I do the stadium.	I know my way around the hospital better than I do the stadium.	44354216	1473093277941	1473093278091	NA	84
85340	932272	I know my way around the hospital better than I do the stadium.	I know my way around the hospital better than I do the stadium.	44354247	1473093278011	1473093278139	NA	72
85340	932272	I know my way around the hospital better than I do the stadium.	I know my way around the hospital better than I do the stadium.	44354250	1473093278168	1473093278307	NA	69
85340	932272	I know my way around the hospital better than I do the stadium.	I know my way around the hospital better than I do the stadium.	44354252	1473093278249	1473093278361	NA	32
85340	932272	I know my way around the hospital better than I do the stadium.	I know my way around the hospital better than I do the stadium.	44354254	1473093278739	1473093278879	NA	72
85340	932272	I know my way around the hospital better than I do the stadium.	I know my way around the hospital better than I do the stadium.	44354256	1473093278862	1473093279001	NA	79
85340	932272	I know my way around the hospital better than I do the stadium.	I know my way around the hospital better than I do the stadium.	44354258	1473093279028	1473093279199	NA	83
85340	932272	I know my way around the hospital better than I do the stadium.	I know my way around the hospital better than I do the stadium.	44354309	1473093279485	1473093279597	NA	80
85340	932272	I know my way around the hospital better than I do the stadium.	I know my way around the hospital better than I do the stadium.	44354311	1473093279800	1473093279934	NA	73
85340	932272	I know my way around the hospital better than I do the stadium.	I know my way around the hospital better than I do the stadium.	44354312	1473093279977	1473093280132	NA	84
85340	932272	I know my way around the hospital better than I do the stadium.	I know my way around the hospital better than I do the stadium.	44354313	1473093280234	1473093280384	NA	65
85340	932272	I know my way around the hospital better than I do the stadium.	I know my way around the hospital better than I do the stadium.	44354359	1473093280336	1473093280550	NA	76
85340	932272	I know my way around the hospital better than I do the stadium.	I know my way around the hospital better than I do the stadium.	44354364	1473093280486	1473093280625	NA	32
85340	932272	I know my way around the hospital better than I do the stadium.	I know my way around the hospital better than I do the stadium.	44354368	1473093281065	1473093281182	NA	66
85340	932272	I know my way around the hospital better than I do the stadium.	I know my way around the hospital better than I do the stadium.	44354370	1473093281213	1473093281358	NA	69
85340	932272	I know my way around the hospital better than I do the stadium.	I know my way around the hospital better than I do the stadium.	44354371	1473093281466	1473093281734	NA	84
85340	932272	I know my way around the hospital better than I do the stadium.	I know my way around the hospital better than I do the stadium.	44354372	1473093281813	1473093281963	NA	84
85340	932272	I know my way around the hospital better than I do the stadium.	I know my way around the hospital better than I do the stadium.	44354394	1473093282025	1473093282174	NA	69
85340	932272	I know my way around the hospital better than I do the stadium.	I know my way around the hospital better than I do the stadium.	44354397	1473093282073	1473093282239	NA	82
85340	932272	I know my way around the hospital better than I do the stadium.	I know my way around the hospital better than I do the stadium.	44354402	1473093282190	1473093282314	NA	32
85340	932272	I know my way around the hospital better than I do the stadium.	I know my way around the hospital better than I do the stadium.	44354405	1473093282612	1473093282740	NA	84
85340	932272	I know my way around the hospital better than I do the stadium.	I know my way around the hospital better than I do the stadium.	44354432	1473093282719	1473093282831	NA	72
85340	932272	I know my way around the hospital better than I do the stadium.	I know my way around the hospital better than I do the stadium.	44354434	1473093282889	1473093283018	NA	65
85340	932272	I know my way around the hospital better than I do the stadium.	I know my way around the hospital better than I do the stadium.	44354436	1473093283042	1473093283196	NA	78
85340	932272	I know my way around the hospital better than I do the stadium.	I know my way around the hospital better than I do the stadium.	44354438	1473093283175	1473093283310	NA	32
85340	932272	I know my way around the hospital better than I do the stadium.	I know my way around the hospital better than I do the stadium.	44354440	1473093283625	1473093283764	SHIFT	16
85340	932272	I know my way around the hospital better than I do the stadium.	I know my way around the hospital better than I do the stadium.	44354444	1473093283912	1473093284176	SHIFT	16
85340	932272	I know my way around the hospital better than I do the stadium.	I know my way around the hospital better than I do the stadium.	44354442	1473093284014	1473093284164	NA	73
85340	932272	I know my way around the hospital better than I do the stadium.	I know my way around the hospital better than I do the stadium.	44354447	1473093284211	1473093284334	NA	32
85340	932272	I know my way around the hospital better than I do the stadium.	I know my way around the hospital better than I do the stadium.	44354461	1473093284468	1473093284633	NA	68
85340	932272	I know my way around the hospital better than I do the stadium.	I know my way around the hospital better than I do the stadium.	44354464	1473093284564	1473093284725	NA	79
85340	932272	I know my way around the hospital better than I do the stadium.	I know my way around the hospital better than I do the stadium.	44354467	1473093284655	1473093284821	NA	32
85340	932272	I know my way around the hospital better than I do the stadium.	I know my way around the hospital better than I do the stadium.	44354470	1473093285190	1473093285329	NA	84
85340	932272	I know my way around the hospital better than I do the stadium.	I know my way around the hospital better than I do the stadium.	44354484	1473093285271	1473093285421	NA	72
85340	932272	I know my way around the hospital better than I do the stadium.	I know my way around the hospital better than I do the stadium.	44354486	1473093285431	1473093285570	NA	69
85340	932272	I know my way around the hospital better than I do the stadium.	I know my way around the hospital better than I do the stadium.	44354487	1473093285511	1473093285623	NA	32
85340	932272	I know my way around the hospital better than I do the stadium.	I know my way around the hospital better than I do the stadium.	44354489	1473093285734	1473093285862	NA	83
85340	932272	I know my way around the hospital better than I do the stadium.	I know my way around the hospital better than I do the stadium.	44354491	1473093285925	1473093286052	NA	84
85340	932272	I know my way around the hospital better than I do the stadium.	I know my way around the hospital better than I do the stadium.	44354493	1473093286080	1473093286247	NA	65
85340	932272	I know my way around the hospital better than I do the stadium.	I know my way around the hospital better than I do the stadium.	44354550	1473093286566	1473093286715	NA	68
85340	932272	I know my way around the hospital better than I do the stadium.	I know my way around the hospital better than I do the stadium.	44354553	1473093286705	1473093286802	NA	73
85340	932272	I know my way around the hospital better than I do the stadium.	I know my way around the hospital better than I do the stadium.	44354555	1473093286796	1473093286968	NA	85
85340	932272	I know my way around the hospital better than I do the stadium.	I know my way around the hospital better than I do the stadium.	44354558	1473093287422	1473093287578	NA	77
85340	932272	I know my way around the hospital better than I do the stadium.	I know my way around the hospital better than I do the stadium.	44354560	1473093287832	1473093287966	NA	190
85340	932286	Peace talks last week in Kirghizstan.	Peace talks last week in Kirghizstan.	44354736	1473093291387	1473093291648	SHIFT	16
85340	932286	Peace talks last week in Kirghizstan.	Peace talks last week in Kirghizstan.	44354737	1473093291547	1473093291692	NA	80
85340	932286	Peace talks last week in Kirghizstan.	Peace talks last week in Kirghizstan.	44354739	1473093291902	1473093292094	NA	69
85340	932286	Peace talks last week in Kirghizstan.	Peace talks last week in Kirghizstan.	44354742	1473093292093	1473093292164	NA	65
85340	932286	Peace talks last week in Kirghizstan.	Peace talks last week in Kirghizstan.	44354745	1473093292296	1473093292392	NA	67
85340	932286	Peace talks last week in Kirghizstan.	Peace talks last week in Kirghizstan.	44354749	1473093292722	1473093292866	NA	69
85340	932286	Peace talks last week in Kirghizstan.	Peace talks last week in Kirghizstan.	44354764	1473093292890	1473093293008	NA	32
85340	932286	Peace talks last week in Kirghizstan.	Peace talks last week in Kirghizstan.	44354767	1473093293160	1473093293289	NA	84
85340	932286	Peace talks last week in Kirghizstan.	Peace talks last week in Kirghizstan.	44354770	1473093293317	1473093293461	NA	65
85340	932286	Peace talks last week in Kirghizstan.	Peace talks last week in Kirghizstan.	44354771	1473093293397	1473093293542	NA	76
85340	932286	Peace talks last week in Kirghizstan.	Peace talks last week in Kirghizstan.	44354773	1473093293659	1473093293793	NA	75
85340	932286	Peace talks last week in Kirghizstan.	Peace talks last week in Kirghizstan.	44354804	1473093293824	1473093293963	NA	69
85340	932286	Peace talks last week in Kirghizstan.	Peace talks last week in Kirghizstan.	44354806	1473093294257	1473093294396		8
85340	932286	Peace talks last week in Kirghizstan.	Peace talks last week in Kirghizstan.	44354808	1473093294380	1473093294498	NA	83
85340	932286	Peace talks last week in Kirghizstan.	Peace talks last week in Kirghizstan.	44354811	1473093294488	1473093294605	NA	32
85340	932286	Peace talks last week in Kirghizstan.	Peace talks last week in Kirghizstan.	44354814	1473093294727	1473093294899	NA	76
85340	932286	Peace talks last week in Kirghizstan.	Peace talks last week in Kirghizstan.	44354839	1473093294883	1473093295027	NA	65
85340	932286	Peace talks last week in Kirghizstan.	Peace talks last week in Kirghizstan.	44354843	1473093295074	1473093295219	NA	83
85340	932286	Peace talks last week in Kirghizstan.	Peace talks last week in Kirghizstan.	44354846	1473093295288	1473093295439	NA	84
85340	932286	Peace talks last week in Kirghizstan.	Peace talks last week in Kirghizstan.	44354847	1473093295422	1473093295551	NA	32
85340	932286	Peace talks last week in Kirghizstan.	Peace talks last week in Kirghizstan.	44354849	1473093295625	1473093295753	NA	87
85340	932286	Peace talks last week in Kirghizstan.	Peace talks last week in Kirghizstan.	44354850	1473093295872	1473093295941	NA	69
85340	932286	Peace talks last week in Kirghizstan.	Peace talks last week in Kirghizstan.	44354874	1473093296012	1473093296151	NA	69
85340	932286	Peace talks last week in Kirghizstan.	Peace talks last week in Kirghizstan.	44354879	1473093296130	1473093296339	NA	75
85340	932286	Peace talks last week in Kirghizstan.	Peace talks last week in Kirghizstan.	44354881	1473093296269	1473093296408	NA	32
85340	932286	Peace talks last week in Kirghizstan.	Peace talks last week in Kirghizstan.	44354886	1473093296683	1473093296797	NA	73
85340	932286	Peace talks last week in Kirghizstan.	Peace talks last week in Kirghizstan.	44354892	1473093296864	1473093297042	NA	78
85340	932286	Peace talks last week in Kirghizstan.	Peace talks last week in Kirghizstan.	44354976	1473093296983	1473093297111	NA	32
85340	932286	Peace talks last week in Kirghizstan.	Peace talks last week in Kirghizstan.	44354984	1473093297366	1473093297628	SHIFT	16
85340	932286	Peace talks last week in Kirghizstan.	Peace talks last week in Kirghizstan.	44354980	1473093297473	1473093297607	NA	75
85340	932286	Peace talks last week in Kirghizstan.	Peace talks last week in Kirghizstan.	44354990	1473093297712	1473093297846	NA	73
85340	932286	Peace talks last week in Kirghizstan.	Peace talks last week in Kirghizstan.	44354994	1473093298159	1473093298303	NA	82
85340	932286	Peace talks last week in Kirghizstan.	Peace talks last week in Kirghizstan.	44354998	1473093298587	1473093298705	NA	71
85340	932286	Peace talks last week in Kirghizstan.	Peace talks last week in Kirghizstan.	44354999	1473093298837	1473093298987	NA	72
85340	932286	Peace talks last week in Kirghizstan.	Peace talks last week in Kirghizstan.	44355037	1473093299065	1473093299204	NA	73
85340	932286	Peace talks last week in Kirghizstan.	Peace talks last week in Kirghizstan.	44355041	1473093299555	1473093299716	NA	90
85340	932286	Peace talks last week in Kirghizstan.	Peace talks last week in Kirghizstan.	44355044	1473093300065	1473093300193	NA	83
85340	932286	Peace talks last week in Kirghizstan.	Peace talks last week in Kirghizstan.	44355046	1473093300292	1473093300409	NA	84
85340	932286	Peace talks last week in Kirghizstan.	Peace talks last week in Kirghizstan.	44355048	1473093300477	1473093300606	NA	65
85340	932286	Peace talks last week in Kirghizstan.	Peace talks last week in Kirghizstan.	44355073	1473093300630	1473093300769	NA	78
85340	932286	Peace talks last week in Kirghizstan.	Peace talks last week in Kirghizstan.	44355074	1473093300886	1473093301036	NA	190
85340	932295	Very truly yours, Acme Costume Co.	Very truly yous, Acme Costume Co.	44355308	1473093306707	1473093307055	SHIFT	16
85340	932295	Very truly yours, Acme Costume Co.	Very truly yous, Acme Costume Co.	44355310	1473093306922	1473093307060	NA	66
85340	932295	Very truly yours, Acme Costume Co.	Very truly yous, Acme Costume Co.	44355312	1473093307285	1473093307376	NA	69
85340	932295	Very truly yours, Acme Costume Co.	Very truly yous, Acme Costume Co.	44355314	1473093307613	1473093307731		8
85340	932295	Very truly yours, Acme Costume Co.	Very truly yous, Acme Costume Co.	44355317	1473093307784	1473093307912		8
85340	932295	Very truly yours, Acme Costume Co.	Very truly yous, Acme Costume Co.	44355319	1473093308090	1473093308347	SHIFT	16
85340	932295	Very truly yours, Acme Costume Co.	Very truly yous, Acme Costume Co.	44355360	1473093308240	1473093308369	NA	86
85340	932295	Very truly yours, Acme Costume Co.	Very truly yous, Acme Costume Co.	44355362	1473093308400	1473093308587	NA	69
85340	932295	Very truly yours, Acme Costume Co.	Very truly yous, Acme Costume Co.	44355364	1473093308513	1473093308684	NA	82
85340	932295	Very truly yours, Acme Costume Co.	Very truly yous, Acme Costume Co.	44355366	1473093308745	1473093308880	NA	89
85340	932295	Very truly yours, Acme Costume Co.	Very truly yous, Acme Costume Co.	44355368	1473093308936	1473093309080	NA	32
85340	932295	Very truly yours, Acme Costume Co.	Very truly yous, Acme Costume Co.	44355370	1473093309475	1473093309609	NA	84
85340	932295	Very truly yours, Acme Costume Co.	Very truly yous, Acme Costume Co.	44355367	1473093309744	1473093309888	NA	82
85340	932295	Very truly yours, Acme Costume Co.	Very truly yous, Acme Costume Co.	44355369	1473093309930	1473093310096	NA	85
85340	932295	Very truly yours, Acme Costume Co.	Very truly yous, Acme Costume Co.	44355371	1473093310280	1473093310409	NA	76
85340	932295	Very truly yours, Acme Costume Co.	Very truly yous, Acme Costume Co.	44355372	1473093310647	1473093310765	NA	89
85340	932295	Very truly yours, Acme Costume Co.	Very truly yous, Acme Costume Co.	44355373	1473093310916	1473093311051	NA	32
85340	932295	Very truly yours, Acme Costume Co.	Very truly yous, Acme Costume Co.	44355407	1473093311322	1473093311435	NA	89
85340	932295	Very truly yours, Acme Costume Co.	Very truly yous, Acme Costume Co.	44355409	1473093311440	1473093311633	NA	79
85340	932295	Very truly yours, Acme Costume Co.	Very truly yous, Acme Costume Co.	44355411	1473093311536	1473093311702	NA	85
85340	932295	Very truly yours, Acme Costume Co.	Very truly yous, Acme Costume Co.	44355413	1473093311808	1473093311973	NA	83
85340	932295	Very truly yours, Acme Costume Co.	Very truly yous, Acme Costume Co.	44355415	1473093312022	1473093312194	NA	190
85340	932295	Very truly yours, Acme Costume Co.	Very truly yous, Acme Costume Co.	44355447	1473093312440	1473093312552		8
85340	932295	Very truly yours, Acme Costume Co.	Very truly yous, Acme Costume Co.	44355448	1473093312684	1473093312834	NA	188
85340	932295	Very truly yours, Acme Costume Co.	Very truly yous, Acme Costume Co.	44355449	1473093312907	1473093313057	NA	32
85340	932295	Very truly yours, Acme Costume Co.	Very truly yous, Acme Costume Co.	44355450	1473093313299	1473093313491	SHIFT	16
85340	932295	Very truly yours, Acme Costume Co.	Very truly yous, Acme Costume Co.	44355451	1473093313390	1473093313497	NA	65
85340	932295	Very truly yours, Acme Costume Co.	Very truly yous, Acme Costume Co.	44355452	1473093313635	1473093313775	NA	67
85340	932295	Very truly yours, Acme Costume Co.	Very truly yous, Acme Costume Co.	44355512	1473093313800	1473093313935	NA	77
85340	932295	Very truly yours, Acme Costume Co.	Very truly yous, Acme Costume Co.	44355515	1473093314007	1473093314136	NA	69
85340	932295	Very truly yours, Acme Costume Co.	Very truly yous, Acme Costume Co.	44355518	1473093314104	1473093314237	NA	32
85340	932295	Very truly yours, Acme Costume Co.	Very truly yous, Acme Costume Co.	44355522	1473093314428	1473093314631	SHIFT	16
85340	932295	Very truly yours, Acme Costume Co.	Very truly yous, Acme Costume Co.	44355525	1473093314535	1473093314685	NA	67
85340	932295	Very truly yours, Acme Costume Co.	Very truly yous, Acme Costume Co.	44355527	1473093314758	1473093314924	NA	79
85340	932295	Very truly yours, Acme Costume Co.	Very truly yous, Acme Costume Co.	44355555	1473093315024	1473093315152	NA	78
85340	932295	Very truly yours, Acme Costume Co.	Very truly yous, Acme Costume Co.	44355557	1473093315600	1473093315744		8
85340	932295	Very truly yours, Acme Costume Co.	Very truly yous, Acme Costume Co.	44355559	1473093315739	1473093315878	NA	83
85340	932295	Very truly yours, Acme Costume Co.	Very truly yous, Acme Costume Co.	44355562	1473093315967	1473093316155	NA	84
85340	932295	Very truly yours, Acme Costume Co.	Very truly yous, Acme Costume Co.	44355590	1473093316150	1473093316283	NA	85
85340	932295	Very truly yours, Acme Costume Co.	Very truly yous, Acme Costume Co.	44355593	1473093316386	1473093316525	NA	77
85340	932295	Very truly yours, Acme Costume Co.	Very truly yous, Acme Costume Co.	44355596	1473093316488	1473093316632	NA	69
85340	932295	Very truly yours, Acme Costume Co.	Very truly yous, Acme Costume Co.	44355600	1473093316648	1473093316777	NA	32
85340	932295	Very truly yours, Acme Costume Co.	Very truly yous, Acme Costume Co.	44355602	1473093316955	1473093317195	SHIFT	16
85340	932295	Very truly yours, Acme Costume Co.	Very truly yous, Acme Costume Co.	44355605	1473093317067	1473093317211	NA	67
85340	932295	Very truly yours, Acme Costume Co.	Very truly yous, Acme Costume Co.	44355608	1473093317309	1473093317437	NA	79
85340	932295	Very truly yours, Acme Costume Co.	Very truly yous, Acme Costume Co.	44355616	1473093317841	1473093318007	NA	190
85340	932309	You just can't work without me can you?	You just can't work without me can you?	44355828	1473093324468	1473093324763	SHIFT	16
85340	932309	You just can't work without me can you?	You just can't work without me can you?	44355825	1473093324606	1473093324756	NA	89
85340	932309	You just can't work without me can you?	You just can't work without me can you?	44355831	1473093324817	1473093324983	NA	79
85340	932309	You just can't work without me can you?	You just can't work without me can you?	44355832	1473093324903	1473093325074	NA	85
85340	932309	You just can't work without me can you?	You just can't work without me can you?	44355835	1473093325100	1473093325228	NA	32
85340	932309	You just can't work without me can you?	You just can't work without me can you?	44355838	1473093325433	1473093325545	NA	74
85340	932309	You just can't work without me can you?	You just can't work without me can you?	44355865	1473093325633	1473093325740	NA	85
85340	932309	You just can't work without me can you?	You just can't work without me can you?	44355867	1473093325782	1473093325932	NA	83
85340	932309	You just can't work without me can you?	You just can't work without me can you?	44355869	1473093325943	1473093326120	NA	84
85340	932309	You just can't work without me can you?	You just can't work without me can you?	44355871	1473093326039	1473093326179	NA	32
85340	932309	You just can't work without me can you?	You just can't work without me can you?	44355873	1473093326416	1473093326562	NA	67
85340	932309	You just can't work without me can you?	You just can't work without me can you?	44355905	1473093326555	1473093326726	NA	65
85340	932309	You just can't work without me can you?	You just can't work without me can you?	44355906	1473093326678	1473093326854	NA	78
85340	932309	You just can't work without me can you?	You just can't work without me can you?	44355908	1473093326790	1473093326967	NA	222
85340	932309	You just can't work without me can you?	You just can't work without me can you?	44355910	1473093326983	1473093327145	NA	84
85340	932309	You just can't work without me can you?	You just can't work without me can you?	44355912	1473093327127	1473093327272	NA	32
85340	932309	You just can't work without me can you?	You just can't work without me can you?	44355914	1473093327431	1473093327601	NA	87
85340	932309	You just can't work without me can you?	You just can't work without me can you?	44355975	1473093327511	1473093327726	NA	79
85340	932309	You just can't work without me can you?	You just can't work without me can you?	44355978	1473093327786	1473093327941	NA	82
85340	932309	You just can't work without me can you?	You just can't work without me can you?	44355980	1473093327964	1473093328130	NA	75
85340	932309	You just can't work without me can you?	You just can't work without me can you?	44355982	1473093328180	1473093328330	NA	32
85340	932309	You just can't work without me can you?	You just can't work without me can you?	44355984	1473093328427	1473093328599	NA	87
85340	932309	You just can't work without me can you?	You just can't work without me can you?	44355986	1473093328644	1473093328799	NA	73
85340	932309	You just can't work without me can you?	You just can't work without me can you?	44355989	1473093328794	1473093328944	NA	84
85340	932309	You just can't work without me can you?	You just can't work without me can you?	44355992	1473093329036	1473093329197	NA	72
85340	932309	You just can't work without me can you?	You just can't work without me can you?	44355995	1473093329277	1473093329476	NA	79
85340	932309	You just can't work without me can you?	You just can't work without me can you?	44355998	1473093329427	1473093329566	NA	85
85340	932309	You just can't work without me can you?	You just can't work without me can you?	44356000	1473093329609	1473093329748	NA	84
85340	932309	You just can't work without me can you?	You just can't work without me can you?	44356045	1473093329710	1473093329839	NA	32
85340	932309	You just can't work without me can you?	You just can't work without me can you?	44356046	1473093329981	1473093330131	NA	77
85340	932309	You just can't work without me can you?	You just can't work without me can you?	44356048	1473093330236	1473093330392	NA	69
85340	932309	You just can't work without me can you?	You just can't work without me can you?	44356052	1473093330349	1473093330483	NA	32
85340	932309	You just can't work without me can you?	You just can't work without me can you?	44356057	1473093330592	1473093330790	NA	67
85340	932309	You just can't work without me can you?	You just can't work without me can you?	44356061	1473093330826	1473093330981	NA	65
85340	932309	You just can't work without me can you?	You just can't work without me can you?	44356096	1473093330895	1473093331090	NA	78
85340	932309	You just can't work without me can you?	You just can't work without me can you?	44356098	1473093331003	1473093331152	NA	32
85340	932309	You just can't work without me can you?	You just can't work without me can you?	44356102	1473093331310	1473093331443	NA	89
85340	932309	You just can't work without me can you?	You just can't work without me can you?	44356105	1473093331438	1473093331631	NA	79
85340	932309	You just can't work without me can you?	You just can't work without me can you?	44356109	1473093331535	1473093331684	NA	85
85340	932309	You just can't work without me can you?	You just can't work without me can you?	44356106	1473093332111	1473093332454	SHIFT	16
85340	932309	You just can't work without me can you?	You just can't work without me can you?	44356112	1473093332298	1473093332416	NA	191
85340	932315	Did you tell Steve?	Did you tell Steve?	44356200	1473093334923	1473093335098	SHIFT	16
85340	932315	Did you tell Steve?	Did you tell Steve?	44356201	1473093335035	1473093335178	NA	68
85340	932315	Did you tell Steve?	Did you tell Steve?	44356202	1473093335168	1473093335324	NA	73
85340	932315	Did you tell Steve?	Did you tell Steve?	44356203	1473093335380	1473093335541	NA	68
85340	932315	Did you tell Steve?	Did you tell Steve?	44356204	1473093335613	1473093335778	NA	89
85340	932315	Did you tell Steve?	Did you tell Steve?	44356205	1473093335824	1473093336011	NA	79
85340	932315	Did you tell Steve?	Did you tell Steve?	44356224	1473093335947	1473093336140	NA	85
85340	932315	Did you tell Steve?	Did you tell Steve?	44356225	1473093336353	1473093336470		8
85340	932315	Did you tell Steve?	Did you tell Steve?	44356226	1473093336534	1473093336652		8
85340	932315	Did you tell Steve?	Did you tell Steve?	44356227	1473093336702	1473093336830		8
85340	932315	Did you tell Steve?	Did you tell Steve?	44356228	1473093336902	1473093337063	NA	32
85340	932315	Did you tell Steve?	Did you tell Steve?	44356229	1473093337118	1473093337231	NA	89
85340	932315	Did you tell Steve?	Did you tell Steve?	44356243	1473093337204	1473093337418	NA	79
85340	932315	Did you tell Steve?	Did you tell Steve?	44356244	1473093337381	1473093337520	NA	85
85340	932315	Did you tell Steve?	Did you tell Steve?	44356245	1473093337466	1473093337594	NA	32
85340	932315	Did you tell Steve?	Did you tell Steve?	44356246	1473093337621	1473093337766	NA	84
85340	932315	Did you tell Steve?	Did you tell Steve?	44356247	1473093337920	1473093338048	NA	73
85340	932315	Did you tell Steve?	Did you tell Steve?	44356248	1473093338133	1473093338192	NA	76
85340	932315	Did you tell Steve?	Did you tell Steve?	44356274	1473093338420	1473093338511		8
85340	932315	Did you tell Steve?	Did you tell Steve?	44356277	1473093338579	1473093338687		8
85340	932315	Did you tell Steve?	Did you tell Steve?	44356280	1473093338717	1473093338862	NA	69
85340	932315	Did you tell Steve?	Did you tell Steve?	44356283	1473093338830	1473093338947	NA	76
85340	932315	Did you tell Steve?	Did you tell Steve?	44356285	1473093339010	1473093339112	NA	76
85340	932315	Did you tell Steve?	Did you tell Steve?	44356321	1473093339165	1473093339255	NA	32
85340	932315	Did you tell Steve?	Did you tell Steve?	44356323	1473093339324	1473093339528	SHIFT	16
85340	932315	Did you tell Steve?	Did you tell Steve?	44356330	1473093339388	1473093339532	NA	83
85340	932315	Did you tell Steve?	Did you tell Steve?	44356334	1473093339612	1473093339767	NA	84
85340	932315	Did you tell Steve?	Did you tell Steve?	44356338	1473093339865	1473093339998	NA	69
85340	932315	Did you tell Steve?	Did you tell Steve?	44356342	1473093340139	1473093340278	NA	86
85340	932315	Did you tell Steve?	Did you tell Steve?	44356351	1473093340294	1473093340476	NA	69
85340	932315	Did you tell Steve?	Did you tell Steve?	44356353	1473093340569	1473093340831	SHIFT	16
85340	932322	In his third season, Booker has become a superb Fantasy wideout.	In his third season, Booker has become a superb Fantasy wideout.	44356473	1473093343313	1473093343575	SHIFT	16
85340	932322	In his third season, Booker has become a superb Fantasy wideout.	In his third season, Booker has become a superb Fantasy wideout.	44356471	1473093343441	1473093343548	NA	73
85340	932322	In his third season, Booker has become a superb Fantasy wideout.	In his third season, Booker has become a superb Fantasy wideout.	44356475	1473093343980	1473093344140	NA	78
85340	932322	In his third season, Booker has become a superb Fantasy wideout.	In his third season, Booker has become a superb Fantasy wideout.	44356478	1473093344145	1473093344226	NA	32
85340	932322	In his third season, Booker has become a superb Fantasy wideout.	In his third season, Booker has become a superb Fantasy wideout.	44356482	1473093344371	1473093344511	NA	72
85340	932322	In his third season, Booker has become a superb Fantasy wideout.	In his third season, Booker has become a superb Fantasy wideout.	44356487	1473093344583	1473093344716	NA	73
85340	932322	In his third season, Booker has become a superb Fantasy wideout.	In his third season, Booker has become a superb Fantasy wideout.	44356515	1473093344764	1473093344913	NA	83
85340	932322	In his third season, Booker has become a superb Fantasy wideout.	In his third season, Booker has become a superb Fantasy wideout.	44356517	1473093344908	1473093345026	NA	32
85340	932322	In his third season, Booker has become a superb Fantasy wideout.	In his third season, Booker has become a superb Fantasy wideout.	44356521	1473093345349	1473093345493	NA	84
85340	932322	In his third season, Booker has become a superb Fantasy wideout.	In his third season, Booker has become a superb Fantasy wideout.	44356524	1473093345545	1473093345717	NA	72
85340	932322	In his third season, Booker has become a superb Fantasy wideout.	In his third season, Booker has become a superb Fantasy wideout.	44356526	1473093345755	1473093345910	NA	73
85340	932322	In his third season, Booker has become a superb Fantasy wideout.	In his third season, Booker has become a superb Fantasy wideout.	44356563	1473093345984	1473093346139	NA	82
85340	932322	In his third season, Booker has become a superb Fantasy wideout.	In his third season, Booker has become a superb Fantasy wideout.	44356565	1473093346270	1473093346463	NA	68
85340	932322	In his third season, Booker has become a superb Fantasy wideout.	In his third season, Booker has become a superb Fantasy wideout.	44356568	1473093346474	1473093346592	NA	32
85340	932322	In his third season, Booker has become a superb Fantasy wideout.	In his third season, Booker has become a superb Fantasy wideout.	44356571	1473093346627	1473093346813	NA	83
85340	932322	In his third season, Booker has become a superb Fantasy wideout.	In his third season, Booker has become a superb Fantasy wideout.	44356576	1473093346829	1473093347006	NA	69
85340	932322	In his third season, Booker has become a superb Fantasy wideout.	In his third season, Booker has become a superb Fantasy wideout.	44356622	1473093347053	1473093347214	NA	65
85340	932322	In his third season, Booker has become a superb Fantasy wideout.	In his third season, Booker has become a superb Fantasy wideout.	44356626	1473093347225	1473093347466	NA	83
85340	932322	In his third season, Booker has become a superb Fantasy wideout.	In his third season, Booker has become a superb Fantasy wideout.	44356632	1473093347434	1473093347600	NA	79
85340	932322	In his third season, Booker has become a superb Fantasy wideout.	In his third season, Booker has become a superb Fantasy wideout.	44356638	1473093347653	1473093347785	NA	78
85340	932322	In his third season, Booker has become a superb Fantasy wideout.	In his third season, Booker has become a superb Fantasy wideout.	44356642	1473093348110	1473093348223	NA	32
85340	932322	In his third season, Booker has become a superb Fantasy wideout.	In his third season, Booker has become a superb Fantasy wideout.	44356717	1473093348529	1473093348839	SHIFT	16
85340	932322	In his third season, Booker has become a superb Fantasy wideout.	In his third season, Booker has become a superb Fantasy wideout.	44356714	1473093348653	1473093348807	NA	66
85340	932322	In his third season, Booker has become a superb Fantasy wideout.	In his third season, Booker has become a superb Fantasy wideout.	44356718	1473093349286	1473093349409		8
85340	932322	In his third season, Booker has become a superb Fantasy wideout.	In his third season, Booker has become a superb Fantasy wideout.	44356721	1473093349464	1473093349571		8
85340	932322	In his third season, Booker has become a superb Fantasy wideout.	In his third season, Booker has become a superb Fantasy wideout.	44356725	1473093349610	1473093349706		8
85340	932322	In his third season, Booker has become a superb Fantasy wideout.	In his third season, Booker has become a superb Fantasy wideout.	44356729	1473093349848	1473093350020	NA	188
85340	932322	In his third season, Booker has become a superb Fantasy wideout.	In his third season, Booker has become a superb Fantasy wideout.	44356789	1473093350356	1473093350485		8
85340	932322	In his third season, Booker has become a superb Fantasy wideout.	In his third season, Booker has become a superb Fantasy wideout.	44356794	1473093350748	1473093350807	NA	188
85340	932322	In his third season, Booker has become a superb Fantasy wideout.	In his third season, Booker has become a superb Fantasy wideout.	44356801	1473093351275	1473093351425		8
85340	932322	In his third season, Booker has become a superb Fantasy wideout.	In his third season, Booker has become a superb Fantasy wideout.	44356807	1473093351692	1473093351800	NA	78
85340	932322	In his third season, Booker has become a superb Fantasy wideout.	In his third season, Booker has become a superb Fantasy wideout.	44356812	1473093351896	1473093352026	NA	188
85340	932322	In his third season, Booker has become a superb Fantasy wideout.	In his third season, Booker has become a superb Fantasy wideout.	44356846	1473093352116	1473093352228	NA	32
85340	932322	In his third season, Booker has become a superb Fantasy wideout.	In his third season, Booker has become a superb Fantasy wideout.	44356851	1473093352404	1473093352752	SHIFT	16
85340	932322	In his third season, Booker has become a superb Fantasy wideout.	In his third season, Booker has become a superb Fantasy wideout.	44356850	1473093352613	1473093352747	NA	66
85340	932322	In his third season, Booker has become a superb Fantasy wideout.	In his third season, Booker has become a superb Fantasy wideout.	44356854	1473093352865	1473093352978	NA	79
85340	932322	In his third season, Booker has become a superb Fantasy wideout.	In his third season, Booker has become a superb Fantasy wideout.	44356855	1473093353045	1473093353174	NA	79
85340	932322	In his third season, Booker has become a superb Fantasy wideout.	In his third season, Booker has become a superb Fantasy wideout.	44356858	1473093353295	1473093353393	NA	75
85340	932322	In his third season, Booker has become a superb Fantasy wideout.	In his third season, Booker has become a superb Fantasy wideout.	44356888	1473093353527	1473093353709	NA	69
85340	932322	In his third season, Booker has become a superb Fantasy wideout.	In his third season, Booker has become a superb Fantasy wideout.	44356891	1473093353661	1473093353837	NA	82
85340	932322	In his third season, Booker has become a superb Fantasy wideout.	In his third season, Booker has become a superb Fantasy wideout.	44356895	1473093353827	1473093353955	NA	32
85340	932322	In his third season, Booker has become a superb Fantasy wideout.	In his third season, Booker has become a superb Fantasy wideout.	44356899	1473093354153	1473093354276	NA	72
85340	932322	In his third season, Booker has become a superb Fantasy wideout.	In his third season, Booker has become a superb Fantasy wideout.	44356925	1473093354250	1473093354383	NA	65
85340	932322	In his third season, Booker has become a superb Fantasy wideout.	In his third season, Booker has become a superb Fantasy wideout.	44356928	1473093354435	1473093354585	NA	83
85340	932322	In his third season, Booker has become a superb Fantasy wideout.	In his third season, Booker has become a superb Fantasy wideout.	44356930	1473093354564	1473093354682	NA	32
85340	932322	In his third season, Booker has become a superb Fantasy wideout.	In his third season, Booker has become a superb Fantasy wideout.	44356932	1473093354893	1473093355033	NA	66
85340	932322	In his third season, Booker has become a superb Fantasy wideout.	In his third season, Booker has become a superb Fantasy wideout.	44356936	1473093355027	1473093355150	NA	69
85340	932322	In his third season, Booker has become a superb Fantasy wideout.	In his third season, Booker has become a superb Fantasy wideout.	44356941	1473093355272	1473093355422	NA	67
85340	932322	In his third season, Booker has become a superb Fantasy wideout.	In his third season, Booker has become a superb Fantasy wideout.	44356999	1473093355477	1473093355606	NA	65
85340	932322	In his third season, Booker has become a superb Fantasy wideout.	In his third season, Booker has become a superb Fantasy wideout.	44357002	1473093355881	1473093355999		8
85340	932322	In his third season, Booker has become a superb Fantasy wideout.	In his third season, Booker has become a superb Fantasy wideout.	44357005	1473093356124	1473093356251	NA	79
85340	932322	In his third season, Booker has become a superb Fantasy wideout.	In his third season, Booker has become a superb Fantasy wideout.	44357008	1473093356374	1473093356486	NA	77
85340	932322	In his third season, Booker has become a superb Fantasy wideout.	In his third season, Booker has become a superb Fantasy wideout.	44357012	1473093356516	1473093356645	NA	69
85340	932322	In his third season, Booker has become a superb Fantasy wideout.	In his third season, Booker has become a superb Fantasy wideout.	44357054	1473093356612	1473093356736	NA	32
85340	932322	In his third season, Booker has become a superb Fantasy wideout.	In his third season, Booker has become a superb Fantasy wideout.	44357055	1473093356752	1473093356918	NA	65
85340	932322	In his third season, Booker has become a superb Fantasy wideout.	In his third season, Booker has become a superb Fantasy wideout.	44357056	1473093356886	1473093357010	NA	32
85340	932322	In his third season, Booker has become a superb Fantasy wideout.	In his third season, Booker has become a superb Fantasy wideout.	44357058	1473093357471	1473093357610	NA	83
85340	932322	In his third season, Booker has become a superb Fantasy wideout.	In his third season, Booker has become a superb Fantasy wideout.	44357059	1473093357573	1473093357744	NA	85
85340	932322	In his third season, Booker has become a superb Fantasy wideout.	In his third season, Booker has become a superb Fantasy wideout.	44357060	1473093357782	1473093357942	NA	80
85340	932322	In his third season, Booker has become a superb Fantasy wideout.	In his third season, Booker has become a superb Fantasy wideout.	44357127	1473093358360	1473093358520	NA	82
85340	932322	In his third season, Booker has become a superb Fantasy wideout.	In his third season, Booker has become a superb Fantasy wideout.	44357132	1473093358822	1473093358956		8
85340	932322	In his third season, Booker has become a superb Fantasy wideout.	In his third season, Booker has become a superb Fantasy wideout.	44357136	1473093358929	1473093359090	NA	69
85340	932322	In his third season, Booker has become a superb Fantasy wideout.	In his third season, Booker has become a superb Fantasy wideout.	44357139	1473093359004	1473093359181	NA	82
85340	932322	In his third season, Booker has become a superb Fantasy wideout.	In his third season, Booker has become a superb Fantasy wideout.	44357143	1473093359544	1473093359651	NA	66
85340	932322	In his third season, Booker has become a superb Fantasy wideout.	In his third season, Booker has become a superb Fantasy wideout.	44357236	1473093359791	1473093359904	NA	32
85340	932322	In his third season, Booker has become a superb Fantasy wideout.	In his third season, Booker has become a superb Fantasy wideout.	44357242	1473093360344	1473093360922	SHIFT	16
85340	932322	In his third season, Booker has become a superb Fantasy wideout.	In his third season, Booker has become a superb Fantasy wideout.	44357239	1473093360740	1473093360917	NA	70
85340	932322	In his third season, Booker has become a superb Fantasy wideout.	In his third season, Booker has become a superb Fantasy wideout.	44357246	1473093361211	1473093361366	NA	65
85340	932322	In his third season, Booker has become a superb Fantasy wideout.	In his third season, Booker has become a superb Fantasy wideout.	44357254	1473093361660	1473093361794	NA	78
85340	932322	In his third season, Booker has become a superb Fantasy wideout.	In his third season, Booker has become a superb Fantasy wideout.	44357259	1473093362518	1473093362646	NA	84
85340	932322	In his third season, Booker has become a superb Fantasy wideout.	In his third season, Booker has become a superb Fantasy wideout.	44357309	1473093362735	1473093362890	NA	65
85340	932322	In his third season, Booker has become a superb Fantasy wideout.	In his third season, Booker has become a superb Fantasy wideout.	44357310	1473093362906	1473093363072	NA	83
85340	932322	In his third season, Booker has become a superb Fantasy wideout.	In his third season, Booker has become a superb Fantasy wideout.	44357312	1473093363051	1473093363222	NA	89
85340	932322	In his third season, Booker has become a superb Fantasy wideout.	In his third season, Booker has become a superb Fantasy wideout.	44357313	1473093363256	1473093363401	NA	32
85340	932322	In his third season, Booker has become a superb Fantasy wideout.	In his third season, Booker has become a superb Fantasy wideout.	44357314	1473093363892	1473093364015	NA	87
85340	932322	In his third season, Booker has become a superb Fantasy wideout.	In his third season, Booker has become a superb Fantasy wideout.	44357343	1473093364010	1473093364176	NA	73
85340	932322	In his third season, Booker has become a superb Fantasy wideout.	In his third season, Booker has become a superb Fantasy wideout.	44357346	1473093364257	1473093364380	NA	68
85340	932322	In his third season, Booker has become a superb Fantasy wideout.	In his third season, Booker has become a superb Fantasy wideout.	44357349	1473093364488	1473093364623	NA	69
85340	932322	In his third season, Booker has become a superb Fantasy wideout.	In his third season, Booker has become a superb Fantasy wideout.	44357351	1473093364769	1473093364945	NA	79
85340	932322	In his third season, Booker has become a superb Fantasy wideout.	In his third season, Booker has become a superb Fantasy wideout.	44357353	1473093364870	1473093365036	NA	85
85340	932322	In his third season, Booker has become a superb Fantasy wideout.	In his third season, Booker has become a superb Fantasy wideout.	44357360	1473093364983	1473093365133	NA	84
85340	932322	In his third season, Booker has become a superb Fantasy wideout.	In his third season, Booker has become a superb Fantasy wideout.	44357362	1473093365229	1473093365389	NA	190
85340	932338	Geez, I sound pathetic.	Geez, I sound pathetic.	44357510	1473093368358	1473093369311	SHIFT	16
85340	932338	Geez, I sound pathetic.	Geez, I sound pathetic.	44357509	1473093369172	1473093369301	NA	71
85340	932338	Geez, I sound pathetic.	Geez, I sound pathetic.	44357511	1473093369418	1473093369536	NA	69
85340	932338	Geez, I sound pathetic.	Geez, I sound pathetic.	44357512	1473093369586	1473093369719	NA	69
85340	932338	Geez, I sound pathetic.	Geez, I sound pathetic.	44357513	1473093369822	1473093370015	NA	90
85340	932338	Geez, I sound pathetic.	Geez, I sound pathetic.	44357514	1473093370254	1473093370394	NA	32
85340	932338	Geez, I sound pathetic.	Geez, I sound pathetic.	44357577	1473093370616	1473093370883	SHIFT	16
85340	932338	Geez, I sound pathetic.	Geez, I sound pathetic.	44357574	1473093370707	1473093370830	NA	73
85340	932338	Geez, I sound pathetic.	Geez, I sound pathetic.	44357581	1473093371068	1473093371170		8
85340	932338	Geez, I sound pathetic.	Geez, I sound pathetic.	44357584	1473093371240	1473093371353		8
85340	932338	Geez, I sound pathetic.	Geez, I sound pathetic.	44357587	1473093371401	1473093371476		8
85340	932338	Geez, I sound pathetic.	Geez, I sound pathetic.	44357594	1473093372247	1473093372402	NA	90
85340	932338	Geez, I sound pathetic.	Geez, I sound pathetic.	44357637	1473093372386	1473093372552	NA	188
85340	932338	Geez, I sound pathetic.	Geez, I sound pathetic.	44357639	1473093372597	1473093372746	NA	32
85340	932338	Geez, I sound pathetic.	Geez, I sound pathetic.	44357641	1473093373172	1473093373380	SHIFT	16
85340	932338	Geez, I sound pathetic.	Geez, I sound pathetic.	44357643	1473093373257	1473093373385	NA	73
85340	932338	Geez, I sound pathetic.	Geez, I sound pathetic.	44357646	1473093373391	1473093373520	NA	32
85340	932338	Geez, I sound pathetic.	Geez, I sound pathetic.	44357649	1473093373563	1473093373713	NA	83
85340	932338	Geez, I sound pathetic.	Geez, I sound pathetic.	44357686	1473093373649	1473093373809	NA	79
85340	932338	Geez, I sound pathetic.	Geez, I sound pathetic.	44357688	1473093373756	1473093373895	NA	85
85340	932338	Geez, I sound pathetic.	Geez, I sound pathetic.	44357690	1473093373999	1473093374111	NA	78
85340	932338	Geez, I sound pathetic.	Geez, I sound pathetic.	44357692	1473093374156	1473093374322	NA	68
85340	932338	Geez, I sound pathetic.	Geez, I sound pathetic.	44357694	1473093374263	1473093374397	NA	32
85340	932338	Geez, I sound pathetic.	Geez, I sound pathetic.	44357696	1473093374645	1473093374806	NA	80
85340	932338	Geez, I sound pathetic.	Geez, I sound pathetic.	44357711	1473093374758	1473093374940	NA	65
85340	932338	Geez, I sound pathetic.	Geez, I sound pathetic.	44357714	1473093375074	1473093375203	NA	84
85340	932338	Geez, I sound pathetic.	Geez, I sound pathetic.	44357721	1473093375143	1473093375293	NA	72
85340	932338	Geez, I sound pathetic.	Geez, I sound pathetic.	44357726	1473093375418	1473093375573	NA	69
85340	932338	Geez, I sound pathetic.	Geez, I sound pathetic.	44357731	1473093375866	1473093376011	NA	84
85340	932338	Geez, I sound pathetic.	Geez, I sound pathetic.	44357748	1473093375994	1473093376160	NA	73
85340	932338	Geez, I sound pathetic.	Geez, I sound pathetic.	44357750	1473093376267	1473093376443	NA	67
85340	932338	Geez, I sound pathetic.	Geez, I sound pathetic.	44357753	1473093376454	1473093376609	NA	190
85340	932350	What are the units?	What are the units?	44357867	1473093379533	1473093379726	SHIFT	16
85340	932350	What are the units?	What are the units?	44357871	1473093379614	1473093379742	NA	87
85340	932350	What are the units?	What are the units?	44357876	1473093379800	1473093379924	NA	72
85340	932350	What are the units?	What are the units?	44357879	1473093379826	1473093380030	NA	65
85340	932350	What are the units?	What are the units?	44357882	1473093379960	1473093380110	NA	84
85340	932350	What are the units?	What are the units?	44357923	1473093380094	1473093380211	NA	32
85340	932350	What are the units?	What are the units?	44357925	1473093380496	1473093380673	NA	65
85340	932350	What are the units?	What are the units?	44357928	1473093380668	1473093380828	NA	82
85340	932350	What are the units?	What are the units?	44357931	1473093380823	1473093380978	NA	69
85340	932350	What are the units?	What are the units?	44357934	1473093380925	1473093381069	NA	32
85340	932350	What are the units?	What are the units?	44357937	1473093381237	1473093381381	NA	84
85340	932350	What are the units?	What are the units?	44357955	1473093381285	1473093381424	NA	72
85340	932350	What are the units?	What are the units?	44357959	1473093381454	1473093381598	NA	69
85340	932350	What are the units?	What are the units?	44357963	1473093381562	1473093381668	NA	32
85340	932350	What are the units?	What are the units?	44357965	1473093381758	1473093381860	NA	85
85340	932350	What are the units?	What are the units?	44357967	1473093381965	1473093382072	NA	78
85340	932350	What are the units?	What are the units?	44357968	1473093382174	1473093382314	NA	84
85340	932350	What are the units?	What are the units?	44357997	1473093382271	1473093382421	NA	73
85340	932350	What are the units?	What are the units?	44357999	1473093382799	1473093382923	NA	83
85340	932350	What are the units?	What are the units?	44358001	1473093383132	1473093383250		8
85340	932350	What are the units?	What are the units?	44358004	1473093383311	1473093383417		8
85340	932350	What are the units?	What are the units?	44358008	1473093383475	1473093383592		8
85340	932350	What are the units?	What are the units?	44358011	1473093383730	1473093383858	NA	73
85340	932350	What are the units?	What are the units?	44358060	1473093383831	1473093383949	NA	84
85340	932350	What are the units?	What are the units?	44358065	1473093383994	1473093384155	NA	83
85340	932350	What are the units?	What are the units?	44358074	1473093384232	1473093384644	SHIFT	16
85340	932354	We probably have to discuss trade behavior and margin.	We probably have to discuss trade behavior and margin.	44358164	1473093387391	1473093388081	SHIFT	16
85340	932354	We probably have to discuss trade behavior and margin.	We probably have to discuss trade behavior and margin.	44358167	1473093387964	1473093388098	NA	87
85340	932354	We probably have to discuss trade behavior and margin.	We probably have to discuss trade behavior and margin.	44358170	1473093388330	1473093388465	NA	69
85340	932354	We probably have to discuss trade behavior and margin.	We probably have to discuss trade behavior and margin.	44358174	1473093388531	1473093388665	NA	32
85340	932354	We probably have to discuss trade behavior and margin.	We probably have to discuss trade behavior and margin.	44358177	1473093388737	1473093388891	NA	80
85340	932354	We probably have to discuss trade behavior and margin.	We probably have to discuss trade behavior and margin.	44358179	1473093389000	1473093389171	NA	82
85340	932354	We probably have to discuss trade behavior and margin.	We probably have to discuss trade behavior and margin.	44358208	1473093389128	1473093389289	NA	79
85340	932354	We probably have to discuss trade behavior and margin.	We probably have to discuss trade behavior and margin.	44358210	1473093389403	1473093389505	NA	66
85340	932354	We probably have to discuss trade behavior and margin.	We probably have to discuss trade behavior and margin.	44358212	1473093389622	1473093389761	NA	65
85340	932354	We probably have to discuss trade behavior and margin.	We probably have to discuss trade behavior and margin.	44358214	1473093389697	1473093389793	NA	66
85340	932354	We probably have to discuss trade behavior and margin.	We probably have to discuss trade behavior and margin.	44358216	1473093389934	1473093390089	NA	76
85340	932354	We probably have to discuss trade behavior and margin.	We probably have to discuss trade behavior and margin.	44358219	1473093390170	1473093390282	NA	89
85340	932354	We probably have to discuss trade behavior and margin.	We probably have to discuss trade behavior and margin.	44358265	1473093390356	1473093390431	NA	32
85340	932354	We probably have to discuss trade behavior and margin.	We probably have to discuss trade behavior and margin.	44358266	1473093390532	1473093390660	NA	72
85340	932354	We probably have to discuss trade behavior and margin.	We probably have to discuss trade behavior and margin.	44358267	1473093390622	1473093390772	NA	65
85340	932354	We probably have to discuss trade behavior and margin.	We probably have to discuss trade behavior and margin.	44358268	1473093390843	1473093390993	NA	86
85340	932354	We probably have to discuss trade behavior and margin.	We probably have to discuss trade behavior and margin.	44358270	1473093391033	1473093391183	NA	69
85340	932354	We probably have to discuss trade behavior and margin.	We probably have to discuss trade behavior and margin.	44358273	1473093391162	1473093391274	NA	32
85340	932354	We probably have to discuss trade behavior and margin.	We probably have to discuss trade behavior and margin.	44358275	1473093391506	1473093391689	NA	84
85340	932354	We probably have to discuss trade behavior and margin.	We probably have to discuss trade behavior and margin.	44358278	1473093391576	1473093391758	NA	79
85340	932354	We probably have to discuss trade behavior and margin.	We probably have to discuss trade behavior and margin.	44358281	1473093391683	1473093391827	NA	32
85340	932354	We probably have to discuss trade behavior and margin.	We probably have to discuss trade behavior and margin.	44358284	1473093391958	1473093392097	NA	83
85340	932354	We probably have to discuss trade behavior and margin.	We probably have to discuss trade behavior and margin.	44358287	1473093392107	1473093392274	NA	73
85340	932354	We probably have to discuss trade behavior and margin.	We probably have to discuss trade behavior and margin.	44358334	1473093392644	1473093392767		8
85340	932354	We probably have to discuss trade behavior and margin.	We probably have to discuss trade behavior and margin.	44358335	1473093392806	1473093392923		8
85340	932354	We probably have to discuss trade behavior and margin.	We probably have to discuss trade behavior and margin.	44358337	1473093393096	1473093393235	NA	68
85340	932354	We probably have to discuss trade behavior and margin.	We probably have to discuss trade behavior and margin.	44358339	1473093393203	1473093393332	NA	73
85340	932354	We probably have to discuss trade behavior and margin.	We probably have to discuss trade behavior and margin.	44358341	1473093393698	1473093393811	NA	83
85340	932354	We probably have to discuss trade behavior and margin.	We probably have to discuss trade behavior and margin.	44358369	1473093393878	1473093394034	NA	67
85340	932354	We probably have to discuss trade behavior and margin.	We probably have to discuss trade behavior and margin.	44358370	1473093394276	1473093394404	NA	85
85340	932354	We probably have to discuss trade behavior and margin.	We probably have to discuss trade behavior and margin.	44358371	1473093394432	1473093394550	NA	83
85340	932354	We probably have to discuss trade behavior and margin.	We probably have to discuss trade behavior and margin.	44358372	1473093394626	1473093394738	NA	83
85340	932354	We probably have to discuss trade behavior and margin.	We probably have to discuss trade behavior and margin.	44358399	1473093394722	1473093394836	NA	32
85340	932354	We probably have to discuss trade behavior and margin.	We probably have to discuss trade behavior and margin.	44358401	1473093394901	1473093395030	NA	84
85340	932354	We probably have to discuss trade behavior and margin.	We probably have to discuss trade behavior and margin.	44358404	1473093394976	1473093395104	NA	72
85340	932354	We probably have to discuss trade behavior and margin.	We probably have to discuss trade behavior and margin.	44358406	1473093395530	1473093395647		8
85340	932354	We probably have to discuss trade behavior and margin.	We probably have to discuss trade behavior and margin.	44358408	1473093395658	1473093395809	NA	82
85340	932354	We probably have to discuss trade behavior and margin.	We probably have to discuss trade behavior and margin.	44358410	1473093395814	1473093395980	NA	65
85340	932354	We probably have to discuss trade behavior and margin.	We probably have to discuss trade behavior and margin.	44358436	1473093396084	1473093396207	NA	68
85340	932354	We probably have to discuss trade behavior and margin.	We probably have to discuss trade behavior and margin.	44358437	1473093396302	1473093396474	NA	69
85340	932354	We probably have to discuss trade behavior and margin.	We probably have to discuss trade behavior and margin.	44358438	1473093396414	1473093396522	NA	32
85340	932354	We probably have to discuss trade behavior and margin.	We probably have to discuss trade behavior and margin.	44358439	1473093396967	1473093397090	NA	66
85340	932354	We probably have to discuss trade behavior and margin.	We probably have to discuss trade behavior and margin.	44358440	1473093397106	1473093397240	NA	69
85340	932354	We probably have to discuss trade behavior and margin.	We probably have to discuss trade behavior and margin.	44358600	1473093397462	1473093397606	NA	71
85340	932354	We probably have to discuss trade behavior and margin.	We probably have to discuss trade behavior and margin.	44358602	1473093397642	1473093397782	NA	65
85340	932354	We probably have to discuss trade behavior and margin.	We probably have to discuss trade behavior and margin.	44358603	1473093398302	1473093398420		8
85340	932354	We probably have to discuss trade behavior and margin.	We probably have to discuss trade behavior and margin.	44358604	1473093398458	1473093398587		8
85340	932354	We probably have to discuss trade behavior and margin.	We probably have to discuss trade behavior and margin.	44358605	1473093398728	1473093398856	NA	72
85340	932354	We probably have to discuss trade behavior and margin.	We probably have to discuss trade behavior and margin.	44358515	1473093398884	1473093399034	NA	65
85340	932354	We probably have to discuss trade behavior and margin.	We probably have to discuss trade behavior and margin.	44358516	1473093399105	1473093399254	NA	86
85340	932354	We probably have to discuss trade behavior and margin.	We probably have to discuss trade behavior and margin.	44358517	1473093399243	1473093399400	NA	73
85340	932354	We probably have to discuss trade behavior and margin.	We probably have to discuss trade behavior and margin.	44358518	1473093399511	1473093399672	NA	79
85340	932354	We probably have to discuss trade behavior and margin.	We probably have to discuss trade behavior and margin.	44358519	1473093399739	1473093399904	NA	82
85340	932354	We probably have to discuss trade behavior and margin.	We probably have to discuss trade behavior and margin.	44358563	1473093399884	1473093400006	NA	32
85340	932354	We probably have to discuss trade behavior and margin.	We probably have to discuss trade behavior and margin.	44358567	1473093400099	1473093400237	NA	65
85340	932354	We probably have to discuss trade behavior and margin.	We probably have to discuss trade behavior and margin.	44358569	1473093400544	1473093400641	NA	78
85340	932354	We probably have to discuss trade behavior and margin.	We probably have to discuss trade behavior and margin.	44358572	1473093400679	1473093400823	NA	68
85340	932354	We probably have to discuss trade behavior and margin.	We probably have to discuss trade behavior and margin.	44358575	1473093400780	1473093400893	NA	32
85340	932354	We probably have to discuss trade behavior and margin.	We probably have to discuss trade behavior and margin.	44358578	1473093401047	1473093401192	NA	77
85340	932354	We probably have to discuss trade behavior and margin.	We probably have to discuss trade behavior and margin.	44358607	1473093401178	1473093401375	NA	65
85340	932354	We probably have to discuss trade behavior and margin.	We probably have to discuss trade behavior and margin.	44358609	1473093401343	1473093401486	NA	82
85340	932354	We probably have to discuss trade behavior and margin.	We probably have to discuss trade behavior and margin.	44358611	1473093401633	1473093401789	NA	71
85340	932354	We probably have to discuss trade behavior and margin.	We probably have to discuss trade behavior and margin.	44358613	1473093401805	1473093401954	NA	73
85340	932354	We probably have to discuss trade behavior and margin.	We probably have to discuss trade behavior and margin.	44358617	1473093402033	1473093402129	NA	78
85340	932354	We probably have to discuss trade behavior and margin.	We probably have to discuss trade behavior and margin.	44358622	1473093402294	1473093402465	NA	190
85340	932365	We don't recommend you use him in a Fantasy league this week.	We don't recommend you use him in a Fantasy league the week.	44358697	1473093404563	1473093404756	SHIFT	16
85340	932365	We don't recommend you use him in a Fantasy league this week.	We don't recommend you use him in a Fantasy league the week.	44358699	1473093404633	1473093404761	NA	87
85340	932365	We don't recommend you use him in a Fantasy league this week.	We don't recommend you use him in a Fantasy league the week.	44358701	1473093404848	1473093404971	NA	69
85340	932365	We don't recommend you use him in a Fantasy league this week.	We don't recommend you use him in a Fantasy league the week.	44358703	1473093404982	1473093405105	NA	32
85340	932365	We don't recommend you use him in a Fantasy league this week.	We don't recommend you use him in a Fantasy league the week.	44358704	1473093405206	1473093405345	NA	68
85340	932365	We don't recommend you use him in a Fantasy league this week.	We don't recommend you use him in a Fantasy league the week.	44358739	1473093405308	1473093405436	NA	79
85340	932365	We don't recommend you use him in a Fantasy league this week.	We don't recommend you use him in a Fantasy league the week.	44358740	1473093405646	1473093405752	NA	222
85340	932365	We don't recommend you use him in a Fantasy league this week.	We don't recommend you use him in a Fantasy league the week.	44358741	1473093406043	1473093406177		8
85340	932365	We don't recommend you use him in a Fantasy league this week.	We don't recommend you use him in a Fantasy league the week.	44358742	1473093406354	1473093406478	NA	78
85340	932365	We don't recommend you use him in a Fantasy league this week.	We don't recommend you use him in a Fantasy league the week.	44358743	1473093406531	1473093406691	NA	222
85340	932365	We don't recommend you use him in a Fantasy league this week.	We don't recommend you use him in a Fantasy league the week.	44358765	1473093406643	1473093406793	NA	84
85340	932365	We don't recommend you use him in a Fantasy league this week.	We don't recommend you use him in a Fantasy league the week.	44358766	1473093406771	1473093406874	NA	32
85340	932365	We don't recommend you use him in a Fantasy league this week.	We don't recommend you use him in a Fantasy league the week.	44358768	1473093407092	1473093407241	NA	82
85340	932365	We don't recommend you use him in a Fantasy league this week.	We don't recommend you use him in a Fantasy league the week.	44358771	1473093407281	1473093407399	NA	69
85340	932365	We don't recommend you use him in a Fantasy league this week.	We don't recommend you use him in a Fantasy league the week.	44358775	1473093407550	1473093407700	NA	67
85340	932365	We don't recommend you use him in a Fantasy league this week.	We don't recommend you use him in a Fantasy league the week.	44358815	1473093407690	1473093407839	NA	79
85340	932365	We don't recommend you use him in a Fantasy league this week.	We don't recommend you use him in a Fantasy league the week.	44358816	1473093407920	1473093408021	NA	77
85340	932365	We don't recommend you use him in a Fantasy league this week.	We don't recommend you use him in a Fantasy league the week.	44358818	1473093408093	1473093408210	NA	77
85340	932365	We don't recommend you use him in a Fantasy league this week.	We don't recommend you use him in a Fantasy league the week.	44358821	1473093408227	1473093408366	NA	69
85340	932365	We don't recommend you use him in a Fantasy league this week.	We don't recommend you use him in a Fantasy league the week.	44358825	1473093408433	1473093408545	NA	78
85340	932365	We don't recommend you use him in a Fantasy league this week.	We don't recommend you use him in a Fantasy league the week.	44358828	1473093408698	1473093408773	NA	84
85340	932365	We don't recommend you use him in a Fantasy league this week.	We don't recommend you use him in a Fantasy league the week.	44358846	1473093409199	1473093409316		8
85340	932365	We don't recommend you use him in a Fantasy league this week.	We don't recommend you use him in a Fantasy league the week.	44358848	1473093409295	1473093409430	NA	68
85340	932365	We don't recommend you use him in a Fantasy league this week.	We don't recommend you use him in a Fantasy league the week.	44358850	1473093409391	1473093409504	NA	32
85340	932365	We don't recommend you use him in a Fantasy league this week.	We don't recommend you use him in a Fantasy league the week.	44358852	1473093409651	1473093409795	NA	89
85340	932365	We don't recommend you use him in a Fantasy league this week.	We don't recommend you use him in a Fantasy league the week.	44358854	1473093409801	1473093409977	NA	79
85340	932365	We don't recommend you use him in a Fantasy league this week.	We don't recommend you use him in a Fantasy league the week.	44358876	1473093409871	1473093410058	NA	85
85340	932365	We don't recommend you use him in a Fantasy league this week.	We don't recommend you use him in a Fantasy league the week.	44358879	1473093409972	1473093410127	NA	32
85340	932365	We don't recommend you use him in a Fantasy league this week.	We don't recommend you use him in a Fantasy league the week.	44358882	1473093410248	1473093410381	NA	85
85340	932365	We don't recommend you use him in a Fantasy league this week.	We don't recommend you use him in a Fantasy league the week.	44358887	1473093410366	1473093410542	NA	83
85340	932365	We don't recommend you use him in a Fantasy league this week.	We don't recommend you use him in a Fantasy league the week.	44358889	1473093410826	1473093411007	NA	69
85340	932365	We don't recommend you use him in a Fantasy league this week.	We don't recommend you use him in a Fantasy league the week.	44358892	1473093411024	1473093411142	NA	32
85340	932365	We don't recommend you use him in a Fantasy league this week.	We don't recommend you use him in a Fantasy league the week.	44358895	1473093411246	1473093411374	NA	73
85340	932365	We don't recommend you use him in a Fantasy league this week.	We don't recommend you use him in a Fantasy league the week.	44358905	1473093411511	1473093411607	NA	78
85340	932365	We don't recommend you use him in a Fantasy league this week.	We don't recommend you use him in a Fantasy league the week.	44358907	1473093411813	1473093411947		8
85340	932365	We don't recommend you use him in a Fantasy league this week.	We don't recommend you use him in a Fantasy league the week.	44358909	1473093412003	1473093412105		8
85340	932365	We don't recommend you use him in a Fantasy league this week.	We don't recommend you use him in a Fantasy league the week.	44358911	1473093412213	1473093412320	NA	72
85340	932365	We don't recommend you use him in a Fantasy league this week.	We don't recommend you use him in a Fantasy league the week.	44358913	1473093412345	1473093412484	NA	73
85340	932365	We don't recommend you use him in a Fantasy league this week.	We don't recommend you use him in a Fantasy league the week.	44358939	1473093412533	1473093412657	NA	77
85340	932365	We don't recommend you use him in a Fantasy league this week.	We don't recommend you use him in a Fantasy league the week.	44358940	1473093412699	1473093412812	NA	32
85340	932365	We don't recommend you use him in a Fantasy league this week.	We don't recommend you use him in a Fantasy league the week.	44358941	1473093412856	1473093412953	NA	73
85340	932365	We don't recommend you use him in a Fantasy league this week.	We don't recommend you use him in a Fantasy league the week.	44358942	1473093412963	1473093413070	NA	83
85340	932365	We don't recommend you use him in a Fantasy league this week.	We don't recommend you use him in a Fantasy league the week.	44358943	1473093413432	1473093413539		8
85340	932365	We don't recommend you use him in a Fantasy league this week.	We don't recommend you use him in a Fantasy league the week.	44358968	1473093413663	1473093413767	NA	78
85340	932365	We don't recommend you use him in a Fantasy league this week.	We don't recommend you use him in a Fantasy league the week.	44358971	1473093413836	1473093413921	NA	32
85340	932365	We don't recommend you use him in a Fantasy league this week.	We don't recommend you use him in a Fantasy league the week.	44358974	1473093413968	1473093414123	NA	65
85340	932365	We don't recommend you use him in a Fantasy league this week.	We don't recommend you use him in a Fantasy league the week.	44358976	1473093414059	1473093414182	NA	32
85340	932365	We don't recommend you use him in a Fantasy league this week.	We don't recommend you use him in a Fantasy league the week.	44359007	1473093414473	1473093414708	SHIFT	16
85340	932365	We don't recommend you use him in a Fantasy league this week.	We don't recommend you use him in a Fantasy league the week.	44358978	1473093414553	1473093414676	NA	70
85340	932365	We don't recommend you use him in a Fantasy league this week.	We don't recommend you use him in a Fantasy league the week.	44359009	1473093414756	1473093414880	NA	65
85340	932365	We don't recommend you use him in a Fantasy league this week.	We don't recommend you use him in a Fantasy league the week.	44359012	1473093414984	1473093415128	NA	78
85340	932365	We don't recommend you use him in a Fantasy league this week.	We don't recommend you use him in a Fantasy league the week.	44359015	1473093415490	1473093415634	NA	84
85340	932365	We don't recommend you use him in a Fantasy league this week.	We don't recommend you use him in a Fantasy league the week.	44359016	1473093415659	1473093415813	NA	65
85340	932365	We don't recommend you use him in a Fantasy league this week.	We don't recommend you use him in a Fantasy league the week.	44359038	1473093415808	1473093415980	NA	83
85340	932365	We don't recommend you use him in a Fantasy league this week.	We don't recommend you use him in a Fantasy league the week.	44359039	1473093416035	1473093416174	NA	89
85340	932365	We don't recommend you use him in a Fantasy league this week.	We don't recommend you use him in a Fantasy league the week.	44359040	1473093416243	1473093416350	NA	32
85340	932365	We don't recommend you use him in a Fantasy league this week.	We don't recommend you use him in a Fantasy league the week.	44359041	1473093416800	1473093416972	NA	76
85340	932365	We don't recommend you use him in a Fantasy league this week.	We don't recommend you use him in a Fantasy league the week.	44359042	1473093416962	1473093417111	NA	69
85340	932365	We don't recommend you use him in a Fantasy league this week.	We don't recommend you use him in a Fantasy league the week.	44359043	1473093417116	1473093417299	NA	65
85340	932365	We don't recommend you use him in a Fantasy league this week.	We don't recommend you use him in a Fantasy league the week.	44359067	1473093417577	1473093417726	NA	71
85340	932365	We don't recommend you use him in a Fantasy league this week.	We don't recommend you use him in a Fantasy league the week.	44359070	1473093417770	1473093417931	NA	85
85340	932365	We don't recommend you use him in a Fantasy league this week.	We don't recommend you use him in a Fantasy league the week.	44359074	1473093417972	1473093418117	NA	69
85340	932365	We don't recommend you use him in a Fantasy league this week.	We don't recommend you use him in a Fantasy league the week.	44359077	1473093418128	1473093418245	NA	32
85340	932365	We don't recommend you use him in a Fantasy league this week.	We don't recommend you use him in a Fantasy league the week.	44359080	1473093418356	1473093418527	NA	84
85340	932365	We don't recommend you use him in a Fantasy league this week.	We don't recommend you use him in a Fantasy league the week.	44359098	1473093418447	1473093418586	NA	72
85340	932365	We don't recommend you use him in a Fantasy league this week.	We don't recommend you use him in a Fantasy league the week.	44359099	1473093418581	1473093418742	NA	69
85340	932365	We don't recommend you use him in a Fantasy league this week.	We don't recommend you use him in a Fantasy league the week.	44359100	1473093418720	1473093418833	NA	32
85340	932365	We don't recommend you use him in a Fantasy league this week.	We don't recommend you use him in a Fantasy league the week.	44359101	1473093419228	1473093419340	NA	87
85340	932365	We don't recommend you use him in a Fantasy league this week.	We don't recommend you use him in a Fantasy league the week.	44359102	1473093419444	1473093419573	NA	69
85340	932365	We don't recommend you use him in a Fantasy league this week.	We don't recommend you use him in a Fantasy league the week.	44359103	1473093419607	1473093419730	NA	69
85340	932365	We don't recommend you use him in a Fantasy league this week.	We don't recommend you use him in a Fantasy league the week.	44359116	1473093420043	1473093420150	NA	75
85340	932365	We don't recommend you use him in a Fantasy league this week.	We don't recommend you use him in a Fantasy league the week.	44359117	1473093420262	1473093420406	NA	190
85340	932376	Opposition leaders have urged him to call off the visit.	Opposition leaders have urged him to call off the visit.	44359240	1473093423903	1473093424203	SHIFT	16
85340	932376	Opposition leaders have urged him to call off the visit.	Opposition leaders have urged him to call off the visit.	44359242	1473093424123	1473093424230	NA	79
85340	932376	Opposition leaders have urged him to call off the visit.	Opposition leaders have urged him to call off the visit.	44359244	1473093424375	1473093424439	NA	80
85340	932376	Opposition leaders have urged him to call off the visit.	Opposition leaders have urged him to call off the visit.	44359246	1473093424531	1473093424698	NA	80
85340	932376	Opposition leaders have urged him to call off the visit.	Opposition leaders have urged him to call off the visit.	44359247	1473093424886	1473093425025	NA	79
85340	932376	Opposition leaders have urged him to call off the visit.	Opposition leaders have urged him to call off the visit.	44359248	1473093425059	1473093425204	NA	83
85340	932376	Opposition leaders have urged him to call off the visit.	Opposition leaders have urged him to call off the visit.	44359291	1473093425663	1473093425802	NA	73
85340	932376	Opposition leaders have urged him to call off the visit.	Opposition leaders have urged him to call off the visit.	44359294	1473093425839	1473093425989	NA	84
85340	932376	Opposition leaders have urged him to call off the visit.	Opposition leaders have urged him to call off the visit.	44359297	1473093426034	1473093426192	NA	73
85340	932376	Opposition leaders have urged him to call off the visit.	Opposition leaders have urged him to call off the visit.	44359299	1473093426197	1473093426364	NA	79
85340	932376	Opposition leaders have urged him to call off the visit.	Opposition leaders have urged him to call off the visit.	44359301	1473093426439	1473093426652	NA	78
85340	932376	Opposition leaders have urged him to call off the visit.	Opposition leaders have urged him to call off the visit.	44359304	1473093426599	1473093426749	NA	32
85340	932376	Opposition leaders have urged him to call off the visit.	Opposition leaders have urged him to call off the visit.	44359306	1473093426886	1473093427068	NA	76
85340	932376	Opposition leaders have urged him to call off the visit.	Opposition leaders have urged him to call off the visit.	44359309	1473093427036	1473093427197	NA	69
85340	932376	Opposition leaders have urged him to call off the visit.	Opposition leaders have urged him to call off the visit.	44359312	1473093427202	1473093427357	NA	65
85340	932376	Opposition leaders have urged him to call off the visit.	Opposition leaders have urged him to call off the visit.	44359315	1473093427467	1473093427623	NA	68
85340	932376	Opposition leaders have urged him to call off the visit.	Opposition leaders have urged him to call off the visit.	44359317	1473093427747	1473093427945	NA	69
85340	932376	Opposition leaders have urged him to call off the visit.	Opposition leaders have urged him to call off the visit.	44359332	1473093427907	1473093428073	NA	82
85340	932376	Opposition leaders have urged him to call off the visit.	Opposition leaders have urged him to call off the visit.	44359334	1473093428149	1473093428305	NA	83
85340	932376	Opposition leaders have urged him to call off the visit.	Opposition leaders have urged him to call off the visit.	44359335	1473093428321	1473093428423	NA	32
85340	932376	Opposition leaders have urged him to call off the visit.	Opposition leaders have urged him to call off the visit.	44359336	1473093428630	1473093428769	NA	72
85340	932376	Opposition leaders have urged him to call off the visit.	Opposition leaders have urged him to call off the visit.	44359337	1473093428785	1473093428956	NA	65
85340	932376	Opposition leaders have urged him to call off the visit.	Opposition leaders have urged him to call off the visit.	44359338	1473093429019	1473093429185	NA	86
85340	932376	Opposition leaders have urged him to call off the visit.	Opposition leaders have urged him to call off the visit.	44359370	1473093429211	1473093429360	NA	69
85340	932376	Opposition leaders have urged him to call off the visit.	Opposition leaders have urged him to call off the visit.	44359372	1473093429301	1473093429419	NA	32
85340	932376	Opposition leaders have urged him to call off the visit.	Opposition leaders have urged him to call off the visit.	44359375	1473093429505	1473093429640	NA	85
85340	932376	Opposition leaders have urged him to call off the visit.	Opposition leaders have urged him to call off the visit.	44359378	1473093429772	1473093429926	NA	82
85340	932376	Opposition leaders have urged him to call off the visit.	Opposition leaders have urged him to call off the visit.	44359381	1473093430049	1473093430206	NA	71
85340	932376	Opposition leaders have urged him to call off the visit.	Opposition leaders have urged him to call off the visit.	44359419	1473093430215	1473093430386	NA	69
85340	932376	Opposition leaders have urged him to call off the visit.	Opposition leaders have urged him to call off the visit.	44359422	1473093430452	1473093430623	NA	68
85340	932376	Opposition leaders have urged him to call off the visit.	Opposition leaders have urged him to call off the visit.	44359425	1473093430618	1473093430736	NA	32
85340	932376	Opposition leaders have urged him to call off the visit.	Opposition leaders have urged him to call off the visit.	44359427	1473093431069	1473093431192	NA	72
85340	932376	Opposition leaders have urged him to call off the visit.	Opposition leaders have urged him to call off the visit.	44359429	1473093431203	1473093431337	NA	73
85340	932376	Opposition leaders have urged him to call off the visit.	Opposition leaders have urged him to call off the visit.	44359440	1473093431384	1473093431496	NA	77
85340	932376	Opposition leaders have urged him to call off the visit.	Opposition leaders have urged him to call off the visit.	44359445	1473093431539	1473093431652	NA	32
85340	932376	Opposition leaders have urged him to call off the visit.	Opposition leaders have urged him to call off the visit.	44359449	1473093431680	1473093431835	NA	84
85340	932376	Opposition leaders have urged him to call off the visit.	Opposition leaders have urged him to call off the visit.	44359454	1473093431750	1473093431927	NA	79
85340	932376	Opposition leaders have urged him to call off the visit.	Opposition leaders have urged him to call off the visit.	44359477	1473093431846	1473093431980	NA	32
85340	932376	Opposition leaders have urged him to call off the visit.	Opposition leaders have urged him to call off the visit.	44359479	1473093432136	1473093432286	NA	67
85340	932376	Opposition leaders have urged him to call off the visit.	Opposition leaders have urged him to call off the visit.	44359482	1473093432312	1473093432450	NA	65
85340	932376	Opposition leaders have urged him to call off the visit.	Opposition leaders have urged him to call off the visit.	44359484	1473093432386	1473093432498	NA	76
85340	932376	Opposition leaders have urged him to call off the visit.	Opposition leaders have urged him to call off the visit.	44359486	1473093432559	1473093432650	NA	76
85340	932376	Opposition leaders have urged him to call off the visit.	Opposition leaders have urged him to call off the visit.	44359488	1473093432689	1473093432796	NA	32
85340	932376	Opposition leaders have urged him to call off the visit.	Opposition leaders have urged him to call off the visit.	44359518	1473093432813	1473093432957	NA	70
85340	932376	Opposition leaders have urged him to call off the visit.	Opposition leaders have urged him to call off the visit.	44359522	1473093433366	1473093433473		8
85340	932376	Opposition leaders have urged him to call off the visit.	Opposition leaders have urged him to call off the visit.	44359526	1473093433592	1473093433710	NA	79
85340	932376	Opposition leaders have urged him to call off the visit.	Opposition leaders have urged him to call off the visit.	44359527	1473093433739	1473093433852	NA	70
85340	932376	Opposition leaders have urged him to call off the visit.	Opposition leaders have urged him to call off the visit.	44359529	1473093433914	1473093434038	NA	70
85340	932376	Opposition leaders have urged him to call off the visit.	Opposition leaders have urged him to call off the visit.	44359540	1473093433994	1473093434106	NA	32
85340	932376	Opposition leaders have urged him to call off the visit.	Opposition leaders have urged him to call off the visit.	44359541	1473093434140	1473093434279	NA	84
85340	932376	Opposition leaders have urged him to call off the visit.	Opposition leaders have urged him to call off the visit.	44359542	1473093434199	1473093434317	NA	72
85340	932376	Opposition leaders have urged him to call off the visit.	Opposition leaders have urged him to call off the visit.	44359543	1473093434312	1473093434467	NA	69
85340	932376	Opposition leaders have urged him to call off the visit.	Opposition leaders have urged him to call off the visit.	44359544	1473093434429	1473093434537	NA	32
85340	932376	Opposition leaders have urged him to call off the visit.	Opposition leaders have urged him to call off the visit.	44359545	1473093434962	1473093435042	NA	66
85340	932376	Opposition leaders have urged him to call off the visit.	Opposition leaders have urged him to call off the visit.	44359562	1473093435091	1473093435246	NA	86
85340	932376	Opposition leaders have urged him to call off the visit.	Opposition leaders have urged him to call off the visit.	44359563	1473093435339	1473093435457		8
85340	932376	Opposition leaders have urged him to call off the visit.	Opposition leaders have urged him to call off the visit.	44359564	1473093435506	1473093435629		8
85340	932376	Opposition leaders have urged him to call off the visit.	Opposition leaders have urged him to call off the visit.	44359565	1473093435624	1473093435763	NA	86
85340	932376	Opposition leaders have urged him to call off the visit.	Opposition leaders have urged him to call off the visit.	44359604	1473093435747	1473093435897	NA	73
85340	932376	Opposition leaders have urged him to call off the visit.	Opposition leaders have urged him to call off the visit.	44359607	1473093435976	1473093436168	NA	83
85340	932376	Opposition leaders have urged him to call off the visit.	Opposition leaders have urged him to call off the visit.	44359609	1473093436163	1473093436335	NA	73
85340	932376	Opposition leaders have urged him to call off the visit.	Opposition leaders have urged him to call off the visit.	44359612	1473093436465	1473093436626	NA	84
85340	932376	Opposition leaders have urged him to call off the visit.	Opposition leaders have urged him to call off the visit.	44359615	1473093436780	1473093436865	NA	190
85340	932389	We will keep trying.	We will keep trying.	44359726	1473093439668	1473093440257	SHIFT	16
85340	932389	We will keep trying.	We will keep trying.	44359724	1473093440000	1473093440167	NA	87
85340	932389	We will keep trying.	We will keep trying.	44359728	1473093440447	1473093440603	NA	69
85340	932389	We will keep trying.	We will keep trying.	44359729	1473093440639	1473093440751	NA	32
85340	932389	We will keep trying.	We will keep trying.	44359731	1473093440945	1473093441106	NA	87
85340	932389	We will keep trying.	We will keep trying.	44359757	1473093441015	1473093441127	NA	73
85340	932389	We will keep trying.	We will keep trying.	44359761	1473093441204	1473093441301	NA	76
85340	932389	We will keep trying.	We will keep trying.	44359764	1473093441381	1473093441477	NA	76
85340	932389	We will keep trying.	We will keep trying.	44359768	1473093441522	1473093441629	NA	32
85340	932389	We will keep trying.	We will keep trying.	44359770	1473093441680	1473093441835	NA	75
85340	932389	We will keep trying.	We will keep trying.	44359773	1473093441840	1473093441974	NA	69
85340	932389	We will keep trying.	We will keep trying.	44359809	1473093442064	1473093442192	NA	69
85340	932389	We will keep trying.	We will keep trying.	44359813	1473093442225	1473093442413	NA	80
85340	932389	We will keep trying.	We will keep trying.	44359816	1473093442338	1473093442483	NA	32
85340	932389	We will keep trying.	We will keep trying.	44359819	1473093442985	1473093443118	NA	84
85340	932389	We will keep trying.	We will keep trying.	44359822	1473093443283	1473093443436	NA	82
85340	932389	We will keep trying.	We will keep trying.	44359858	1473093443428	1473093443589	NA	85
85340	932389	We will keep trying.	We will keep trying.	44359860	1473093443713	1473093443842	NA	73
85340	932389	We will keep trying.	We will keep trying.	44359862	1473093444099	1473093444222		8
85340	932389	We will keep trying.	We will keep trying.	44359863	1473093444272	1473093444374		8
85340	932389	We will keep trying.	We will keep trying.	44359864	1473093444509	1473093444612	NA	89
85340	932389	We will keep trying.	We will keep trying.	44359866	1473093444698	1473093444832	NA	73
85340	932389	We will keep trying.	We will keep trying.	44359893	1473093444915	1473093445033	NA	78
85340	932389	We will keep trying.	We will keep trying.	44359896	1473093445043	1473093445188	NA	71
85340	932389	We will keep trying.	We will keep trying.	44359898	1473093445166	1473093445328	NA	190
