PARTICIPANT_ID	TEST_SECTION_ID	SENTENCE	USER_INPUT	KEYSTROKE_ID	PRESS_TIME	RELEASE_TIME	LETTER	KEYCODE
94006	1028973	This came as a shock to me.	This came as a shock to me.	48942238	1473208653418	1473208653667	SHIFT	16
94006	1028973	This came as a shock to me.	This came as a shock to me.	48942243	1473208653545	1473208653698	T	84
94006	1028973	This came as a shock to me.	This came as a shock to me.	48942244	1473208653679	1473208653865	h	72
94006	1028973	This came as a shock to me.	This came as a shock to me.	48942247	1473208653767	1473208653945	i	73
94006	1028973	This came as a shock to me.	This came as a shock to me.	48942251	1473208653859	1473208654080	s	83
94006	1028973	This came as a shock to me.	This came as a shock to me.	48942291	1473208653989	1473208654196	 	32
94006	1028973	This came as a shock to me.	This came as a shock to me.	48942300	1473208654184	1473208654368	c	67
94006	1028973	This came as a shock to me.	This came as a shock to me.	48942307	1473208654318	1473208654412	a	65
94006	1028973	This came as a shock to me.	This came as a shock to me.	48942315	1473208654418	1473208654588	m	77
94006	1028973	This came as a shock to me.	This came as a shock to me.	48942321	1473208654534	1473208654748	e	69
94006	1028973	This came as a shock to me.	This came as a shock to me.	48942402	1473208654638	1473208654773	 	32
94006	1028973	This came as a shock to me.	This came as a shock to me.	48942408	1473208654710	1473208654992	a	65
94006	1028973	This came as a shock to me.	This came as a shock to me.	48942412	1473208654914	1473208655042	s	83
94006	1028973	This came as a shock to me.	This came as a shock to me.	48942419	1473208655361	1473208655532	 	32
94006	1028973	This came as a shock to me.	This came as a shock to me.	48942426	1473208655495	1473208655648	a	65
94006	1028973	This came as a shock to me.	This came as a shock to me.	48942432	1473208655617	1473208655776	 	32
94006	1028973	This came as a shock to me.	This came as a shock to me.	48942437	1473208656023	1473208656254	s	83
94006	1028973	This came as a shock to me.	This came as a shock to me.	48942477	1473208656777	1473208657046	h	72
94006	1028973	This came as a shock to me.	This came as a shock to me.	48942483	1473208656980	1473208657131	o	79
94006	1028973	This came as a shock to me.	This came as a shock to me.	48942491	1473208657125	1473208657212	c	67
94006	1028973	This came as a shock to me.	This came as a shock to me.	48942498	1473208657218	1473208657438	k	75
94006	1028973	This came as a shock to me.	This came as a shock to me.	48942537	1473208657353	1473208657548	 	32
94006	1028973	This came as a shock to me.	This came as a shock to me.	48942543	1473208657488	1473208657620	t	84
94006	1028973	This came as a shock to me.	This came as a shock to me.	48942549	1473208657598	1473208657788	o	79
94006	1028973	This came as a shock to me.	This came as a shock to me.	48942554	1473208657697	1473208657870	 	32
94006	1028973	This came as a shock to me.	This came as a shock to me.	48942560	1473208657838	1473208658033	m	77
94006	1028973	This came as a shock to me.	This came as a shock to me.	48942567	1473208657992	1473208658132	e	69
94006	1028973	This came as a shock to me.	This came as a shock to me.	48942570	1473208658168	1473208658283	.	190
94006	1028984	That is one of the things we are working on.	That is one of the things we are working on.	48942728	1473208660140	1473208660362	SHIFT	16
94006	1028984	That is one of the things we are working on.	That is one of the things we are working on.	48942733	1473208660262	1473208660391	T	84
94006	1028984	That is one of the things we are working on.	That is one of the things we are working on.	48942738	1473208660472	1473208660619	h	72
94006	1028984	That is one of the things we are working on.	That is one of the things we are working on.	48942744	1473208660654	1473208660826	a	65
94006	1028984	That is one of the things we are working on.	That is one of the things we are working on.	48942749	1473208660748	1473208660961	t	84
94006	1028984	That is one of the things we are working on.	That is one of the things we are working on.	48942767	1473208660864	1473208661005	 	32
94006	1028984	That is one of the things we are working on.	That is one of the things we are working on.	48942769	1473208660974	1473208661133	i	73
94006	1028984	That is one of the things we are working on.	That is one of the things we are working on.	48942773	1473208661071	1473208661262	s	83
94006	1028984	That is one of the things we are working on.	That is one of the things we are working on.	48942774	1473208661187	1473208661356	 	32
94006	1028984	That is one of the things we are working on.	That is one of the things we are working on.	48942776	1473208661323	1473208661514	o	79
94006	1028984	That is one of the things we are working on.	That is one of the things we are working on.	48942793	1473208661452	1473208661624	n	78
94006	1028984	That is one of the things we are working on.	That is one of the things we are working on.	48942797	1473208661549	1473208661684	e	69
94006	1028984	That is one of the things we are working on.	That is one of the things we are working on.	48942805	1473208661631	1473208661759	 	32
94006	1028984	That is one of the things we are working on.	That is one of the things we are working on.	48942812	1473208661734	1473208661881	o	79
94006	1028984	That is one of the things we are working on.	That is one of the things we are working on.	48942820	1473208661869	1473208662045	f	70
94006	1028984	That is one of the things we are working on.	That is one of the things we are working on.	48942853	1473208662010	1473208662179	 	32
94006	1028984	That is one of the things we are working on.	That is one of the things we are working on.	48942858	1473208662157	1473208662254	t	84
94006	1028984	That is one of the things we are working on.	That is one of the things we are working on.	48942864	1473208662267	1473208662395	h	72
94006	1028984	That is one of the things we are working on.	That is one of the things we are working on.	48942870	1473208662407	1473208662578	e	69
94006	1028984	That is one of the things we are working on.	That is one of the things we are working on.	48942874	1473208662511	1473208662720	 	32
94006	1028984	That is one of the things we are working on.	That is one of the things we are working on.	48942886	1473208662666	1473208662757	t	84
94006	1028984	That is one of the things we are working on.	That is one of the things we are working on.	48942891	1473208662770	1473208662892	h	72
94006	1028984	That is one of the things we are working on.	That is one of the things we are working on.	48942894	1473208662842	1473208663064	i	73
94006	1028984	That is one of the things we are working on.	That is one of the things we are working on.	48942897	1473208662983	1473208663174	n	78
94006	1028984	That is one of the things we are working on.	That is one of the things we are working on.	48942915	1473208663118	1473208663228	g	71
94006	1028984	That is one of the things we are working on.	That is one of the things we are working on.	48942917	1473208663168	1473208663375	s	83
94006	1028984	That is one of the things we are working on.	That is one of the things we are working on.	48942919	1473208663322	1473208663491	 	32
94006	1028984	That is one of the things we are working on.	That is one of the things we are working on.	48942920	1473208663479	1473208663760	w	87
94006	1028984	That is one of the things we are working on.	That is one of the things we are working on.	48942921	1473208663669	1473208663891	e	69
94006	1028984	That is one of the things we are working on.	That is one of the things we are working on.	48942922	1473208663810	1473208663995	 	32
94006	1028984	That is one of the things we are working on.	That is one of the things we are working on.	48942942	1473208663982	1473208664180	a	65
94006	1028984	That is one of the things we are working on.	That is one of the things we are working on.	48942945	1473208664082	1473208664277	r	82
94006	1028984	That is one of the things we are working on.	That is one of the things we are working on.	48942948	1473208664186	1473208664387	e	69
94006	1028984	That is one of the things we are working on.	That is one of the things we are working on.	48942951	1473208664271	1473208664449	 	32
94006	1028984	That is one of the things we are working on.	That is one of the things we are working on.	48942953	1473208664664	1473208664793	w	87
94006	1028984	That is one of the things we are working on.	That is one of the things we are working on.	48942968	1473208664737	1473208664859	o	79
94006	1028984	That is one of the things we are working on.	That is one of the things we are working on.	48942971	1473208664879	1473208664959	r	82
94006	1028984	That is one of the things we are working on.	That is one of the things we are working on.	48942972	1473208664935	1473208665038	k	75
94006	1028984	That is one of the things we are working on.	That is one of the things we are working on.	48942974	1473208665140	1473208665312	i	73
94006	1028984	That is one of the things we are working on.	That is one of the things we are working on.	48942976	1473208665221	1473208665447	n	78
94006	1028984	That is one of the things we are working on.	That is one of the things we are working on.	48943025	1473208665391	1473208665479	g	71
94006	1028984	That is one of the things we are working on.	That is one of the things we are working on.	48943028	1473208665435	1473208665660	 	32
94006	1028984	That is one of the things we are working on.	That is one of the things we are working on.	48943035	1473208665582	1473208665758	o	79
94006	1028984	That is one of the things we are working on.	That is one of the things we are working on.	48943043	1473208665667	1473208665814	n	78
94006	1028984	That is one of the things we are working on.	That is one of the things we are working on.	48943046	1473208666381	1473208666528	.	190
94006	1028999	I was a bit rusty but I didn't want to miss the elections back home.	I was a bit rusty but I didn't want to miss the elections back home	48943231	1473208668666	1473208668911	SHIFT	16
94006	1028999	I was a bit rusty but I didn't want to miss the elections back home.	I was a bit rusty but I didn't want to miss the elections back home	48943238	1473208668802	1473208668973	I	73
94006	1028999	I was a bit rusty but I didn't want to miss the elections back home.	I was a bit rusty but I didn't want to miss the elections back home	48943245	1473208668955	1473208669149	 	32
94006	1028999	I was a bit rusty but I didn't want to miss the elections back home.	I was a bit rusty but I didn't want to miss the elections back home	48943247	1473208669133	1473208669256	w	87
94006	1028999	I was a bit rusty but I didn't want to miss the elections back home.	I was a bit rusty but I didn't want to miss the elections back home	48943253	1473208669250	1473208669469	a	65
94006	1028999	I was a bit rusty but I didn't want to miss the elections back home.	I was a bit rusty but I didn't want to miss the elections back home	48943289	1473208669390	1473208669541	s	83
94006	1028999	I was a bit rusty but I didn't want to miss the elections back home.	I was a bit rusty but I didn't want to miss the elections back home	48943292	1473208669463	1473208669616	 	32
94006	1028999	I was a bit rusty but I didn't want to miss the elections back home.	I was a bit rusty but I didn't want to miss the elections back home	48943295	1473208669591	1473208669739	a	65
94006	1028999	I was a bit rusty but I didn't want to miss the elections back home.	I was a bit rusty but I didn't want to miss the elections back home	48943297	1473208669677	1473208669855	 	32
94006	1028999	I was a bit rusty but I didn't want to miss the elections back home.	I was a bit rusty but I didn't want to miss the elections back home	48943299	1473208669861	1473208670026	b	66
94006	1028999	I was a bit rusty but I didn't want to miss the elections back home.	I was a bit rusty but I didn't want to miss the elections back home	48943301	1473208670035	1473208670185	i	73
94006	1028999	I was a bit rusty but I didn't want to miss the elections back home.	I was a bit rusty but I didn't want to miss the elections back home	48943319	1473208670157	1473208670292	t	84
94006	1028999	I was a bit rusty but I didn't want to miss the elections back home.	I was a bit rusty but I didn't want to miss the elections back home	48943323	1473208670204	1473208670376	 	32
94006	1028999	I was a bit rusty but I didn't want to miss the elections back home.	I was a bit rusty but I didn't want to miss the elections back home	48943326	1473208670445	1473208670574	r	82
94006	1028999	I was a bit rusty but I didn't want to miss the elections back home.	I was a bit rusty but I didn't want to miss the elections back home	48943329	1473208670568	1473208670702	u	85
94006	1028999	I was a bit rusty but I didn't want to miss the elections back home.	I was a bit rusty but I didn't want to miss the elections back home	48943334	1473208670674	1473208670850	s	83
94006	1028999	I was a bit rusty but I didn't want to miss the elections back home.	I was a bit rusty but I didn't want to miss the elections back home	48943441	1473208670784	1473208670912	t	84
94006	1028999	I was a bit rusty but I didn't want to miss the elections back home.	I was a bit rusty but I didn't want to miss the elections back home	48943445	1473208670925	1473208671100	y	89
94006	1028999	I was a bit rusty but I didn't want to miss the elections back home.	I was a bit rusty but I didn't want to miss the elections back home	48943450	1473208671015	1473208671175	 	32
94006	1028999	I was a bit rusty but I didn't want to miss the elections back home.	I was a bit rusty but I didn't want to miss the elections back home	48943453	1473208671454	1473208671626	u	85
94006	1028999	I was a bit rusty but I didn't want to miss the elections back home.	I was a bit rusty but I didn't want to miss the elections back home	48943458	1473208671791	1473208671884	BKSP	8
94006	1028999	I was a bit rusty but I didn't want to miss the elections back home.	I was a bit rusty but I didn't want to miss the elections back home	48943461	1473208672033	1473208672107	b	66
94006	1028999	I was a bit rusty but I didn't want to miss the elections back home.	I was a bit rusty but I didn't want to miss the elections back home	48943466	1473208672214	1473208672366	u	85
94006	1028999	I was a bit rusty but I didn't want to miss the elections back home.	I was a bit rusty but I didn't want to miss the elections back home	48943516	1473208672343	1473208672492	t	84
94006	1028999	I was a bit rusty but I didn't want to miss the elections back home.	I was a bit rusty but I didn't want to miss the elections back home	48943519	1473208672417	1473208672577	 	32
94006	1028999	I was a bit rusty but I didn't want to miss the elections back home.	I was a bit rusty but I didn't want to miss the elections back home	48943523	1473208672589	1473208672711	i	73
94006	1028999	I was a bit rusty but I didn't want to miss the elections back home.	I was a bit rusty but I didn't want to miss the elections back home	48943528	1473208672861	1473208672970	BKSP	8
94006	1028999	I was a bit rusty but I didn't want to miss the elections back home.	I was a bit rusty but I didn't want to miss the elections back home	48943535	1473208672965	1473208673191	SHIFT	16
94006	1028999	I was a bit rusty but I didn't want to miss the elections back home.	I was a bit rusty but I didn't want to miss the elections back home	48943540	1473208673068	1473208673216	I	73
94006	1028999	I was a bit rusty but I didn't want to miss the elections back home.	I was a bit rusty but I didn't want to miss the elections back home	48943545	1473208673185	1473208673332	 	32
94006	1028999	I was a bit rusty but I didn't want to miss the elections back home.	I was a bit rusty but I didn't want to miss the elections back home	48943551	1473208673396	1473208673475	d	68
94006	1028999	I was a bit rusty but I didn't want to miss the elections back home.	I was a bit rusty but I didn't want to miss the elections back home	48943592	1473208673468	1473208673653	i	73
94006	1028999	I was a bit rusty but I didn't want to miss the elections back home.	I was a bit rusty but I didn't want to miss the elections back home	48943596	1473208673585	1473208673683	d	68
94006	1028999	I was a bit rusty but I didn't want to miss the elections back home.	I was a bit rusty but I didn't want to miss the elections back home	48943600	1473208673647	1473208673812	n	78
94006	1028999	I was a bit rusty but I didn't want to miss the elections back home.	I was a bit rusty but I didn't want to miss the elections back home	48943605	1473208674172	1473208674393	'	222
94006	1028999	I was a bit rusty but I didn't want to miss the elections back home.	I was a bit rusty but I didn't want to miss the elections back home	48943609	1473208674569	1473208674776	t	84
94006	1028999	I was a bit rusty but I didn't want to miss the elections back home.	I was a bit rusty but I didn't want to miss the elections back home	48943626	1473208674692	1473208674889	 	32
94006	1028999	I was a bit rusty but I didn't want to miss the elections back home.	I was a bit rusty but I didn't want to miss the elections back home	48943629	1473208674882	1473208675012	w	87
94006	1028999	I was a bit rusty but I didn't want to miss the elections back home.	I was a bit rusty but I didn't want to miss the elections back home	48943632	1473208675034	1473208675116	a	65
94006	1028999	I was a bit rusty but I didn't want to miss the elections back home.	I was a bit rusty but I didn't want to miss the elections back home	48943635	1473208675109	1473208675250	n	78
94006	1028999	I was a bit rusty but I didn't want to miss the elections back home.	I was a bit rusty but I didn't want to miss the elections back home	48943639	1473208675328	1473208675488	t	84
94006	1028999	I was a bit rusty but I didn't want to miss the elections back home.	I was a bit rusty but I didn't want to miss the elections back home	48943679	1473208675444	1473208675585	 	32
94006	1028999	I was a bit rusty but I didn't want to miss the elections back home.	I was a bit rusty but I didn't want to miss the elections back home	48943682	1473208675616	1473208675823	t	84
94006	1028999	I was a bit rusty but I didn't want to miss the elections back home.	I was a bit rusty but I didn't want to miss the elections back home	48943685	1473208675726	1473208675952	o	79
94006	1028999	I was a bit rusty but I didn't want to miss the elections back home.	I was a bit rusty but I didn't want to miss the elections back home	48943688	1473208675798	1473208676049	 	32
94006	1028999	I was a bit rusty but I didn't want to miss the elections back home.	I was a bit rusty but I didn't want to miss the elections back home	48943692	1473208675996	1473208676180	m	77
94006	1028999	I was a bit rusty but I didn't want to miss the elections back home.	I was a bit rusty but I didn't want to miss the elections back home	48943736	1473208676143	1473208676308	i	73
94006	1028999	I was a bit rusty but I didn't want to miss the elections back home.	I was a bit rusty but I didn't want to miss the elections back home	48943739	1473208676274	1473208676352	s	83
94006	1028999	I was a bit rusty but I didn't want to miss the elections back home.	I was a bit rusty but I didn't want to miss the elections back home	48943740	1473208676436	1473208676548	s	83
94006	1028999	I was a bit rusty but I didn't want to miss the elections back home.	I was a bit rusty but I didn't want to miss the elections back home	48943741	1473208676492	1473208676670	 	32
94006	1028999	I was a bit rusty but I didn't want to miss the elections back home.	I was a bit rusty but I didn't want to miss the elections back home	48943743	1473208676706	1473208676774	e	69
94006	1028999	I was a bit rusty but I didn't want to miss the elections back home.	I was a bit rusty but I didn't want to miss the elections back home	48943745	1473208676949	1473208677018	BKSP	8
94006	1028999	I was a bit rusty but I didn't want to miss the elections back home.	I was a bit rusty but I didn't want to miss the elections back home	48943748	1473208677063	1473208677112	t	84
94006	1028999	I was a bit rusty but I didn't want to miss the elections back home.	I was a bit rusty but I didn't want to miss the elections back home	48943802	1473208677263	1473208677335	BKSP	8
94006	1028999	I was a bit rusty but I didn't want to miss the elections back home.	I was a bit rusty but I didn't want to miss the elections back home	48943808	1473208677589	1473208677723	t	84
94006	1028999	I was a bit rusty but I didn't want to miss the elections back home.	I was a bit rusty but I didn't want to miss the elections back home	48943814	1473208677717	1473208677871	h	72
94006	1028999	I was a bit rusty but I didn't want to miss the elections back home.	I was a bit rusty but I didn't want to miss the elections back home	48943821	1473208677815	1473208677968	e	69
94006	1028999	I was a bit rusty but I didn't want to miss the elections back home.	I was a bit rusty but I didn't want to miss the elections back home	48943828	1473208677890	1473208678059	 	32
94006	1028999	I was a bit rusty but I didn't want to miss the elections back home.	I was a bit rusty but I didn't want to miss the elections back home	48943833	1473208678096	1473208678205	e	69
94006	1028999	I was a bit rusty but I didn't want to miss the elections back home.	I was a bit rusty but I didn't want to miss the elections back home	48943863	1473208678213	1473208678359	l	76
94006	1028999	I was a bit rusty but I didn't want to miss the elections back home.	I was a bit rusty but I didn't want to miss the elections back home	48943867	1473208678377	1473208678559	e	69
94006	1028999	I was a bit rusty but I didn't want to miss the elections back home.	I was a bit rusty but I didn't want to miss the elections back home	48943871	1473208678590	1473208678715	c	67
94006	1028999	I was a bit rusty but I didn't want to miss the elections back home.	I was a bit rusty but I didn't want to miss the elections back home	48943876	1473208678833	1473208678914	t	84
94006	1028999	I was a bit rusty but I didn't want to miss the elections back home.	I was a bit rusty but I didn't want to miss the elections back home	48943881	1473208678924	1473208679108	i	73
94006	1028999	I was a bit rusty but I didn't want to miss the elections back home.	I was a bit rusty but I didn't want to miss the elections back home	48943905	1473208679036	1473208679263	o	79
94006	1028999	I was a bit rusty but I didn't want to miss the elections back home.	I was a bit rusty but I didn't want to miss the elections back home	48943910	1473208679171	1473208679398	n	78
94006	1028999	I was a bit rusty but I didn't want to miss the elections back home.	I was a bit rusty but I didn't want to miss the elections back home	48943914	1473208679316	1473208679501	s	83
94006	1028999	I was a bit rusty but I didn't want to miss the elections back home.	I was a bit rusty but I didn't want to miss the elections back home	48943918	1473208679417	1473208679636	 	32
94006	1028999	I was a bit rusty but I didn't want to miss the elections back home.	I was a bit rusty but I didn't want to miss the elections back home	48943923	1473208679624	1473208679777	b	66
94006	1028999	I was a bit rusty but I didn't want to miss the elections back home.	I was a bit rusty but I didn't want to miss the elections back home	48943939	1473208679721	1473208679918	a	65
94006	1028999	I was a bit rusty but I didn't want to miss the elections back home.	I was a bit rusty but I didn't want to miss the elections back home	48943941	1473208679856	1473208679999	c	67
94006	1028999	I was a bit rusty but I didn't want to miss the elections back home.	I was a bit rusty but I didn't want to miss the elections back home	48943943	1473208679974	1473208680165	k	75
94006	1028999	I was a bit rusty but I didn't want to miss the elections back home.	I was a bit rusty but I didn't want to miss the elections back home	48943946	1473208680074	1473208680250	 	32
94006	1028999	I was a bit rusty but I didn't want to miss the elections back home.	I was a bit rusty but I didn't want to miss the elections back home	48943948	1473208680190	1473208680373	h	72
94006	1028999	I was a bit rusty but I didn't want to miss the elections back home.	I was a bit rusty but I didn't want to miss the elections back home	48943971	1473208680353	1473208680569	o	79
94006	1028999	I was a bit rusty but I didn't want to miss the elections back home.	I was a bit rusty but I didn't want to miss the elections back home	48943975	1473208680513	1473208680697	m	77
94006	1028999	I was a bit rusty but I didn't want to miss the elections back home.	I was a bit rusty but I didn't want to miss the elections back home	48943979	1473208680666	1473208680726	e	69
94006	1029014	I'll email her later tonight.	I'll email her later tonight.	48944191	1473208683482	1473208683739	SHIFT	16
94006	1029014	I'll email her later tonight.	I'll email her later tonight.	48944194	1473208683623	1473208683758	I	73
94006	1029014	I'll email her later tonight.	I'll email her later tonight.	48944200	1473208684979	1473208685076	l	76
94006	1029014	I'll email her later tonight.	I'll email her later tonight.	48944207	1473208685132	1473208685317	l	76
94006	1029014	I'll email her later tonight.	I'll email her later tonight.	48944237	1473208685245	1473208685432	 	32
94006	1029014	I'll email her later tonight.	I'll email her later tonight.	48944240	1473208685528	1473208685662	e	69
94006	1029014	I'll email her later tonight.	I'll email her later tonight.	48944244	1473208685656	1473208685809	m	77
94006	1029014	I'll email her later tonight.	I'll email her later tonight.	48944251	1473208685822	1473208685939	a	65
94006	1029014	I'll email her later tonight.	I'll email her later tonight.	48944256	1473208685934	1473208686131	i	73
94006	1029014	I'll email her later tonight.	I'll email her later tonight.	48944286	1473208686055	1473208686281	l	76
94006	1029014	I'll email her later tonight.	I'll email her later tonight.	48944291	1473208686196	1473208686362	 	32
94006	1029014	I'll email her later tonight.	I'll email her later tonight.	48944295	1473208686689	1473208686849	h	72
94006	1029014	I'll email her later tonight.	I'll email her later tonight.	48944298	1473208686811	1473208687088	e	69
94006	1029014	I'll email her later tonight.	I'll email her later tonight.	48944335	1473208686921	1473208687149	r	82
94006	1029014	I'll email her later tonight.	I'll email her later tonight.	48944337	1473208687003	1473208687193	 	32
94006	1029014	I'll email her later tonight.	I'll email her later tonight.	48944338	1473208687364	1473208687540	l	76
94006	1029014	I'll email her later tonight.	I'll email her later tonight.	48944339	1473208687462	1473208687681	a	65
94006	1029014	I'll email her later tonight.	I'll email her later tonight.	48944341	1473208687590	1473208687751	t	84
94006	1029014	I'll email her later tonight.	I'll email her later tonight.	48944346	1473208687731	1473208688013	e	69
94006	1029014	I'll email her later tonight.	I'll email her later tonight.	48944369	1473208687847	1473208688048	r	82
94006	1029014	I'll email her later tonight.	I'll email her later tonight.	48944371	1473208687989	1473208688129	 	32
94006	1029014	I'll email her later tonight.	I'll email her later tonight.	48944375	1473208688344	1473208688443	t	84
94006	1029014	I'll email her later tonight.	I'll email her later tonight.	48944379	1473208688528	1473208688725	o	79
94006	1029014	I'll email her later tonight.	I'll email her later tonight.	48944382	1473208688656	1473208688835	n	78
94006	1029014	I'll email her later tonight.	I'll email her later tonight.	48944386	1473208688804	1473208689016	i	73
94006	1029014	I'll email her later tonight.	I'll email her later tonight.	48944398	1473208688994	1473208689086	g	71
94006	1029014	I'll email her later tonight.	I'll email her later tonight.	48944400	1473208689048	1473208689245	h	72
94006	1029014	I'll email her later tonight.	I'll email her later tonight.	48944404	1473208689239	1473208689354	t	84
94006	1029014	I'll email her later tonight.	I'll email her later tonight.	48944408	1473208689318	1473208689483	.	190
94006	1029020	We just need a sitter.	We just need a sitter.	48944484	1473208691027	1473208691340	SHIFT	16
94006	1029020	We just need a sitter.	We just need a sitter.	48944487	1473208691284	1473208691519	W	87
94006	1029020	We just need a sitter.	We just need a sitter.	48944491	1473208691450	1473208691617	e	69
94006	1029020	We just need a sitter.	We just need a sitter.	48944493	1473208691554	1473208691726	 	32
94006	1029020	We just need a sitter.	We just need a sitter.	48944495	1473208691670	1473208691804	j	74
94006	1029020	We just need a sitter.	We just need a sitter.	48944497	1473208691875	1473208692016	u	85
94006	1029020	We just need a sitter.	We just need a sitter.	48944506	1473208691972	1473208692140	s	83
94006	1029020	We just need a sitter.	We just need a sitter.	48944508	1473208692071	1473208692243	t	84
94006	1029020	We just need a sitter.	We just need a sitter.	48944510	1473208692134	1473208692293	 	32
94006	1029020	We just need a sitter.	We just need a sitter.	48944511	1473208692250	1473208692384	n	78
94006	1029020	We just need a sitter.	We just need a sitter.	48944513	1473208692341	1473208692438	e	69
94006	1029020	We just need a sitter.	We just need a sitter.	48944516	1473208692497	1473208692575	e	69
94006	1029020	We just need a sitter.	We just need a sitter.	48944544	1473208692657	1473208692882	d	68
94006	1029020	We just need a sitter.	We just need a sitter.	48944546	1473208692773	1473208692948	 	32
94006	1029020	We just need a sitter.	We just need a sitter.	48944552	1473208692942	1473208693071	a	65
94006	1029020	We just need a sitter.	We just need a sitter.	48944558	1473208692986	1473208693224	 	32
94006	1029020	We just need a sitter.	We just need a sitter.	48944563	1473208693409	1473208693462	i	83
94006	1029020	We just need a sitter.	We just need a sitter.	48944607	1473208693925	1473208694018	t	84
94006	1029020	We just need a sitter.	We just need a sitter.	48944611	1473208694064	1473208694186	t	84
94006	1029020	We just need a sitter.	We just need a sitter.	48944614	1473208694174	1473208694371	e	69
94006	1029020	We just need a sitter.	We just need a sitter.	48944615	1473208694302	1473208694430	r	82
94006	1029020	We just need a sitter.	We just need a sitter.	48944622	1473208694424	1473208694505	.	190
94006	1029025	On my way back.	On my way back.	48944739	1473208696078	1473208696323	SHIFT	16
94006	1029025	On my way back.	On my way back.	48944741	1473208696213	1473208696434	O	79
94006	1029025	On my way back.	On my way back.	48944745	1473208696336	1473208696540	n	78
94006	1029025	On my way back.	On my way back.	48944749	1473208696496	1473208696709	 	32
94006	1029025	On my way back.	On my way back.	48944752	1473208696870	1473208696924	m	77
94006	1029025	On my way back.	On my way back.	48944757	1473208697063	1473208697210	y	89
94006	1029025	On my way back.	On my way back.	48944780	1473208697160	1473208697326	 	32
94006	1029025	On my way back.	On my way back.	48944785	1473208697578	1473208697707	w	87
94006	1029025	On my way back.	On my way back.	48944789	1473208697663	1473208697819	a	65
94006	1029025	On my way back.	On my way back.	48944794	1473208697798	1473208697945	y	89
94006	1029025	On my way back.	On my way back.	48944799	1473208697892	1473208698067	 	32
94006	1029025	On my way back.	On my way back.	48944817	1473208698061	1473208698200	b	66
94006	1029025	On my way back.	On my way back.	48944822	1473208698179	1473208698332	a	65
94006	1029025	On my way back.	On my way back.	48944825	1473208698266	1473208698401	c	67
94006	1029025	On my way back.	On my way back.	48944828	1473208698357	1473208698461	k	75
94006	1029025	On my way back.	On my way back.	48944830	1473208698545	1473208698657	.	190
94006	1029029	The evacuees included babies and young children.	The evacuees included babies and young children.	48944924	1473208700346	1473208700593	SHIFT	16
94006	1029029	The evacuees included babies and young children.	The evacuees included babies and young children.	48944926	1473208700506	1473208700653	T	84
94006	1029029	The evacuees included babies and young children.	The evacuees included babies and young children.	48944928	1473208700684	1473208700856	h	72
94006	1029029	The evacuees included babies and young children.	The evacuees included babies and young children.	48944930	1473208700850	1473208701050	e	69
94006	1029029	The evacuees included babies and young children.	The evacuees included babies and young children.	48944932	1473208700966	1473208701150	 	32
94006	1029029	The evacuees included babies and young children.	The evacuees included babies and young children.	48944970	1473208701144	1473208701295	e	69
94006	1029029	The evacuees included babies and young children.	The evacuees included babies and young children.	48944972	1473208701613	1473208701859	v	86
94006	1029029	The evacuees included babies and young children.	The evacuees included babies and young children.	48944974	1473208701772	1473208701884	a	65
94006	1029029	The evacuees included babies and young children.	The evacuees included babies and young children.	48944976	1473208702021	1473208702195	c	67
94006	1029029	The evacuees included babies and young children.	The evacuees included babies and young children.	48944978	1473208702175	1473208702335	u	85
94006	1029029	The evacuees included babies and young children.	The evacuees included babies and young children.	48944979	1473208702341	1473208702420	e	69
94006	1029029	The evacuees included babies and young children.	The evacuees included babies and young children.	48944994	1473208702494	1473208702585	e	69
94006	1029029	The evacuees included babies and young children.	The evacuees included babies and young children.	48944996	1473208702621	1473208702828	s	83
94006	1029029	The evacuees included babies and young children.	The evacuees included babies and young children.	48945001	1473208702750	1473208702925	 	32
94006	1029029	The evacuees included babies and young children.	The evacuees included babies and young children.	48945006	1473208703044	1473208703254	i	73
94006	1029029	The evacuees included babies and young children.	The evacuees included babies and young children.	48945035	1473208703191	1473208703339	n	78
94006	1029029	The evacuees included babies and young children.	The evacuees included babies and young children.	48945037	1473208703326	1473208703455	c	67
94006	1029029	The evacuees included babies and young children.	The evacuees included babies and young children.	48945040	1473208703448	1473208703627	l	76
94006	1029029	The evacuees included babies and young children.	The evacuees included babies and young children.	48945043	1473208703571	1473208703712	u	85
94006	1029029	The evacuees included babies and young children.	The evacuees included babies and young children.	48945049	1473208703652	1473208703761	d	68
94006	1029029	The evacuees included babies and young children.	The evacuees included babies and young children.	48945052	1473208703845	1473208703933	e	69
94006	1029029	The evacuees included babies and young children.	The evacuees included babies and young children.	48945069	1473208704036	1473208704196	d	68
94006	1029029	The evacuees included babies and young children.	The evacuees included babies and young children.	48945072	1473208704118	1473208704284	 	32
94006	1029029	The evacuees included babies and young children.	The evacuees included babies and young children.	48945078	1473208704259	1473208704357	b	66
94006	1029029	The evacuees included babies and young children.	The evacuees included babies and young children.	48945084	1473208704351	1473208704467	a	65
94006	1029029	The evacuees included babies and young children.	The evacuees included babies and young children.	48945088	1473208704509	1473208704637	b	66
94006	1029029	The evacuees included babies and young children.	The evacuees included babies and young children.	48945117	1473208704991	1473208705167	i	73
94006	1029029	The evacuees included babies and young children.	The evacuees included babies and young children.	48945120	1473208705113	1473208705290	e	69
94006	1029029	The evacuees included babies and young children.	The evacuees included babies and young children.	48945123	1473208705217	1473208705377	s	83
94006	1029029	The evacuees included babies and young children.	The evacuees included babies and young children.	48945127	1473208705314	1473208705468	 	32
94006	1029029	The evacuees included babies and young children.	The evacuees included babies and young children.	48945169	1473208705437	1473208705579	a	65
94006	1029029	The evacuees included babies and young children.	The evacuees included babies and young children.	48945172	1473208705542	1473208705682	n	78
94006	1029029	The evacuees included babies and young children.	The evacuees included babies and young children.	48945177	1473208705642	1473208705899	d	68
94006	1029029	The evacuees included babies and young children.	The evacuees included babies and young children.	48945181	1473208705792	1473208705996	 	32
94006	1029029	The evacuees included babies and young children.	The evacuees included babies and young children.	48945184	1473208705971	1473208706106	y	89
94006	1029029	The evacuees included babies and young children.	The evacuees included babies and young children.	48945190	1473208706179	1473208706313	o	79
94006	1029029	The evacuees included babies and young children.	The evacuees included babies and young children.	48945203	1473208706241	1473208706382	u	85
94006	1029029	The evacuees included babies and young children.	The evacuees included babies and young children.	48945204	1473208706477	1473208706649	n	78
94006	1029029	The evacuees included babies and young children.	The evacuees included babies and young children.	48945206	1473208706586	1473208706709	g	71
94006	1029029	The evacuees included babies and young children.	The evacuees included babies and young children.	48945208	1473208706637	1473208706826	 	32
94006	1029029	The evacuees included babies and young children.	The evacuees included babies and young children.	48945211	1473208706907	1473208707029	c	67
94006	1029029	The evacuees included babies and young children.	The evacuees included babies and young children.	48945244	1473208707023	1473208707199	h	72
94006	1029029	The evacuees included babies and young children.	The evacuees included babies and young children.	48945247	1473208707089	1473208707305	i	73
94006	1029029	The evacuees included babies and young children.	The evacuees included babies and young children.	48945249	1473208707236	1473208707443	l	76
94006	1029029	The evacuees included babies and young children.	The evacuees included babies and young children.	48945251	1473208707377	1473208707499	d	68
94006	1029029	The evacuees included babies and young children.	The evacuees included babies and young children.	48945255	1473208707553	1473208707775	r	82
94006	1029029	The evacuees included babies and young children.	The evacuees included babies and young children.	48945269	1473208707703	1473208707838	e	69
94006	1029029	The evacuees included babies and young children.	The evacuees included babies and young children.	48945272	1473208707781	1473208707907	n	78
94006	1029029	The evacuees included babies and young children.	The evacuees included babies and young children.	48945274	1473208707986	1473208708116	.	190
94006	1029044	I am at the lake.	I am at the lake.	48945388	1473208709725	1473208709963	SHIFT	16
94006	1029044	I am at the lake.	I am at the lake.	48945390	1473208709879	1473208710057	I	73
94006	1029044	I am at the lake.	I am at the lake.	48945395	1473208709989	1473208710161	 	32
94006	1029044	I am at the lake.	I am at the lake.	48945400	1473208710240	1473208710368	a	65
94006	1029044	I am at the lake.	I am at the lake.	48945404	1473208710362	1473208710601	m	77
94006	1029044	I am at the lake.	I am at the lake.	48945435	1473208710492	1473208710645	 	32
94006	1029044	I am at the lake.	I am at the lake.	48945438	1473208710747	1473208711003	a	65
94006	1029044	I am at the lake.	I am at the lake.	48945440	1473208710959	1473208711188	t	84
94006	1029044	I am at the lake.	I am at the lake.	48945442	1473208711119	1473208711278	 	32
94006	1029044	I am at the lake.	I am at the lake.	48945444	1473208711297	1473208711394	t	84
94006	1029044	I am at the lake.	I am at the lake.	48945447	1473208711401	1473208711516	h	72
94006	1029044	I am at the lake.	I am at the lake.	48945456	1473208711492	1473208711620	e	69
94006	1029044	I am at the lake.	I am at the lake.	48945459	1473208711554	1473208711731	 	32
94006	1029044	I am at the lake.	I am at the lake.	48945464	1473208711702	1473208711866	l	76
94006	1029044	I am at the lake.	I am at the lake.	48945469	1473208711838	1473208711897	a	65
94006	1029044	I am at the lake.	I am at the lake.	48945473	1473208711910	1473208712026	k	75
94006	1029044	I am at the lake.	I am at the lake.	48945480	1473208712020	1473208712142	e	69
94006	1029044	I am at the lake.	I am at the lake.	48945483	1473208712136	1473208712204	.	190
94006	1029049	Was wondering if you and Natalie connected?	Was wondering if you and Natalie connected?	48945584	1473208713851	1473208714122	SHIFT	16
94006	1029049	Was wondering if you and Natalie connected?	Was wondering if you and Natalie connected?	48945586	1473208714048	1473208714178	W	87
94006	1029049	Was wondering if you and Natalie connected?	Was wondering if you and Natalie connected?	48945589	1473208714262	1473208714460	a	65
94006	1029049	Was wondering if you and Natalie connected?	Was wondering if you and Natalie connected?	48945592	1473208714397	1473208714544	s	83
94006	1029049	Was wondering if you and Natalie connected?	Was wondering if you and Natalie connected?	48945595	1473208714448	1473208714648	 	32
94006	1029049	Was wondering if you and Natalie connected?	Was wondering if you and Natalie connected?	48945622	1473208714642	1473208714789	w	87
94006	1029049	Was wondering if you and Natalie connected?	Was wondering if you and Natalie connected?	48945626	1473208714831	1473208715019	o	79
94006	1029049	Was wondering if you and Natalie connected?	Was wondering if you and Natalie connected?	48945630	1473208714947	1473208715155	n	78
94006	1029049	Was wondering if you and Natalie connected?	Was wondering if you and Natalie connected?	48945634	1473208715063	1473208715168	d	68
94006	1029049	Was wondering if you and Natalie connected?	Was wondering if you and Natalie connected?	48945637	1473208715233	1473208715397	e	69
94006	1029049	Was wondering if you and Natalie connected?	Was wondering if you and Natalie connected?	48945662	1473208715330	1473208715475	r	82
94006	1029049	Was wondering if you and Natalie connected?	Was wondering if you and Natalie connected?	48945665	1473208715454	1473208715632	i	73
94006	1029049	Was wondering if you and Natalie connected?	Was wondering if you and Natalie connected?	48945668	1473208715532	1473208715736	n	78
94006	1029049	Was wondering if you and Natalie connected?	Was wondering if you and Natalie connected?	48945670	1473208715626	1473208715802	g	71
94006	1029049	Was wondering if you and Natalie connected?	Was wondering if you and Natalie connected?	48945673	1473208715693	1473208715871	 	32
94006	1029049	Was wondering if you and Natalie connected?	Was wondering if you and Natalie connected?	48945675	1473208715877	1473208716018	i	73
94006	1029049	Was wondering if you and Natalie connected?	Was wondering if you and Natalie connected?	48945699	1473208715987	1473208716163	f	70
94006	1029049	Was wondering if you and Natalie connected?	Was wondering if you and Natalie connected?	48945700	1473208716084	1473208716250	 	32
94006	1029049	Was wondering if you and Natalie connected?	Was wondering if you and Natalie connected?	48945701	1473208716312	1473208716421	y	89
94006	1029049	Was wondering if you and Natalie connected?	Was wondering if you and Natalie connected?	48945703	1473208716428	1473208716606	o	79
94006	1029049	Was wondering if you and Natalie connected?	Was wondering if you and Natalie connected?	48945705	1473208716544	1473208716712	u	85
94006	1029049	Was wondering if you and Natalie connected?	Was wondering if you and Natalie connected?	48945728	1473208716632	1473208716797	 	32
94006	1029049	Was wondering if you and Natalie connected?	Was wondering if you and Natalie connected?	48945729	1473208716756	1473208716859	a	65
94006	1029049	Was wondering if you and Natalie connected?	Was wondering if you and Natalie connected?	48945730	1473208716878	1473208717025	n	78
94006	1029049	Was wondering if you and Natalie connected?	Was wondering if you and Natalie connected?	48945731	1473208716956	1473208717097	d	68
94006	1029049	Was wondering if you and Natalie connected?	Was wondering if you and Natalie connected?	48945734	1473208717019	1473208717183	 	32
94006	1029049	Was wondering if you and Natalie connected?	Was wondering if you and Natalie connected?	48945743	1473208717116	1473208717355	SHIFT	16
94006	1029049	Was wondering if you and Natalie connected?	Was wondering if you and Natalie connected?	48945785	1473208717302	1473208717440	N	78
94006	1029049	Was wondering if you and Natalie connected?	Was wondering if you and Natalie connected?	48945788	1473208717471	1473208717588	a	65
94006	1029049	Was wondering if you and Natalie connected?	Was wondering if you and Natalie connected?	48945789	1473208717652	1473208717821	t	84
94006	1029049	Was wondering if you and Natalie connected?	Was wondering if you and Natalie connected?	48945792	1473208717793	1473208717951	a	65
94006	1029049	Was wondering if you and Natalie connected?	Was wondering if you and Natalie connected?	48945795	1473208717963	1473208718136	l	76
94006	1029049	Was wondering if you and Natalie connected?	Was wondering if you and Natalie connected?	48945810	1473208718111	1473208718264	i	73
94006	1029049	Was wondering if you and Natalie connected?	Was wondering if you and Natalie connected?	48945811	1473208718252	1473208718430	e	69
94006	1029049	Was wondering if you and Natalie connected?	Was wondering if you and Natalie connected?	48945812	1473208718355	1473208718514	 	32
94006	1029049	Was wondering if you and Natalie connected?	Was wondering if you and Natalie connected?	48945813	1473208718654	1473208718788	c	67
94006	1029049	Was wondering if you and Natalie connected?	Was wondering if you and Natalie connected?	48945814	1473208718763	1473208718917	o	79
94006	1029049	Was wondering if you and Natalie connected?	Was wondering if you and Natalie connected?	48945841	1473208718867	1473208718948	n	78
94006	1029049	Was wondering if you and Natalie connected?	Was wondering if you and Natalie connected?	48945844	1473208719010	1473208719132	n	78
94006	1029049	Was wondering if you and Natalie connected?	Was wondering if you and Natalie connected?	48945847	1473208719179	1473208719285	e	69
94006	1029049	Was wondering if you and Natalie connected?	Was wondering if you and Natalie connected?	48945850	1473208719342	1473208719470	c	67
94006	1029049	Was wondering if you and Natalie connected?	Was wondering if you and Natalie connected?	48945853	1473208719593	1473208719759	t	84
94006	1029049	Was wondering if you and Natalie connected?	Was wondering if you and Natalie connected?	48945858	1473208719734	1473208719827	e	69
94006	1029049	Was wondering if you and Natalie connected?	Was wondering if you and Natalie connected?	48945863	1473208719917	1473208720118	d	68
94006	1029049	Was wondering if you and Natalie connected?	Was wondering if you and Natalie connected?	48945876	1473208720052	1473208720407	SHIFT	16
94006	1029049	Was wondering if you and Natalie connected?	Was wondering if you and Natalie connected?	48945868	1473208720193	1473208720363	?	191
94006	1029059	These are big storms and traffic isn't moving.	These are big storms and trafic isn't moving.	48945978	1473208722025	1473208722385	SHIFT	16
94006	1029059	These are big storms and traffic isn't moving.	These are big storms and trafic isn't moving.	48945981	1473208722231	1473208722391	T	84
94006	1029059	These are big storms and traffic isn't moving.	These are big storms and trafic isn't moving.	48945984	1473208722481	1473208722641	h	72
94006	1029059	These are big storms and traffic isn't moving.	These are big storms and trafic isn't moving.	48945986	1473208722610	1473208722788	e	69
94006	1029059	These are big storms and traffic isn't moving.	These are big storms and trafic isn't moving.	48945990	1473208722763	1473208723137	s	83
94006	1029059	These are big storms and traffic isn't moving.	These are big storms and trafic isn't moving.	48946007	1473208722974	1473208723213	e	69
94006	1029059	These are big storms and traffic isn't moving.	These are big storms and trafic isn't moving.	48946011	1473208723084	1473208723305	 	32
94006	1029059	These are big storms and traffic isn't moving.	These are big storms and trafic isn't moving.	48946014	1473208723285	1473208723432	a	65
94006	1029059	These are big storms and traffic isn't moving.	These are big storms and trafic isn't moving.	48946018	1473208723354	1473208723599	r	82
94006	1029059	These are big storms and traffic isn't moving.	These are big storms and trafic isn't moving.	48946023	1473208723483	1473208723715	e	69
94006	1029059	These are big storms and traffic isn't moving.	These are big storms and trafic isn't moving.	48946028	1473208723586	1473208723781	 	32
94006	1029059	These are big storms and traffic isn't moving.	These are big storms and trafic isn't moving.	48946045	1473208723734	1473208723871	b	66
94006	1029059	These are big storms and traffic isn't moving.	These are big storms and trafic isn't moving.	48946049	1473208723850	1473208724025	i	73
94006	1029059	These are big storms and traffic isn't moving.	These are big storms and trafic isn't moving.	48946053	1473208723991	1473208724195	g	71
94006	1029059	These are big storms and traffic isn't moving.	These are big storms and trafic isn't moving.	48946057	1473208724076	1473208724297	 	32
94006	1029059	These are big storms and traffic isn't moving.	These are big storms and trafic isn't moving.	48946061	1473208724280	1473208724519	s	83
94006	1029059	These are big storms and traffic isn't moving.	These are big storms and trafic isn't moving.	48946088	1473208724494	1473208724629	t	84
94006	1029059	These are big storms and traffic isn't moving.	These are big storms and trafic isn't moving.	48946095	1473208724591	1473208724738	o	79
94006	1029059	These are big storms and traffic isn't moving.	These are big storms and trafic isn't moving.	48946101	1473208724770	1473208724886	r	82
94006	1029059	These are big storms and traffic isn't moving.	These are big storms and trafic isn't moving.	48946108	1473208724905	1473208725099	m	77
94006	1029059	These are big storms and traffic isn't moving.	These are big storms and trafic isn't moving.	48946116	1473208725056	1473208725240	s	83
94006	1029059	These are big storms and traffic isn't moving.	These are big storms and trafic isn't moving.	48946132	1473208725131	1473208725325	 	32
94006	1029059	These are big storms and traffic isn't moving.	These are big storms and trafic isn't moving.	48946133	1473208725319	1473208725443	a	65
94006	1029059	These are big storms and traffic isn't moving.	These are big storms and trafic isn't moving.	48946134	1473208725431	1473208725524	n	78
94006	1029059	These are big storms and traffic isn't moving.	These are big storms and trafic isn't moving.	48946136	1473208725512	1473208725738	d	68
94006	1029059	These are big storms and traffic isn't moving.	These are big storms and trafic isn't moving.	48946140	1473208725660	1473208725860	 	32
94006	1029059	These are big storms and traffic isn't moving.	These are big storms and trafic isn't moving.	48946205	1473208725854	1473208725935	t	84
94006	1029059	These are big storms and traffic isn't moving.	These are big storms and trafic isn't moving.	48946211	1473208726116	1473208726316	r	82
94006	1029059	These are big storms and traffic isn't moving.	These are big storms and trafic isn't moving.	48946217	1473208726310	1473208726532	a	65
94006	1029059	These are big storms and traffic isn't moving.	These are big storms and trafic isn't moving.	48946225	1473208726488	1473208726742	f	70
94006	1029059	These are big storms and traffic isn't moving.	These are big storms and trafic isn't moving.	48946233	1473208726784	1473208726937	i	73
94006	1029059	These are big storms and traffic isn't moving.	These are big storms and trafic isn't moving.	48946238	1473208726994	1473208727245	c	67
94006	1029059	These are big storms and traffic isn't moving.	These are big storms and trafic isn't moving.	48946333	1473208727110	1473208727394	 	32
94006	1029059	These are big storms and traffic isn't moving.	These are big storms and trafic isn't moving.	48946338	1473208727344	1473208727589	i	73
94006	1029059	These are big storms and traffic isn't moving.	These are big storms and trafic isn't moving.	48946345	1473208727491	1473208727645	n	78
94006	1029059	These are big storms and traffic isn't moving.	These are big storms and trafic isn't moving.	48946350	1473208727620	1473208727748	s	83
94006	1029059	These are big storms and traffic isn't moving.	These are big storms and trafic isn't moving.	48946359	1473208727881	1473208727980	;	186
94006	1029059	These are big storms and traffic isn't moving.	These are big storms and trafic isn't moving.	48946365	1473208728367	1473208728470	BKSP	8
94006	1029059	These are big storms and traffic isn't moving.	These are big storms and trafic isn't moving.	48946368	1473208728728	1473208728862	BKSP	8
94006	1029059	These are big storms and traffic isn't moving.	These are big storms and trafic isn't moving.	48946371	1473208729002	1473208729117	BKSP	8
94006	1029059	These are big storms and traffic isn't moving.	These are big storms and trafic isn't moving.	48946375	1473208729130	1473208729260	s	83
94006	1029059	These are big storms and traffic isn't moving.	These are big storms and trafic isn't moving.	48946459	1473208729295	1473208729466	n	78
94006	1029059	These are big storms and traffic isn't moving.	These are big storms and trafic isn't moving.	48946462	1473208729735	1473208729910	t	84
94006	1029059	These are big storms and traffic isn't moving.	These are big storms and trafic isn't moving.	48946466	1473208730211	1473208730352	BKSP	8
94006	1029059	These are big storms and traffic isn't moving.	These are big storms and trafic isn't moving.	48946479	1473208730843	1473208731015	t	84
94006	1029059	These are big storms and traffic isn't moving.	These are big storms and trafic isn't moving.	48946485	1473208730893	1473208731137	 	32
94006	1029059	These are big storms and traffic isn't moving.	These are big storms and trafic isn't moving.	48946498	1473208731112	1473208731347	m	77
94006	1029059	These are big storms and traffic isn't moving.	These are big storms and trafic isn't moving.	48946500	1473208731278	1473208731401	o	79
94006	1029059	These are big storms and traffic isn't moving.	These are big storms and trafic isn't moving.	48946502	1473208731341	1473208731469	v	86
94006	1029059	These are big storms and traffic isn't moving.	These are big storms and trafic isn't moving.	48946505	1473208731505	1473208731685	i	73
94006	1029059	These are big storms and traffic isn't moving.	These are big storms and trafic isn't moving.	48946515	1473208731586	1473208731735	n	78
94006	1029059	These are big storms and traffic isn't moving.	These are big storms and trafic isn't moving.	48946518	1473208731673	1473208731776	g	71
94006	1029059	These are big storms and traffic isn't moving.	These are big storms and trafic isn't moving.	48946523	1473208731795	1473208731892	.	190
94006	1029069	Kelly,I'm gonna be early this week.	Kelly,I'm gonna be early this week.	48946636	1473208733771	1473208734055	SHIFT	16
94006	1029069	Kelly,I'm gonna be early this week.	Kelly,I'm gonna be early this week.	48946639	1473208733980	1473208734102	K	75
94006	1029069	Kelly,I'm gonna be early this week.	Kelly,I'm gonna be early this week.	48946644	1473208734172	1473208734256	e	69
94006	1029069	Kelly,I'm gonna be early this week.	Kelly,I'm gonna be early this week.	48946646	1473208734708	1473208734782	l	76
94006	1029069	Kelly,I'm gonna be early this week.	Kelly,I'm gonna be early this week.	48946648	1473208734850	1473208735070	l	76
94006	1029069	Kelly,I'm gonna be early this week.	Kelly,I'm gonna be early this week.	48946774	1473208734998	1473208735113	y	89
94006	1029069	Kelly,I'm gonna be early this week.	Kelly,I'm gonna be early this week.	48946779	1473208735215	1473208735472	,	188
94006	1029069	Kelly,I'm gonna be early this week.	Kelly,I'm gonna be early this week.	48946785	1473208735406	1473208735575	 	32
94006	1029069	Kelly,I'm gonna be early this week.	Kelly,I'm gonna be early this week.	48946793	1473208735893	1473208736043	BKSP	8
94006	1029069	Kelly,I'm gonna be early this week.	Kelly,I'm gonna be early this week.	48946799	1473208736540	1473208736869	SHIFT	16
94006	1029069	Kelly,I'm gonna be early this week.	Kelly,I'm gonna be early this week.	48946796	1473208736681	1473208736803	I	73
94006	1029069	Kelly,I'm gonna be early this week.	Kelly,I'm gonna be early this week.	48946801	1473208737274	1473208737389	;	186
94006	1029069	Kelly,I'm gonna be early this week.	Kelly,I'm gonna be early this week.	48946802	1473208737550	1473208737765	m	77
94006	1029069	Kelly,I'm gonna be early this week.	Kelly,I'm gonna be early this week.	48947115	1473208737893	1473208738014	BKSP	8
94006	1029069	Kelly,I'm gonna be early this week.	Kelly,I'm gonna be early this week.	48947118	1473208738082	1473208738187	BKSP	8
94006	1029069	Kelly,I'm gonna be early this week.	Kelly,I'm gonna be early this week.	48947122	1473208738437	1473208738681	m	77
94006	1029069	Kelly,I'm gonna be early this week.	Kelly,I'm gonna be early this week.	48947364	1473208738838	1473208747402	BKSP	8
94006	1029069	Kelly,I'm gonna be early this week.	Kelly,I'm gonna be early this week.	48947127	1473208743343	1473208743424	'	222
94006	1029069	Kelly,I'm gonna be early this week.	Kelly,I'm gonna be early this week.	48947131	1473208743606	1473208743822	m	77
94006	1029069	Kelly,I'm gonna be early this week.	Kelly,I'm gonna be early this week.	48947133	1473208743728	1473208743912	 	32
94006	1029069	Kelly,I'm gonna be early this week.	Kelly,I'm gonna be early this week.	48947152	1473208743910	1473208744004	g	71
94006	1029069	Kelly,I'm gonna be early this week.	Kelly,I'm gonna be early this week.	48947155	1473208744016	1473208744157	o	79
94006	1029069	Kelly,I'm gonna be early this week.	Kelly,I'm gonna be early this week.	48947160	1473208744107	1473208744188	n	78
94006	1029069	Kelly,I'm gonna be early this week.	Kelly,I'm gonna be early this week.	48947169	1473208744255	1473208744371	n	78
94006	1029069	Kelly,I'm gonna be early this week.	Kelly,I'm gonna be early this week.	48947172	1473208744413	1473208744669	a	65
94006	1029069	Kelly,I'm gonna be early this week.	Kelly,I'm gonna be early this week.	48947201	1473208744620	1473208744818	 	32
94006	1029069	Kelly,I'm gonna be early this week.	Kelly,I'm gonna be early this week.	48947206	1473208744787	1473208744959	b	66
94006	1029069	Kelly,I'm gonna be early this week.	Kelly,I'm gonna be early this week.	48947210	1473208744897	1473208745063	e	69
94006	1029069	Kelly,I'm gonna be early this week.	Kelly,I'm gonna be early this week.	48947214	1473208745000	1473208745160	 	32
94006	1029069	Kelly,I'm gonna be early this week.	Kelly,I'm gonna be early this week.	48947219	1473208745213	1473208745395	e	69
94006	1029069	Kelly,I'm gonna be early this week.	Kelly,I'm gonna be early this week.	48947238	1473208745329	1473208745531	a	65
94006	1029069	Kelly,I'm gonna be early this week.	Kelly,I'm gonna be early this week.	48947240	1473208745476	1473208745586	r	82
94006	1029069	Kelly,I'm gonna be early this week.	Kelly,I'm gonna be early this week.	48947244	1473208745511	1473208745696	l	76
94006	1029069	Kelly,I'm gonna be early this week.	Kelly,I'm gonna be early this week.	48947247	1473208745715	1473208745903	y	89
94006	1029069	Kelly,I'm gonna be early this week.	Kelly,I'm gonna be early this week.	48947251	1473208745812	1473208746015	 	32
94006	1029069	Kelly,I'm gonna be early this week.	Kelly,I'm gonna be early this week.	48947303	1473208745947	1473208746084	t	84
94006	1029069	Kelly,I'm gonna be early this week.	Kelly,I'm gonna be early this week.	48947306	1473208746078	1473208746266	h	72
94006	1029069	Kelly,I'm gonna be early this week.	Kelly,I'm gonna be early this week.	48947310	1473208746144	1473208746309	i	73
94006	1029069	Kelly,I'm gonna be early this week.	Kelly,I'm gonna be early this week.	48947313	1473208746363	1473208746526	s	83
94006	1029069	Kelly,I'm gonna be early this week.	Kelly,I'm gonna be early this week.	48947317	1473208746639	1473208746776	w	87
94006	1029069	Kelly,I'm gonna be early this week.	Kelly,I'm gonna be early this week.	48947323	1473208746954	1473208747057	e	69
94006	1029069	Kelly,I'm gonna be early this week.	Kelly,I'm gonna be early this week.	48947363	1473208747111	1473208747215	e	69
94006	1029069	Kelly,I'm gonna be early this week.	Kelly,I'm gonna be early this week.	48947365	1473208747449	1473208747534	BKSP	8
94006	1029069	Kelly,I'm gonna be early this week.	Kelly,I'm gonna be early this week.	48947366	1473208747565	1473208747687	BKSP	8
94006	1029069	Kelly,I'm gonna be early this week.	Kelly,I'm gonna be early this week.	48947367	1473208747668	1473208747912	 	32
94006	1029069	Kelly,I'm gonna be early this week.	Kelly,I'm gonna be early this week.	48947368	1473208747815	1473208748006	w	87
94006	1029069	Kelly,I'm gonna be early this week.	Kelly,I'm gonna be early this week.	48947369	1473208747938	1473208748053	e	69
94006	1029069	Kelly,I'm gonna be early this week.	Kelly,I'm gonna be early this week.	48947370	1473208748090	1473208748199	e	69
94006	1029069	Kelly,I'm gonna be early this week.	Kelly,I'm gonna be early this week.	48947380	1473208748187	1473208748315	k	75
94006	1029069	Kelly,I'm gonna be early this week.	Kelly,I'm gonna be early this week.	48947382	1473208748405	1473208748498	.	190
94006	1029087	Can you please review and get back to Tim?	Can you please review and get back to Tim?	48947497	1473208750265	1473208750482	SHIFT	16
94006	1029087	Can you please review and get back to Tim?	Can you please review and get back to Tim?	48947502	1473208750365	1473208750542	C	67
94006	1029087	Can you please review and get back to Tim?	Can you please review and get back to Tim?	48947507	1473208750554	1473208750683	n	78
94006	1029087	Can you please review and get back to Tim?	Can you please review and get back to Tim?	48947512	1473208750657	1473208750824	a	65
94006	1029087	Can you please review and get back to Tim?	Can you please review and get back to Tim?	48947517	1473208750780	1473208750979	 	32
94006	1029087	Can you please review and get back to Tim?	Can you please review and get back to Tim?	48947569	1473208750830	1473208751010	y	89
94006	1029087	Can you please review and get back to Tim?	Can you please review and get back to Tim?	48947571	1473208751213	1473208751297	BKSP	8
94006	1029087	Can you please review and get back to Tim?	Can you please review and get back to Tim?	48947573	1473208751351	1473208751429	BKSP	8
94006	1029087	Can you please review and get back to Tim?	Can you please review and get back to Tim?	48947576	1473208751477	1473208751561	BKSP	8
94006	1029087	Can you please review and get back to Tim?	Can you please review and get back to Tim?	48947579	1473208751592	1473208751708	BKSP	8
94006	1029087	Can you please review and get back to Tim?	Can you please review and get back to Tim?	48947584	1473208751702	1473208751811	a	65
94006	1029087	Can you please review and get back to Tim?	Can you please review and get back to Tim?	48947586	1473208751818	1473208752024	n	78
94006	1029087	Can you please review and get back to Tim?	Can you please review and get back to Tim?	48947589	1473208751933	1473208752105	 	32
94006	1029087	Can you please review and get back to Tim?	Can you please review and get back to Tim?	48947591	1473208752124	1473208752351	y	89
94006	1029087	Can you please review and get back to Tim?	Can you please review and get back to Tim?	48947599	1473208752320	1473208752564	o	79
94006	1029087	Can you please review and get back to Tim?	Can you please review and get back to Tim?	48947601	1473208752449	1473208752646	u	85
94006	1029087	Can you please review and get back to Tim?	Can you please review and get back to Tim?	48947604	1473208752546	1473208752699	 	32
94006	1029087	Can you please review and get back to Tim?	Can you please review and get back to Tim?	48947607	1473208752706	1473208752840	p	80
94006	1029087	Can you please review and get back to Tim?	Can you please review and get back to Tim?	48947611	1473208752894	1473208753088	l	76
94006	1029087	Can you please review and get back to Tim?	Can you please review and get back to Tim?	48947653	1473208753016	1473208753192	e	69
94006	1029087	Can you please review and get back to Tim?	Can you please review and get back to Tim?	48947656	1473208753132	1473208753389	a	65
94006	1029087	Can you please review and get back to Tim?	Can you please review and get back to Tim?	48947661	1473208753298	1473208753525	s	83
94006	1029087	Can you please review and get back to Tim?	Can you please review and get back to Tim?	48947664	1473208753414	1473208753623	e	69
94006	1029087	Can you please review and get back to Tim?	Can you please review and get back to Tim?	48947668	1473208753520	1473208753720	 	32
94006	1029087	Can you please review and get back to Tim?	Can you please review and get back to Tim?	48947672	1473208753774	1473208754005	r	82
94006	1029087	Can you please review and get back to Tim?	Can you please review and get back to Tim?	48947837	1473208753934	1473208754127	e	69
94006	1029087	Can you please review and get back to Tim?	Can you please review and get back to Tim?	48947839	1473208754975	1473208755195	v	86
94006	1029087	Can you please review and get back to Tim?	Can you please review and get back to Tim?	48947840	1473208755145	1473208755336	e	69
94006	1029087	Can you please review and get back to Tim?	Can you please review and get back to Tim?	48947841	1473208755646	1473208755811	BKSP	8
94006	1029087	Can you please review and get back to Tim?	Can you please review and get back to Tim?	48947842	1473208756697	1473208756875	v	86
94006	1029087	Can you please review and get back to Tim?	Can you please review and get back to Tim?	48947844	1473208756806	1473208756959	i	73
94006	1029087	Can you please review and get back to Tim?	Can you please review and get back to Tim?	48947848	1473208757106	1473208757196	BKSP	8
94006	1029087	Can you please review and get back to Tim?	Can you please review and get back to Tim?	48947852	1473208757228	1473208757318	BKSP	8
94006	1029087	Can you please review and get back to Tim?	Can you please review and get back to Tim?	48947855	1473208757408	1473208757549	i	73
94006	1029087	Can you please review and get back to Tim?	Can you please review and get back to Tim?	48947885	1473208757502	1473208757728	e	69
94006	1029087	Can you please review and get back to Tim?	Can you please review and get back to Tim?	48947887	1473208757612	1473208757813	w	87
94006	1029087	Can you please review and get back to Tim?	Can you please review and get back to Tim?	48947891	1473208757703	1473208757875	 	32
94006	1029087	Can you please review and get back to Tim?	Can you please review and get back to Tim?	48947896	1473208757894	1473208758191	a	65
94006	1029087	Can you please review and get back to Tim?	Can you please review and get back to Tim?	48947897	1473208758179	1473208758353	n	78
94006	1029087	Can you please review and get back to Tim?	Can you please review and get back to Tim?	48947915	1473208758297	1473208758494	d	68
94006	1029087	Can you please review and get back to Tim?	Can you please review and get back to Tim?	48947918	1473208758365	1473208758602	 	32
94006	1029087	Can you please review and get back to Tim?	Can you please review and get back to Tim?	48947920	1473208758579	1473208758782	g	71
94006	1029087	Can you please review and get back to Tim?	Can you please review and get back to Tim?	48947927	1473208758732	1473208758996	e	69
94006	1029087	Can you please review and get back to Tim?	Can you please review and get back to Tim?	48947957	1473208758848	1473208759099	t	84
94006	1029087	Can you please review and get back to Tim?	Can you please review and get back to Tim?	48947977	1473208758989	1473208759879	 	32
94006	1029087	Can you please review and get back to Tim?	Can you please review and get back to Tim?	48947961	1473208759156	1473208759303	b	66
94006	1029087	Can you please review and get back to Tim?	Can you please review and get back to Tim?	48947965	1473208759259	1473208759466	a	65
94006	1029087	Can you please review and get back to Tim?	Can you please review and get back to Tim?	48947971	1473208759388	1473208759615	c	67
94006	1029087	Can you please review and get back to Tim?	Can you please review and get back to Tim?	48947974	1473208759541	1473208759787	k	75
94006	1029087	Can you please review and get back to Tim?	Can you please review and get back to Tim?	48948035	1473208759819	1473208759969	t	84
94006	1029087	Can you please review and get back to Tim?	Can you please review and get back to Tim?	48948038	1473208760023	1473208760262	o	32
94006	1029087	Can you please review and get back to Tim?	Can you please review and get back to Tim?	48948039	1473208760439	1473208760517	BKSP	8
94006	1029087	Can you please review and get back to Tim?	Can you please review and get back to Tim?	48948040	1473208760570	1473208760667	BKSP	8
94006	1029087	Can you please review and get back to Tim?	Can you please review and get back to Tim?	48948042	1473208760801	1473208761113	o	79
94006	1029087	Can you please review and get back to Tim?	Can you please review and get back to Tim?	48948044	1473208761107	1473208761310	 	32
94006	1029087	Can you please review and get back to Tim?	Can you please review and get back to Tim?	48948106	1473208761235	1473208761621	SHIFT	16
94006	1029087	Can you please review and get back to Tim?	Can you please review and get back to Tim?	48948047	1473208761426	1473208761586	T	84
94006	1029087	Can you please review and get back to Tim?	Can you please review and get back to Tim?	48948110	1473208761647	1473208761838	i	73
94006	1029087	Can you please review and get back to Tim?	Can you please review and get back to Tim?	48948116	1473208761769	1473208761941	m	77
94006	1029087	Can you please review and get back to Tim?	Can you please review and get back to Tim?	48948126	1473208762102	1473208762872	SHIFT	16
94006	1029087	Can you please review and get back to Tim?	Can you please review and get back to Tim?	48948120	1473208762721	1473208762812	?	191
94006	1029103	Ernie Els was back to his best.	Ernie Els was back to his best.	48948320	1473208764560	1473208765268	SHIFT	16
94006	1029103	Ernie Els was back to his best.	Ernie Els was back to his best.	48948316	1473208765042	1473208765249	E	69
94006	1029103	Ernie Els was back to his best.	Ernie Els was back to his best.	48948324	1473208765622	1473208765739	r	82
94006	1029103	Ernie Els was back to his best.	Ernie Els was back to his best.	48948328	1473208766144	1473208766363	n	78
94006	1029103	Ernie Els was back to his best.	Ernie Els was back to his best.	48948334	1473208766241	1473208766426	i	73
94006	1029103	Ernie Els was back to his best.	Ernie Els was back to his best.	48948396	1473208766395	1473208766589	e	69
94006	1029103	Ernie Els was back to his best.	Ernie Els was back to his best.	48948399	1473208766492	1473208766718	 	32
94006	1029103	Ernie Els was back to his best.	Ernie Els was back to his best.	48948403	1473208766677	1473208767058	SHIFT	16
94006	1029103	Ernie Els was back to his best.	Ernie Els was back to his best.	48948402	1473208766871	1473208767014	E	69
94006	1029103	Ernie Els was back to his best.	Ernie Els was back to his best.	48948405	1473208767175	1473208767350	l	76
94006	1029103	Ernie Els was back to his best.	Ernie Els was back to his best.	48948406	1473208767500	1473208767714	s	83
94006	1029103	Ernie Els was back to his best.	Ernie Els was back to his best.	48948425	1473208767623	1473208767814	 	32
94006	1029103	Ernie Els was back to his best.	Ernie Els was back to his best.	48948428	1473208767830	1473208767930	w	87
94006	1029103	Ernie Els was back to his best.	Ernie Els was back to his best.	48948432	1473208767898	1473208768174	a	65
94006	1029103	Ernie Els was back to his best.	Ernie Els was back to his best.	48948436	1473208768087	1473208768242	s	83
94006	1029103	Ernie Els was back to his best.	Ernie Els was back to his best.	48948439	1473208768156	1473208768352	 	32
94006	1029103	Ernie Els was back to his best.	Ernie Els was back to his best.	48948452	1473208768324	1473208768452	b	66
94006	1029103	Ernie Els was back to his best.	Ernie Els was back to his best.	48948456	1473208768446	1473208768646	a	65
94006	1029103	Ernie Els was back to his best.	Ernie Els was back to his best.	48948459	1473208768568	1473208768721	c	67
94006	1029103	Ernie Els was back to his best.	Ernie Els was back to his best.	48948463	1473208768678	1473208768897	k	75
94006	1029103	Ernie Els was back to his best.	Ernie Els was back to his best.	48948468	1473208768800	1473208769007	 	32
94006	1029103	Ernie Els was back to his best.	Ernie Els was back to his best.	48948485	1473208768979	1473208769107	t	84
94006	1029103	Ernie Els was back to his best.	Ernie Els was back to his best.	48948487	1473208769063	1473208769245	o	79
94006	1029103	Ernie Els was back to his best.	Ernie Els was back to his best.	48948489	1473208769160	1473208769374	 	32
94006	1029103	Ernie Els was back to his best.	Ernie Els was back to his best.	48948491	1473208769358	1473208769529	h	72
94006	1029103	Ernie Els was back to his best.	Ernie Els was back to his best.	48948492	1473208769449	1473208769639	i	73
94006	1029103	Ernie Els was back to his best.	Ernie Els was back to his best.	48948516	1473208769592	1473208769727	s	83
94006	1029103	Ernie Els was back to his best.	Ernie Els was back to his best.	48948518	1473208769613	1473208769843	 	32
94006	1029103	Ernie Els was back to his best.	Ernie Els was back to his best.	48948521	1473208769812	1473208769952	h	72
94006	1029103	Ernie Els was back to his best.	Ernie Els was back to his best.	48948524	1473208770199	1473208770296	BKSP	8
94006	1029103	Ernie Els was back to his best.	Ernie Els was back to his best.	48948527	1473208770380	1473208770515	b	66
94006	1029103	Ernie Els was back to his best.	Ernie Els was back to his best.	48948529	1473208770474	1473208770693	e	69
94006	1029103	Ernie Els was back to his best.	Ernie Els was back to his best.	48948531	1473208770609	1473208770909	s	83
94006	1029103	Ernie Els was back to his best.	Ernie Els was back to his best.	48948537	1473208770798	1473208770983	t	84
94006	1029103	Ernie Els was back to his best.	Ernie Els was back to his best.	48948542	1473208770883	1473208771012	.	190
94006	1029113	I think your outlined measures sound fine.	I think your outlined measures sound fine.	48948649	1473208772781	1473208773027	SHIFT	16
94006	1029113	I think your outlined measures sound fine.	I think your outlined measures sound fine.	48948652	1473208772910	1473208773163	I	73
94006	1029113	I think your outlined measures sound fine.	I think your outlined measures sound fine.	48948656	1473208773076	1473208773322	 	32
94006	1029113	I think your outlined measures sound fine.	I think your outlined measures sound fine.	48948659	1473208773316	1473208773419	t	84
94006	1029113	I think your outlined measures sound fine.	I think your outlined measures sound fine.	48948662	1473208773432	1473208773658	h	72
94006	1029113	I think your outlined measures sound fine.	I think your outlined measures sound fine.	48948700	1473208773585	1473208773843	i	73
94006	1029113	I think your outlined measures sound fine.	I think your outlined measures sound fine.	48948702	1473208773752	1473208774043	n	78
94006	1029113	I think your outlined measures sound fine.	I think your outlined measures sound fine.	48948705	1473208773933	1473208774294	k	75
94006	1029113	I think your outlined measures sound fine.	I think your outlined measures sound fine.	48948708	1473208774165	1473208774394	 	32
94006	1029113	I think your outlined measures sound fine.	I think your outlined measures sound fine.	48948715	1473208774332	1473208774518	y	89
94006	1029113	I think your outlined measures sound fine.	I think your outlined measures sound fine.	48948744	1473208774513	1473208774688	o	79
94006	1029113	I think your outlined measures sound fine.	I think your outlined measures sound fine.	48948747	1473208774622	1473208774848	u	85
94006	1029113	I think your outlined measures sound fine.	I think your outlined measures sound fine.	48948751	1473208774719	1473208774898	r	82
94006	1029113	I think your outlined measures sound fine.	I think your outlined measures sound fine.	48948755	1473208774776	1473208774989	 	32
94006	1029113	I think your outlined measures sound fine.	I think your outlined measures sound fine.	48948756	1473208774927	1473208775124	o	79
94006	1029113	I think your outlined measures sound fine.	I think your outlined measures sound fine.	48948804	1473208775062	1473208775252	u	85
94006	1029113	I think your outlined measures sound fine.	I think your outlined measures sound fine.	48948808	1473208775456	1473208775565	t	84
94006	1029113	I think your outlined measures sound fine.	I think your outlined measures sound fine.	48948812	1473208775584	1473208775788	l	76
94006	1029113	I think your outlined measures sound fine.	I think your outlined measures sound fine.	48948818	1473208775738	1473208775970	i	73
94006	1029113	I think your outlined measures sound fine.	I think your outlined measures sound fine.	48948822	1473208775880	1473208776046	n	78
94006	1029113	I think your outlined measures sound fine.	I think your outlined measures sound fine.	48948910	1473208776002	1473208776111	d	68
94006	1029113	I think your outlined measures sound fine.	I think your outlined measures sound fine.	48948913	1473208776563	1473208776691	=	187
94006	1029113	I think your outlined measures sound fine.	I think your outlined measures sound fine.	48948916	1473208776722	1473208776819	e	69
94006	1029113	I think your outlined measures sound fine.	I think your outlined measures sound fine.	48948921	1473208777027	1473208777121	BKSP	8
94006	1029113	I think your outlined measures sound fine.	I think your outlined measures sound fine.	48948923	1473208777183	1473208777251	BKSP	8
94006	1029113	I think your outlined measures sound fine.	I think your outlined measures sound fine.	48948927	1473208777297	1473208777372	BKSP	8
94006	1029113	I think your outlined measures sound fine.	I think your outlined measures sound fine.	48948929	1473208777683	1473208777755	e	69
94006	1029113	I think your outlined measures sound fine.	I think your outlined measures sound fine.	48948932	1473208777855	1473208778009	d	68
94006	1029113	I think your outlined measures sound fine.	I think your outlined measures sound fine.	48948955	1473208777943	1473208778145	 	32
94006	1029113	I think your outlined measures sound fine.	I think your outlined measures sound fine.	48948956	1473208778102	1473208778323	m	77
94006	1029113	I think your outlined measures sound fine.	I think your outlined measures sound fine.	48948957	1473208778232	1473208778471	e	69
94006	1029113	I think your outlined measures sound fine.	I think your outlined measures sound fine.	48948958	1473208778433	1473208778800	a	65
94006	1029113	I think your outlined measures sound fine.	I think your outlined measures sound fine.	48948976	1473208778690	1473208779039	s	83
94006	1029113	I think your outlined measures sound fine.	I think your outlined measures sound fine.	48948959	1473208778869	1473208779020	u	85
94006	1029113	I think your outlined measures sound fine.	I think your outlined measures sound fine.	48948977	1473208778998	1473208779243	r	82
94006	1029113	I think your outlined measures sound fine.	I think your outlined measures sound fine.	48948978	1473208779143	1473208779365	e	69
94006	1029113	I think your outlined measures sound fine.	I think your outlined measures sound fine.	48948979	1473208779284	1473208779471	s	83
94006	1029113	I think your outlined measures sound fine.	I think your outlined measures sound fine.	48948981	1473208779359	1473208779569	 	32
94006	1029113	I think your outlined measures sound fine.	I think your outlined measures sound fine.	48948982	1473208779562	1473208779678	s	83
94006	1029113	I think your outlined measures sound fine.	I think your outlined measures sound fine.	48949031	1473208779625	1473208779772	o	79
94006	1029113	I think your outlined measures sound fine.	I think your outlined measures sound fine.	48949033	1473208779723	1473208779844	u	85
94006	1029113	I think your outlined measures sound fine.	I think your outlined measures sound fine.	48949036	1473208779951	1473208780129	n	78
94006	1029113	I think your outlined measures sound fine.	I think your outlined measures sound fine.	48949039	1473208780073	1473208780258	d	68
94006	1029113	I think your outlined measures sound fine.	I think your outlined measures sound fine.	48949042	1473208780154	1473208780336	 	32
94006	1029113	I think your outlined measures sound fine.	I think your outlined measures sound fine.	48949047	1473208780544	1473208780678	f	70
94006	1029113	I think your outlined measures sound fine.	I think your outlined measures sound fine.	48949119	1473208780656	1473208780860	i	73
94006	1029113	I think your outlined measures sound fine.	I think your outlined measures sound fine.	48949124	1473208780750	1473208780951	n	78
94006	1029113	I think your outlined measures sound fine.	I think your outlined measures sound fine.	48949131	1473208780891	1473208781001	e	69
94006	1029113	I think your outlined measures sound fine.	I think your outlined measures sound fine.	48949134	1473208781483	1473208781652	.	190
94006	1029124	People stuck in traffic on either side of us joined in.	People stuck in traffic on either side of us joined in,	48949306	1473208784759	1473208785042	SHIFT	16
94006	1029124	People stuck in traffic on either side of us joined in.	People stuck in traffic on either side of us joined in,	48949310	1473208784888	1473208785073	P	80
94006	1029124	People stuck in traffic on either side of us joined in.	People stuck in traffic on either side of us joined in,	48949316	1473208785202	1473208785325	e	69
94006	1029124	People stuck in traffic on either side of us joined in.	People stuck in traffic on either side of us joined in,	48949323	1473208785305	1473208785404	o	79
94006	1029124	People stuck in traffic on either side of us joined in.	People stuck in traffic on either side of us joined in,	48949329	1473208785489	1473208785617	p	80
94006	1029124	People stuck in traffic on either side of us joined in.	People stuck in traffic on either side of us joined in,	48949333	1473208785709	1473208786038	l	76
94006	1029124	People stuck in traffic on either side of us joined in.	People stuck in traffic on either side of us joined in,	48949387	1473208785866	1473208786063	e	69
94006	1029124	People stuck in traffic on either side of us joined in.	People stuck in traffic on either side of us joined in,	48949390	1473208785953	1473208786160	 	32
94006	1029124	People stuck in traffic on either side of us joined in.	People stuck in traffic on either side of us joined in,	48949394	1473208786643	1473208786875	s	83
94006	1029124	People stuck in traffic on either side of us joined in.	People stuck in traffic on either side of us joined in,	48949399	1473208786793	1473208786912	t	84
94006	1029124	People stuck in traffic on either side of us joined in.	People stuck in traffic on either side of us joined in,	48949404	1473208786863	1473208786997	u	85
94006	1029124	People stuck in traffic on either side of us joined in.	People stuck in traffic on either side of us joined in,	48949408	1473208787050	1473208787166	c	67
94006	1029124	People stuck in traffic on either side of us joined in.	People stuck in traffic on either side of us joined in,	48949410	1473208787172	1473208787372	k	75
94006	1029124	People stuck in traffic on either side of us joined in.	People stuck in traffic on either side of us joined in,	48949457	1473208787319	1473208787489	 	32
94006	1029124	People stuck in traffic on either side of us joined in.	People stuck in traffic on either side of us joined in,	48949460	1473208787476	1473208787630	i	73
94006	1029124	People stuck in traffic on either side of us joined in.	People stuck in traffic on either side of us joined in,	48949465	1473208787551	1473208787667	n	78
94006	1029124	People stuck in traffic on either side of us joined in.	People stuck in traffic on either side of us joined in,	48949470	1473208787642	1473208787888	 	32
94006	1029124	People stuck in traffic on either side of us joined in.	People stuck in traffic on either side of us joined in,	48949473	1473208788000	1473208788096	r	82
94006	1029124	People stuck in traffic on either side of us joined in.	People stuck in traffic on either side of us joined in,	48949477	1473208788321	1473208788493	BKSP	8
94006	1029124	People stuck in traffic on either side of us joined in.	People stuck in traffic on either side of us joined in,	48949487	1473208788428	1473208788537	t	84
94006	1029124	People stuck in traffic on either side of us joined in.	People stuck in traffic on either side of us joined in,	48949491	1473208788610	1473208788751	r	82
94006	1029124	People stuck in traffic on either side of us joined in.	People stuck in traffic on either side of us joined in,	48949497	1473208788701	1473208788923	a	65
94006	1029124	People stuck in traffic on either side of us joined in.	People stuck in traffic on either side of us joined in,	48949503	1473208788861	1473208788964	f	70
94006	1029124	People stuck in traffic on either side of us joined in.	People stuck in traffic on either side of us joined in,	48949506	1473208789023	1473208789115	f	70
94006	1029124	People stuck in traffic on either side of us joined in.	People stuck in traffic on either side of us joined in,	48949510	1473208789122	1473208789275	i	73
94006	1029124	People stuck in traffic on either side of us joined in.	People stuck in traffic on either side of us joined in,	48949539	1473208789238	1473208789476	c	67
94006	1029124	People stuck in traffic on either side of us joined in.	People stuck in traffic on either side of us joined in,	48949543	1473208789366	1473208789563	 	32
94006	1029124	People stuck in traffic on either side of us joined in.	People stuck in traffic on either side of us joined in,	48949546	1473208789670	1473208789864	o	79
94006	1029124	People stuck in traffic on either side of us joined in.	People stuck in traffic on either side of us joined in,	48949549	1473208789779	1473208789964	n	78
94006	1029124	People stuck in traffic on either side of us joined in.	People stuck in traffic on either side of us joined in,	48949553	1473208789858	1473208790024	 	32
94006	1029124	People stuck in traffic on either side of us joined in.	People stuck in traffic on either side of us joined in,	48949559	1473208790036	1473208790147	e	69
94006	1029124	People stuck in traffic on either side of us joined in.	People stuck in traffic on either side of us joined in,	48949582	1473208790127	1473208790268	i	73
94006	1029124	People stuck in traffic on either side of us joined in.	People stuck in traffic on either side of us joined in,	48949585	1473208790262	1473208790349	t	84
94006	1029124	People stuck in traffic on either side of us joined in.	People stuck in traffic on either side of us joined in,	48949591	1473208790367	1473208790473	h	72
94006	1029124	People stuck in traffic on either side of us joined in.	People stuck in traffic on either side of us joined in,	48949638	1473208790467	1473208790687	e	69
94006	1029124	People stuck in traffic on either side of us joined in.	People stuck in traffic on either side of us joined in,	48949593	1473208790583	1473208790668	r	82
94006	1029124	People stuck in traffic on either side of us joined in.	People stuck in traffic on either side of us joined in,	48949642	1473208790604	1473208790778	 	32
94006	1029124	People stuck in traffic on either side of us joined in.	People stuck in traffic on either side of us joined in,	48949646	1473208790917	1473208791007	BKSP	8
94006	1029124	People stuck in traffic on either side of us joined in.	People stuck in traffic on either side of us joined in,	48949653	1473208791292	1473208791474	 	32
94006	1029124	People stuck in traffic on either side of us joined in.	People stuck in traffic on either side of us joined in,	48949657	1473208791414	1473208791555	s	83
94006	1029124	People stuck in traffic on either side of us joined in.	People stuck in traffic on either side of us joined in,	48949662	1473208791512	1473208791629	i	73
94006	1029124	People stuck in traffic on either side of us joined in.	People stuck in traffic on either side of us joined in,	48949665	1473208791671	1473208791730	d	68
94006	1029124	People stuck in traffic on either side of us joined in.	People stuck in traffic on either side of us joined in,	48949668	1473208791795	1473208791935	e	69
94006	1029124	People stuck in traffic on either side of us joined in.	People stuck in traffic on either side of us joined in,	48949672	1473208791898	1473208792070	 	32
94006	1029124	People stuck in traffic on either side of us joined in.	People stuck in traffic on either side of us joined in,	48949675	1473208792039	1473208792193	o	79
94006	1029124	People stuck in traffic on either side of us joined in.	People stuck in traffic on either side of us joined in,	48949677	1473208792118	1473208792328	f	70
94006	1029124	People stuck in traffic on either side of us joined in.	People stuck in traffic on either side of us joined in,	48949679	1473208792218	1473208792381	 	32
94006	1029124	People stuck in traffic on either side of us joined in.	People stuck in traffic on either side of us joined in,	48949681	1473208792322	1473208792463	u	85
94006	1029124	People stuck in traffic on either side of us joined in.	People stuck in traffic on either side of us joined in,	48949701	1473208792438	1473208792585	s	83
94006	1029124	People stuck in traffic on either side of us joined in.	People stuck in traffic on either side of us joined in,	48949703	1473208792510	1473208792670	 	32
94006	1029124	People stuck in traffic on either side of us joined in.	People stuck in traffic on either side of us joined in,	48949705	1473208792639	1473208792823	j	74
94006	1029124	People stuck in traffic on either side of us joined in.	People stuck in traffic on either side of us joined in,	48949711	1473208792792	1473208793082	o	79
94006	1029124	People stuck in traffic on either side of us joined in.	People stuck in traffic on either side of us joined in,	48949714	1473208793013	1473208793235	i	73
94006	1029124	People stuck in traffic on either side of us joined in.	People stuck in traffic on either side of us joined in,	48949752	1473208793126	1473208793308	n	78
94006	1029124	People stuck in traffic on either side of us joined in.	People stuck in traffic on either side of us joined in,	48949756	1473208793254	1473208793345	e	69
94006	1029124	People stuck in traffic on either side of us joined in.	People stuck in traffic on either side of us joined in,	48949760	1473208793548	1473208793755	d	68
94006	1029124	People stuck in traffic on either side of us joined in.	People stuck in traffic on either side of us joined in,	48949764	1473208793670	1473208793849	 	32
94006	1029124	People stuck in traffic on either side of us joined in.	People stuck in traffic on either side of us joined in,	48949768	1473208793793	1473208793977	i	73
94006	1029124	People stuck in traffic on either side of us joined in.	People stuck in traffic on either side of us joined in,	48949772	1473208793890	1473208794050	n	78
94006	1029124	People stuck in traffic on either side of us joined in.	People stuck in traffic on either side of us joined in,	48949774	1473208794068	1473208794185	,	188
