PARTICIPANT_ID	TEST_SECTION_ID	SENTENCE	USER_INPUT	KEYSTROKE_ID	PRESS_TIME	RELEASE_TIME	LETTER	KEYCODE
94813	1038304	I think this move will not overcome the problem.	I think this move will nopt oversome the problem.	49385211	1473219438596	1473219438786	SHIFT	16
94813	1038304	I think this move will not overcome the problem.	I think this move will nopt oversome the problem.	49385215	1473219438727	1473219438818	T	84
94813	1038304	I think this move will not overcome the problem.	I think this move will nopt oversome the problem.	49385217	1473219439207	1473219439327	BKSP	8
94813	1038304	I think this move will not overcome the problem.	I think this move will nopt oversome the problem.	49385221	1473219439697	1473219439900	SHIFT	16
94813	1038304	I think this move will not overcome the problem.	I think this move will nopt oversome the problem.	49385224	1473219439867	1473219439939	I	73
94813	1038304	I think this move will not overcome the problem.	I think this move will nopt oversome the problem.	49385227	1473219440068	1473219440165	 	32
94813	1038304	I think this move will not overcome the problem.	I think this move will nopt oversome the problem.	49385231	1473219440197	1473219440257	t	84
94813	1038304	I think this move will not overcome the problem.	I think this move will nopt oversome the problem.	49385235	1473219440287	1473219440387	h	72
94813	1038304	I think this move will not overcome the problem.	I think this move will nopt oversome the problem.	49385269	1473219440437	1473219440537	i	73
94813	1038304	I think this move will not overcome the problem.	I think this move will nopt oversome the problem.	49385273	1473219440567	1473219440687	n	78
94813	1038304	I think this move will not overcome the problem.	I think this move will nopt oversome the problem.	49385279	1473219440747	1473219440847	k	75
94813	1038304	I think this move will not overcome the problem.	I think this move will nopt oversome the problem.	49385283	1473219440927	1473219441029	 	32
94813	1038304	I think this move will not overcome the problem.	I think this move will nopt oversome the problem.	49385288	1473219441507	1473219441607	t	84
94813	1038304	I think this move will not overcome the problem.	I think this move will nopt oversome the problem.	49385322	1473219441647	1473219441747	h	72
94813	1038304	I think this move will not overcome the problem.	I think this move will nopt oversome the problem.	49385327	1473219441787	1473219441887	i	73
94813	1038304	I think this move will not overcome the problem.	I think this move will nopt oversome the problem.	49385331	1473219441927	1473219442006	s	83
94813	1038304	I think this move will not overcome the problem.	I think this move will nopt oversome the problem.	49385338	1473219442047	1473219442147	 	32
94813	1038304	I think this move will not overcome the problem.	I think this move will nopt oversome the problem.	49385343	1473219442235	1473219442357	m	77
94813	1038304	I think this move will not overcome the problem.	I think this move will nopt oversome the problem.	49385392	1473219442618	1473219442697	o	79
94813	1038304	I think this move will not overcome the problem.	I think this move will nopt oversome the problem.	49385395	1473219442827	1473219442907	v	86
94813	1038304	I think this move will not overcome the problem.	I think this move will nopt oversome the problem.	49385402	1473219442927	1473219443009	e	69
94813	1038304	I think this move will not overcome the problem.	I think this move will nopt oversome the problem.	49385406	1473219443047	1473219443137	 	32
94813	1038304	I think this move will not overcome the problem.	I think this move will nopt oversome the problem.	49385408	1473219443145	1473219443237	w	87
94813	1038304	I think this move will not overcome the problem.	I think this move will nopt oversome the problem.	49385436	1473219443257	1473219443342	i	73
94813	1038304	I think this move will not overcome the problem.	I think this move will nopt oversome the problem.	49385442	1473219443437	1473219443547	l	76
94813	1038304	I think this move will not overcome the problem.	I think this move will nopt oversome the problem.	49385447	1473219443595	1473219443667	l	76
94813	1038304	I think this move will not overcome the problem.	I think this move will nopt oversome the problem.	49385452	1473219443727	1473219443832	 	32
94813	1038304	I think this move will not overcome the problem.	I think this move will nopt oversome the problem.	49385458	1473219443937	1473219444057	n	78
94813	1038304	I think this move will not overcome the problem.	I think this move will nopt oversome the problem.	49385492	1473219444147	1473219444247	p	79
94813	1038304	I think this move will not overcome the problem.	I think this move will nopt oversome the problem.	49385496	1473219444307	1473219444407	t	84
94813	1038304	I think this move will not overcome the problem.	I think this move will nopt oversome the problem.	49385500	1473219444440	1473219444527	 	32
94813	1038304	I think this move will not overcome the problem.	I think this move will nopt oversome the problem.	49385505	1473219444928	1473219445017	o	79
94813	1038304	I think this move will not overcome the problem.	I think this move will nopt oversome the problem.	49385529	1473219445127	1473219445235	v	86
94813	1038304	I think this move will not overcome the problem.	I think this move will nopt oversome the problem.	49385531	1473219445277	1473219445362	e	69
94813	1038304	I think this move will not overcome the problem.	I think this move will nopt oversome the problem.	49385538	1473219445437	1473219445509	r	82
94813	1038304	I think this move will not overcome the problem.	I think this move will nopt oversome the problem.	49385544	1473219445647	1473219445757	s	83
94813	1038304	I think this move will not overcome the problem.	I think this move will nopt oversome the problem.	49385552	1473219445757	1473219445867	o	79
94813	1038304	I think this move will not overcome the problem.	I think this move will nopt oversome the problem.	49385609	1473219445887	1473219445977	m	77
94813	1038304	I think this move will not overcome the problem.	I think this move will nopt oversome the problem.	49385611	1473219446037	1473219446129	e	69
94813	1038304	I think this move will not overcome the problem.	I think this move will nopt oversome the problem.	49385615	1473219446215	1473219446297	 	32
94813	1038304	I think this move will not overcome the problem.	I think this move will nopt oversome the problem.	49385619	1473219446569	1473219446667	t	84
94813	1038304	I think this move will not overcome the problem.	I think this move will nopt oversome the problem.	49385624	1473219446692	1473219446767	h	72
94813	1038304	I think this move will not overcome the problem.	I think this move will nopt oversome the problem.	49385644	1473219446837	1473219446927	e	69
94813	1038304	I think this move will not overcome the problem.	I think this move will nopt oversome the problem.	49385647	1473219446902	1473219447005	 	32
94813	1038304	I think this move will not overcome the problem.	I think this move will nopt oversome the problem.	49385652	1473219447107	1473219447217	p	80
94813	1038304	I think this move will not overcome the problem.	I think this move will nopt oversome the problem.	49385660	1473219447237	1473219447299	r	82
94813	1038304	I think this move will not overcome the problem.	I think this move will nopt oversome the problem.	49385667	1473219447367	1473219447467	o	79
94813	1038304	I think this move will not overcome the problem.	I think this move will nopt oversome the problem.	49385738	1473219447590	1473219447669	b	66
94813	1038304	I think this move will not overcome the problem.	I think this move will nopt oversome the problem.	49385740	1473219447817	1473219447897	l	76
94813	1038304	I think this move will not overcome the problem.	I think this move will nopt oversome the problem.	49385743	1473219447913	1473219448027	e	69
94813	1038304	I think this move will not overcome the problem.	I think this move will nopt oversome the problem.	49385746	1473219448517	1473219448617	m	77
94813	1038304	I think this move will not overcome the problem.	I think this move will nopt oversome the problem.	49385748	1473219448778	1473219448907	.	190
94813	1038320	The official agency SABA said Wednesday 25 civilians had been killed.	The official agency SABA said Wednesday 25 civillians had been killed.	49385950	1473219451487	1473219451657	SHIFT	16
94813	1038320	The official agency SABA said Wednesday 25 civilians had been killed.	The official agency SABA said Wednesday 25 civillians had been killed.	49385954	1473219451617	1473219451697	T	84
94813	1038320	The official agency SABA said Wednesday 25 civilians had been killed.	The official agency SABA said Wednesday 25 civillians had been killed.	49385958	1473219451825	1473219451901	h	72
94813	1038320	The official agency SABA said Wednesday 25 civilians had been killed.	The official agency SABA said Wednesday 25 civillians had been killed.	49385962	1473219451937	1473219452025	e	69
94813	1038320	The official agency SABA said Wednesday 25 civilians had been killed.	The official agency SABA said Wednesday 25 civillians had been killed.	49385966	1473219452047	1473219452147	 	32
94813	1038320	The official agency SABA said Wednesday 25 civilians had been killed.	The official agency SABA said Wednesday 25 civillians had been killed.	49385971	1473219452697	1473219452788	o	79
94813	1038320	The official agency SABA said Wednesday 25 civilians had been killed.	The official agency SABA said Wednesday 25 civillians had been killed.	49386004	1473219452827	1473219452907	f	70
94813	1038320	The official agency SABA said Wednesday 25 civilians had been killed.	The official agency SABA said Wednesday 25 civillians had been killed.	49386008	1473219452977	1473219453057	f	70
94813	1038320	The official agency SABA said Wednesday 25 civilians had been killed.	The official agency SABA said Wednesday 25 civillians had been killed.	49386012	1473219453117	1473219453197	i	73
94813	1038320	The official agency SABA said Wednesday 25 civilians had been killed.	The official agency SABA said Wednesday 25 civillians had been killed.	49386017	1473219453255	1473219453349	c	67
94813	1038320	The official agency SABA said Wednesday 25 civilians had been killed.	The official agency SABA said Wednesday 25 civillians had been killed.	49386021	1473219453478	1473219453593	a	65
94813	1038320	The official agency SABA said Wednesday 25 civilians had been killed.	The official agency SABA said Wednesday 25 civillians had been killed.	49386077	1473219453647	1473219453747	l	76
94813	1038320	The official agency SABA said Wednesday 25 civilians had been killed.	The official agency SABA said Wednesday 25 civillians had been killed.	49386081	1473219453867	1473219453967	 	32
94813	1038320	The official agency SABA said Wednesday 25 civilians had been killed.	The official agency SABA said Wednesday 25 civillians had been killed.	49386087	1473219454268	1473219454349	BKSP	8
94813	1038320	The official agency SABA said Wednesday 25 civilians had been killed.	The official agency SABA said Wednesday 25 civillians had been killed.	49386092	1473219454437	1473219454537	BKSP	8
94813	1038320	The official agency SABA said Wednesday 25 civilians had been killed.	The official agency SABA said Wednesday 25 civillians had been killed.	49386095	1473219454600	1473219454685	BKSP	8
94813	1038320	The official agency SABA said Wednesday 25 civilians had been killed.	The official agency SABA said Wednesday 25 civillians had been killed.	49386099	1473219455148	1473219455197	i	73
94813	1038320	The official agency SABA said Wednesday 25 civilians had been killed.	The official agency SABA said Wednesday 25 civillians had been killed.	49386102	1473219455195	1473219455277	a	65
94813	1038320	The official agency SABA said Wednesday 25 civilians had been killed.	The official agency SABA said Wednesday 25 civillians had been killed.	49386106	1473219455337	1473219455417	l	76
94813	1038320	The official agency SABA said Wednesday 25 civilians had been killed.	The official agency SABA said Wednesday 25 civillians had been killed.	49386152	1473219455507	1473219455627	 	32
94813	1038320	The official agency SABA said Wednesday 25 civilians had been killed.	The official agency SABA said Wednesday 25 civillians had been killed.	49386155	1473219455887	1473219455997	a	65
94813	1038320	The official agency SABA said Wednesday 25 civilians had been killed.	The official agency SABA said Wednesday 25 civillians had been killed.	49386159	1473219456187	1473219456277	g	71
94813	1038320	The official agency SABA said Wednesday 25 civilians had been killed.	The official agency SABA said Wednesday 25 civillians had been killed.	49386163	1473219456337	1473219456437	e	69
94813	1038320	The official agency SABA said Wednesday 25 civilians had been killed.	The official agency SABA said Wednesday 25 civillians had been killed.	49386164	1473219456438	1473219456517	n	78
94813	1038320	The official agency SABA said Wednesday 25 civilians had been killed.	The official agency SABA said Wednesday 25 civillians had been killed.	49386243	1473219456587	1473219456687	c	67
94813	1038320	The official agency SABA said Wednesday 25 civilians had been killed.	The official agency SABA said Wednesday 25 civillians had been killed.	49386246	1473219456703	1473219456797	y	89
94813	1038320	The official agency SABA said Wednesday 25 civilians had been killed.	The official agency SABA said Wednesday 25 civillians had been killed.	49386251	1473219456947	1473219457047	 	32
94813	1038320	The official agency SABA said Wednesday 25 civilians had been killed.	The official agency SABA said Wednesday 25 civillians had been killed.	49386405	1473219457338	1473219458681	SHIFT	16
94813	1038320	The official agency SABA said Wednesday 25 civilians had been killed.	The official agency SABA said Wednesday 25 civillians had been killed.	49386257	1473219457778	1473219457867	S	83
94813	1038320	The official agency SABA said Wednesday 25 civilians had been killed.	The official agency SABA said Wednesday 25 civillians had been killed.	49386262	1473219458017	1473219458079	A	65
94813	1038320	The official agency SABA said Wednesday 25 civilians had been killed.	The official agency SABA said Wednesday 25 civillians had been killed.	49386400	1473219458197	1473219458277	B	66
94813	1038320	The official agency SABA said Wednesday 25 civilians had been killed.	The official agency SABA said Wednesday 25 civillians had been killed.	49386401	1473219458347	1473219458437	A	65
94813	1038320	The official agency SABA said Wednesday 25 civilians had been killed.	The official agency SABA said Wednesday 25 civillians had been killed.	49386411	1473219458678	1473219458727	 	32
94813	1038320	The official agency SABA said Wednesday 25 civilians had been killed.	The official agency SABA said Wednesday 25 civillians had been killed.	49386415	1473219459338	1473219459387	s	83
94813	1038320	The official agency SABA said Wednesday 25 civilians had been killed.	The official agency SABA said Wednesday 25 civillians had been killed.	49386420	1473219459507	1473219459621	a	65
94813	1038320	The official agency SABA said Wednesday 25 civilians had been killed.	The official agency SABA said Wednesday 25 civillians had been killed.	49386484	1473219459651	1473219459747	i	73
94813	1038320	The official agency SABA said Wednesday 25 civilians had been killed.	The official agency SABA said Wednesday 25 civillians had been killed.	49386491	1473219459817	1473219459907	d	68
94813	1038320	The official agency SABA said Wednesday 25 civilians had been killed.	The official agency SABA said Wednesday 25 civillians had been killed.	49386498	1473219459957	1473219460038	 	32
94813	1038320	The official agency SABA said Wednesday 25 civilians had been killed.	The official agency SABA said Wednesday 25 civillians had been killed.	49386503	1473219460117	1473219460417	SHIFT	16
94813	1038320	The official agency SABA said Wednesday 25 civilians had been killed.	The official agency SABA said Wednesday 25 civillians had been killed.	49386512	1473219460377	1473219460470	W	87
94813	1038320	The official agency SABA said Wednesday 25 civilians had been killed.	The official agency SABA said Wednesday 25 civillians had been killed.	49386515	1473219460558	1473219460667	e	69
94813	1038320	The official agency SABA said Wednesday 25 civilians had been killed.	The official agency SABA said Wednesday 25 civillians had been killed.	49386545	1473219460747	1473219460857	d	68
94813	1038320	The official agency SABA said Wednesday 25 civilians had been killed.	The official agency SABA said Wednesday 25 civillians had been killed.	49386549	1473219460887	1473219460949	n	78
94813	1038320	The official agency SABA said Wednesday 25 civilians had been killed.	The official agency SABA said Wednesday 25 civillians had been killed.	49386552	1473219460977	1473219461077	e	69
94813	1038320	The official agency SABA said Wednesday 25 civilians had been killed.	The official agency SABA said Wednesday 25 civillians had been killed.	49386555	1473219461177	1473219461258	s	83
94813	1038320	The official agency SABA said Wednesday 25 civilians had been killed.	The official agency SABA said Wednesday 25 civillians had been killed.	49386558	1473219461328	1473219461427	d	68
94813	1038320	The official agency SABA said Wednesday 25 civilians had been killed.	The official agency SABA said Wednesday 25 civillians had been killed.	49386666	1473219461508	1473219461612	a	65
94813	1038320	The official agency SABA said Wednesday 25 civilians had been killed.	The official agency SABA said Wednesday 25 civillians had been killed.	49386668	1473219461615	1473219461708	y	89
94813	1038320	The official agency SABA said Wednesday 25 civilians had been killed.	The official agency SABA said Wednesday 25 civillians had been killed.	49386670	1473219461877	1473219461985	 	32
94813	1038320	The official agency SABA said Wednesday 25 civilians had been killed.	The official agency SABA said Wednesday 25 civillians had been killed.	49386672	1473219462758	1473219462847	2	50
94813	1038320	The official agency SABA said Wednesday 25 civilians had been killed.	The official agency SABA said Wednesday 25 civillians had been killed.	49386677	1473219462897	1473219462972	5	53
94813	1038320	The official agency SABA said Wednesday 25 civilians had been killed.	The official agency SABA said Wednesday 25 civillians had been killed.	49386729	1473219463137	1473219463237	 	32
94813	1038320	The official agency SABA said Wednesday 25 civilians had been killed.	The official agency SABA said Wednesday 25 civillians had been killed.	49386735	1473219463267	1473219463367	c	67
94813	1038320	The official agency SABA said Wednesday 25 civilians had been killed.	The official agency SABA said Wednesday 25 civillians had been killed.	49386741	1473219463467	1473219463577	i	73
94813	1038320	The official agency SABA said Wednesday 25 civilians had been killed.	The official agency SABA said Wednesday 25 civillians had been killed.	49386748	1473219463657	1473219463747	v	86
94813	1038320	The official agency SABA said Wednesday 25 civilians had been killed.	The official agency SABA said Wednesday 25 civillians had been killed.	49386752	1473219463987	1473219464067	i	73
94813	1038320	The official agency SABA said Wednesday 25 civilians had been killed.	The official agency SABA said Wednesday 25 civillians had been killed.	49386840	1473219464070	1473219464177	i	73
94813	1038320	The official agency SABA said Wednesday 25 civilians had been killed.	The official agency SABA said Wednesday 25 civillians had been killed.	49386842	1473219464657	1473219464758	BKSP	8
94813	1038320	The official agency SABA said Wednesday 25 civilians had been killed.	The official agency SABA said Wednesday 25 civillians had been killed.	49386844	1473219464957	1473219465057	l	76
94813	1038320	The official agency SABA said Wednesday 25 civilians had been killed.	The official agency SABA said Wednesday 25 civillians had been killed.	49386846	1473219465121	1473219465219	l	76
94813	1038320	The official agency SABA said Wednesday 25 civilians had been killed.	The official agency SABA said Wednesday 25 civillians had been killed.	49386848	1473219465297	1473219465397	i	73
94813	1038320	The official agency SABA said Wednesday 25 civilians had been killed.	The official agency SABA said Wednesday 25 civillians had been killed.	49386850	1473219465427	1473219465537	a	65
94813	1038320	The official agency SABA said Wednesday 25 civilians had been killed.	The official agency SABA said Wednesday 25 civillians had been killed.	49386938	1473219465577	1473219465667	n	78
94813	1038320	The official agency SABA said Wednesday 25 civilians had been killed.	The official agency SABA said Wednesday 25 civillians had been killed.	49386942	1473219465787	1473219465847	s	83
94813	1038320	The official agency SABA said Wednesday 25 civilians had been killed.	The official agency SABA said Wednesday 25 civillians had been killed.	49386947	1473219465848	1473219465987	 	32
94813	1038320	The official agency SABA said Wednesday 25 civilians had been killed.	The official agency SABA said Wednesday 25 civillians had been killed.	49386952	1473219467348	1473219467349	h	72
94813	1038320	The official agency SABA said Wednesday 25 civilians had been killed.	The official agency SABA said Wednesday 25 civillians had been killed.	49386958	1473219467349	1473219467350	a	65
94813	1038320	The official agency SABA said Wednesday 25 civilians had been killed.	The official agency SABA said Wednesday 25 civillians had been killed.	49386984	1473219467352	1473219467367	d	68
94813	1038320	The official agency SABA said Wednesday 25 civilians had been killed.	The official agency SABA said Wednesday 25 civillians had been killed.	49386988	1473219467376	1473219467557	 	32
94813	1038320	The official agency SABA said Wednesday 25 civilians had been killed.	The official agency SABA said Wednesday 25 civillians had been killed.	49386993	1473219467777	1473219467785	b	66
94813	1038320	The official agency SABA said Wednesday 25 civilians had been killed.	The official agency SABA said Wednesday 25 civillians had been killed.	49386996	1473219467786	1473219467987	e	69
94813	1038320	The official agency SABA said Wednesday 25 civilians had been killed.	The official agency SABA said Wednesday 25 civillians had been killed.	49387002	1473219467988	1473219468068	e	69
94813	1038320	The official agency SABA said Wednesday 25 civilians had been killed.	The official agency SABA said Wednesday 25 civillians had been killed.	49387039	1473219468087	1473219468197	n	78
94813	1038320	The official agency SABA said Wednesday 25 civilians had been killed.	The official agency SABA said Wednesday 25 civillians had been killed.	49387043	1473219468225	1473219468427	 	32
94813	1038320	The official agency SABA said Wednesday 25 civilians had been killed.	The official agency SABA said Wednesday 25 civillians had been killed.	49387048	1473219468428	1473219468517	k	75
94813	1038320	The official agency SABA said Wednesday 25 civilians had been killed.	The official agency SABA said Wednesday 25 civillians had been killed.	49387055	1473219468637	1473219468667	i	73
94813	1038320	The official agency SABA said Wednesday 25 civilians had been killed.	The official agency SABA said Wednesday 25 civillians had been killed.	49387062	1473219468857	1473219468887	l	76
94813	1038320	The official agency SABA said Wednesday 25 civilians had been killed.	The official agency SABA said Wednesday 25 civillians had been killed.	49387104	1473219468947	1473219469047	l	76
94813	1038320	The official agency SABA said Wednesday 25 civilians had been killed.	The official agency SABA said Wednesday 25 civillians had been killed.	49387113	1473219469187	1473219469188	e	69
94813	1038320	The official agency SABA said Wednesday 25 civilians had been killed.	The official agency SABA said Wednesday 25 civillians had been killed.	49387118	1473219469267	1473219469411	d	68
94813	1038320	The official agency SABA said Wednesday 25 civilians had been killed.	The official agency SABA said Wednesday 25 civillians had been killed.	49387123	1473219469410	1473219469494	.	190
94813	1038344	It would be great if I could have the files by the 18th or 19th.	It would be great if i could have the files by the 18th or 19th.	49387312	1473219471247	1473219472429	SHIFT	16
94813	1038344	It would be great if I could have the files by the 18th or 19th.	It would be great if i could have the files by the 18th or 19th.	49387314	1473219472358	1473219472467	I	73
94813	1038344	It would be great if I could have the files by the 18th or 19th.	It would be great if i could have the files by the 18th or 19th.	49387316	1473219472587	1473219472677	t	84
94813	1038344	It would be great if I could have the files by the 18th or 19th.	It would be great if i could have the files by the 18th or 19th.	49387317	1473219472817	1473219472927	 	32
94813	1038344	It would be great if I could have the files by the 18th or 19th.	It would be great if i could have the files by the 18th or 19th.	49387318	1473219472937	1473219473027	w	87
94813	1038344	It would be great if I could have the files by the 18th or 19th.	It would be great if i could have the files by the 18th or 19th.	49387321	1473219473088	1473219473187	o	79
94813	1038344	It would be great if I could have the files by the 18th or 19th.	It would be great if i could have the files by the 18th or 19th.	49387359	1473219473247	1473219473347	u	85
94813	1038344	It would be great if I could have the files by the 18th or 19th.	It would be great if i could have the files by the 18th or 19th.	49387361	1473219473427	1473219473541	l	76
94813	1038344	It would be great if I could have the files by the 18th or 19th.	It would be great if i could have the files by the 18th or 19th.	49387363	1473219473558	1473219473647	d	68
94813	1038344	It would be great if I could have the files by the 18th or 19th.	It would be great if i could have the files by the 18th or 19th.	49387365	1473219473668	1473219473767	 	32
94813	1038344	It would be great if I could have the files by the 18th or 19th.	It would be great if i could have the files by the 18th or 19th.	49387367	1473219473867	1473219473957	b	66
94813	1038344	It would be great if I could have the files by the 18th or 19th.	It would be great if i could have the files by the 18th or 19th.	49387384	1473219473977	1473219474077	e	69
94813	1038344	It would be great if I could have the files by the 18th or 19th.	It would be great if i could have the files by the 18th or 19th.	49387386	1473219474086	1473219474202	 	32
94813	1038344	It would be great if I could have the files by the 18th or 19th.	It would be great if i could have the files by the 18th or 19th.	49387394	1473219474307	1473219474387	g	71
94813	1038344	It would be great if I could have the files by the 18th or 19th.	It would be great if i could have the files by the 18th or 19th.	49387397	1473219474417	1473219474528	r	82
94813	1038344	It would be great if I could have the files by the 18th or 19th.	It would be great if i could have the files by the 18th or 19th.	49387406	1473219474629	1473219474718	e	69
94813	1038344	It would be great if I could have the files by the 18th or 19th.	It would be great if i could have the files by the 18th or 19th.	49387441	1473219474847	1473219474978	a	65
94813	1038344	It would be great if I could have the files by the 18th or 19th.	It would be great if i could have the files by the 18th or 19th.	49387443	1473219475007	1473219475097	t	84
94813	1038344	It would be great if I could have the files by the 18th or 19th.	It would be great if i could have the files by the 18th or 19th.	49387447	1473219475298	1473219475417	 	32
94813	1038344	It would be great if I could have the files by the 18th or 19th.	It would be great if i could have the files by the 18th or 19th.	49387451	1473219475517	1473219475608	i	73
94813	1038344	It would be great if I could have the files by the 18th or 19th.	It would be great if i could have the files by the 18th or 19th.	49387454	1473219475698	1473219475807	f	70
94813	1038344	It would be great if I could have the files by the 18th or 19th.	It would be great if i could have the files by the 18th or 19th.	49387486	1473219475776	1473219475897	 	32
94813	1038344	It would be great if I could have the files by the 18th or 19th.	It would be great if i could have the files by the 18th or 19th.	49387488	1473219475977	1473219476067	i	73
94813	1038344	It would be great if I could have the files by the 18th or 19th.	It would be great if i could have the files by the 18th or 19th.	49387490	1473219476148	1473219476265	 	32
94813	1038344	It would be great if I could have the files by the 18th or 19th.	It would be great if i could have the files by the 18th or 19th.	49387492	1473219476257	1473219476357	c	67
94813	1038344	It would be great if I could have the files by the 18th or 19th.	It would be great if i could have the files by the 18th or 19th.	49387496	1473219476387	1473219476498	o	79
94813	1038344	It would be great if I could have the files by the 18th or 19th.	It would be great if i could have the files by the 18th or 19th.	49387500	1473219476558	1473219476647	u	85
94813	1038344	It would be great if I could have the files by the 18th or 19th.	It would be great if i could have the files by the 18th or 19th.	49387554	1473219476747	1473219476859	l	76
94813	1038344	It would be great if I could have the files by the 18th or 19th.	It would be great if i could have the files by the 18th or 19th.	49387557	1473219477594	1473219477667	d	68
94813	1038344	It would be great if I could have the files by the 18th or 19th.	It would be great if i could have the files by the 18th or 19th.	49387563	1473219477668	1473219477787	 	32
94813	1038344	It would be great if I could have the files by the 18th or 19th.	It would be great if i could have the files by the 18th or 19th.	49387569	1473219477907	1473219477987	h	72
94813	1038344	It would be great if I could have the files by the 18th or 19th.	It would be great if i could have the files by the 18th or 19th.	49387574	1473219478035	1473219478137	a	65
94813	1038344	It would be great if I could have the files by the 18th or 19th.	It would be great if i could have the files by the 18th or 19th.	49387634	1473219478177	1473219478267	v	86
94813	1038344	It would be great if I could have the files by the 18th or 19th.	It would be great if i could have the files by the 18th or 19th.	49387639	1473219478327	1473219478417	r	69
94813	1038344	It would be great if I could have the files by the 18th or 19th.	It would be great if i could have the files by the 18th or 19th.	49387644	1473219478937	1473219479037	BKSP	8
94813	1038344	It would be great if I could have the files by the 18th or 19th.	It would be great if i could have the files by the 18th or 19th.	49387650	1473219479207	1473219479297	 	32
94813	1038344	It would be great if I could have the files by the 18th or 19th.	It would be great if i could have the files by the 18th or 19th.	49387656	1473219479298	1473219479387	t	84
94813	1038344	It would be great if I could have the files by the 18th or 19th.	It would be great if i could have the files by the 18th or 19th.	49387731	1473219479447	1473219479521	h	72
94813	1038344	It would be great if I could have the files by the 18th or 19th.	It would be great if i could have the files by the 18th or 19th.	49387734	1473219479549	1473219479667	e	69
94813	1038344	It would be great if I could have the files by the 18th or 19th.	It would be great if i could have the files by the 18th or 19th.	49387738	1473219479668	1473219479747	 	32
94813	1038344	It would be great if I could have the files by the 18th or 19th.	It would be great if i could have the files by the 18th or 19th.	49387741	1473219480379	1473219480461	f	70
94813	1038344	It would be great if I could have the files by the 18th or 19th.	It would be great if i could have the files by the 18th or 19th.	49387745	1473219480532	1473219480632	i	73
94813	1038344	It would be great if I could have the files by the 18th or 19th.	It would be great if i could have the files by the 18th or 19th.	49387794	1473219480747	1473219480859	l	76
94813	1038344	It would be great if I could have the files by the 18th or 19th.	It would be great if i could have the files by the 18th or 19th.	49387797	1473219480890	1473219480977	e	69
94813	1038344	It would be great if I could have the files by the 18th or 19th.	It would be great if i could have the files by the 18th or 19th.	49387798	1473219481087	1473219481197	s	83
94813	1038344	It would be great if I could have the files by the 18th or 19th.	It would be great if i could have the files by the 18th or 19th.	49387800	1473219481237	1473219481327	 	32
94813	1038344	It would be great if I could have the files by the 18th or 19th.	It would be great if i could have the files by the 18th or 19th.	49387801	1473219481817	1473219481858	b	66
94813	1038344	It would be great if I could have the files by the 18th or 19th.	It would be great if i could have the files by the 18th or 19th.	49387871	1473219481948	1473219482017	u	85
94813	1038344	It would be great if I could have the files by the 18th or 19th.	It would be great if i could have the files by the 18th or 19th.	49387875	1473219482387	1473219482497	BKSP	8
94813	1038344	It would be great if I could have the files by the 18th or 19th.	It would be great if i could have the files by the 18th or 19th.	49387882	1473219482535	1473219482617	y	89
94813	1038344	It would be great if I could have the files by the 18th or 19th.	It would be great if i could have the files by the 18th or 19th.	49387886	1473219482727	1473219482808	 	32
94813	1038344	It would be great if I could have the files by the 18th or 19th.	It would be great if i could have the files by the 18th or 19th.	49387888	1473219482827	1473219482907	t	84
94813	1038344	It would be great if I could have the files by the 18th or 19th.	It would be great if i could have the files by the 18th or 19th.	49387891	1473219482967	1473219483029	h	72
94813	1038344	It would be great if I could have the files by the 18th or 19th.	It would be great if i could have the files by the 18th or 19th.	49387959	1473219483077	1473219483176	e	69
94813	1038344	It would be great if I could have the files by the 18th or 19th.	It would be great if i could have the files by the 18th or 19th.	49387963	1473219483218	1473219483327	 	32
94813	1038344	It would be great if I could have the files by the 18th or 19th.	It would be great if i could have the files by the 18th or 19th.	49387967	1473219483958	1473219484077	1	49
94813	1038344	It would be great if I could have the files by the 18th or 19th.	It would be great if i could have the files by the 18th or 19th.	49387970	1473219484237	1473219484319	8	56
94813	1038344	It would be great if I could have the files by the 18th or 19th.	It would be great if i could have the files by the 18th or 19th.	49387973	1473219484487	1473219484589	t	84
94813	1038344	It would be great if I could have the files by the 18th or 19th.	It would be great if i could have the files by the 18th or 19th.	49388030	1473219484595	1473219484687	h	72
94813	1038344	It would be great if I could have the files by the 18th or 19th.	It would be great if i could have the files by the 18th or 19th.	49388032	1473219484988	1473219485080	 	32
94813	1038344	It would be great if I could have the files by the 18th or 19th.	It would be great if i could have the files by the 18th or 19th.	49388034	1473219485468	1473219485537	o	79
94813	1038344	It would be great if I could have the files by the 18th or 19th.	It would be great if i could have the files by the 18th or 19th.	49388038	1473219485610	1473219485707	r	82
94813	1038344	It would be great if I could have the files by the 18th or 19th.	It would be great if i could have the files by the 18th or 19th.	49388041	1473219485738	1473219485838	 	32
94813	1038344	It would be great if I could have the files by the 18th or 19th.	It would be great if i could have the files by the 18th or 19th.	49388117	1473219486079	1473219486177	1	49
94813	1038344	It would be great if I could have the files by the 18th or 19th.	It would be great if i could have the files by the 18th or 19th.	49388122	1473219486262	1473219486359	9	57
94813	1038344	It would be great if I could have the files by the 18th or 19th.	It would be great if i could have the files by the 18th or 19th.	49388125	1473219486687	1473219486777	t	84
94813	1038344	It would be great if I could have the files by the 18th or 19th.	It would be great if i could have the files by the 18th or 19th.	49388127	1473219486807	1473219486907	h	72
94813	1038344	It would be great if I could have the files by the 18th or 19th.	It would be great if i could have the files by the 18th or 19th.	49388129	1473219487507	1473219487603	.	190
94813	1038371	Was wondering if you and Natalie connected?	Was wondering if you and Natalie connected?	49388348	1473219490007	1473219490197	SHIFT	16
94813	1038371	Was wondering if you and Natalie connected?	Was wondering if you and Natalie connected?	49388351	1473219490178	1473219490257	W	87
94813	1038371	Was wondering if you and Natalie connected?	Was wondering if you and Natalie connected?	49388353	1473219490347	1473219490458	a	65
94813	1038371	Was wondering if you and Natalie connected?	Was wondering if you and Natalie connected?	49388355	1473219490507	1473219490609	s	83
94813	1038371	Was wondering if you and Natalie connected?	Was wondering if you and Natalie connected?	49388357	1473219490701	1473219490807	w	87
94813	1038371	Was wondering if you and Natalie connected?	Was wondering if you and Natalie connected?	49388363	1473219491313	1473219491407	BKSP	8
94813	1038371	Was wondering if you and Natalie connected?	Was wondering if you and Natalie connected?	49388369	1473219491563	1473219491668	 	32
94813	1038371	Was wondering if you and Natalie connected?	Was wondering if you and Natalie connected?	49388396	1473219491737	1473219491837	w	87
94813	1038371	Was wondering if you and Natalie connected?	Was wondering if you and Natalie connected?	49388401	1473219491898	1473219491997	o	79
94813	1038371	Was wondering if you and Natalie connected?	Was wondering if you and Natalie connected?	49388406	1473219492065	1473219492142	n	78
94813	1038371	Was wondering if you and Natalie connected?	Was wondering if you and Natalie connected?	49388412	1473219492147	1473219492287	d	68
94813	1038371	Was wondering if you and Natalie connected?	Was wondering if you and Natalie connected?	49388421	1473219492367	1473219492457	e	69
94813	1038371	Was wondering if you and Natalie connected?	Was wondering if you and Natalie connected?	49388451	1473219492517	1473219492607	r	82
94813	1038371	Was wondering if you and Natalie connected?	Was wondering if you and Natalie connected?	49388454	1473219492608	1473219492707	i	73
94813	1038371	Was wondering if you and Natalie connected?	Was wondering if you and Natalie connected?	49388460	1473219492727	1473219492827	n	78
94813	1038371	Was wondering if you and Natalie connected?	Was wondering if you and Natalie connected?	49388465	1473219492848	1473219492938	g	71
94813	1038371	Was wondering if you and Natalie connected?	Was wondering if you and Natalie connected?	49388469	1473219492995	1473219493087	 	32
94813	1038371	Was wondering if you and Natalie connected?	Was wondering if you and Natalie connected?	49388558	1473219493547	1473219493627	i	73
94813	1038371	Was wondering if you and Natalie connected?	Was wondering if you and Natalie connected?	49388566	1473219493672	1473219493758	f	70
94813	1038371	Was wondering if you and Natalie connected?	Was wondering if you and Natalie connected?	49388570	1473219493759	1473219493854	 	32
94813	1038371	Was wondering if you and Natalie connected?	Was wondering if you and Natalie connected?	49388576	1473219493937	1473219494028	y	89
94813	1038371	Was wondering if you and Natalie connected?	Was wondering if you and Natalie connected?	49388580	1473219494029	1473219494107	o	79
94813	1038371	Was wondering if you and Natalie connected?	Was wondering if you and Natalie connected?	49388661	1473219494217	1473219494317	u	85
94813	1038371	Was wondering if you and Natalie connected?	Was wondering if you and Natalie connected?	49388662	1473219494446	1473219494567	 	32
94813	1038371	Was wondering if you and Natalie connected?	Was wondering if you and Natalie connected?	49388664	1473219494938	1473219495047	a	65
94813	1038371	Was wondering if you and Natalie connected?	Was wondering if you and Natalie connected?	49388667	1473219495048	1473219495157	n	78
94813	1038371	Was wondering if you and Natalie connected?	Was wondering if you and Natalie connected?	49388676	1473219495198	1473219495289	d	68
94813	1038371	Was wondering if you and Natalie connected?	Was wondering if you and Natalie connected?	49388709	1473219495327	1473219495417	 	32
94813	1038371	Was wondering if you and Natalie connected?	Was wondering if you and Natalie connected?	49388714	1473219495527	1473219495688	SHIFT	16
94813	1038371	Was wondering if you and Natalie connected?	Was wondering if you and Natalie connected?	49388717	1473219495657	1473219495752	N	78
94813	1038371	Was wondering if you and Natalie connected?	Was wondering if you and Natalie connected?	49388719	1473219495814	1473219495927	a	65
94813	1038371	Was wondering if you and Natalie connected?	Was wondering if you and Natalie connected?	49388724	1473219496003	1473219496087	t	84
94813	1038371	Was wondering if you and Natalie connected?	Was wondering if you and Natalie connected?	49388729	1473219496126	1473219496227	a	65
94813	1038371	Was wondering if you and Natalie connected?	Was wondering if you and Natalie connected?	49388795	1473219496370	1473219496467	l	76
94813	1038371	Was wondering if you and Natalie connected?	Was wondering if you and Natalie connected?	49388800	1473219496597	1473219496682	i	73
94813	1038371	Was wondering if you and Natalie connected?	Was wondering if you and Natalie connected?	49388808	1473219496777	1473219496887	e	69
94813	1038371	Was wondering if you and Natalie connected?	Was wondering if you and Natalie connected?	49388813	1473219496947	1473219497047	 	32
94813	1038371	Was wondering if you and Natalie connected?	Was wondering if you and Natalie connected?	49388817	1473219497817	1473219497877	c	67
94813	1038371	Was wondering if you and Natalie connected?	Was wondering if you and Natalie connected?	49388842	1473219497929	1473219498037	o	79
94813	1038371	Was wondering if you and Natalie connected?	Was wondering if you and Natalie connected?	49388844	1473219498127	1473219498198	n	78
94813	1038371	Was wondering if you and Natalie connected?	Was wondering if you and Natalie connected?	49388848	1473219498287	1473219498387	n	78
94813	1038371	Was wondering if you and Natalie connected?	Was wondering if you and Natalie connected?	49388854	1473219498417	1473219498517	e	69
94813	1038371	Was wondering if you and Natalie connected?	Was wondering if you and Natalie connected?	49388863	1473219498625	1473219498777	c	67
94813	1038371	Was wondering if you and Natalie connected?	Was wondering if you and Natalie connected?	49388924	1473219498780	1473219498857	t	84
94813	1038371	Was wondering if you and Natalie connected?	Was wondering if you and Natalie connected?	49388928	1473219499057	1473219499145	e	69
94813	1038371	Was wondering if you and Natalie connected?	Was wondering if you and Natalie connected?	49388932	1473219499237	1473219499347	d	68
94813	1038371	Was wondering if you and Natalie connected?	Was wondering if you and Natalie connected?	49388938	1473219499657	1473219499899	SHIFT	16
94813	1038371	Was wondering if you and Natalie connected?	Was wondering if you and Natalie connected?	49388944	1473219499807	1473219499927	?	191
94813	1038387	Tests Monday showed no structural damage to his shoulder.	Test Monday showed no structural damage to his shoulder.	49389179	1473219502550	1473219502877	SHIFT	16
94813	1038387	Tests Monday showed no structural damage to his shoulder.	Test Monday showed no structural damage to his shoulder.	49389182	1473219502840	1473219502896	T	84
94813	1038387	Tests Monday showed no structural damage to his shoulder.	Test Monday showed no structural damage to his shoulder.	49389191	1473219503068	1473219503167	e	69
94813	1038387	Tests Monday showed no structural damage to his shoulder.	Test Monday showed no structural damage to his shoulder.	49389200	1473219503247	1473219503368	s	83
94813	1038387	Tests Monday showed no structural damage to his shoulder.	Test Monday showed no structural damage to his shoulder.	49389205	1473219503368	1473219503458	t	84
94813	1038387	Tests Monday showed no structural damage to his shoulder.	Test Monday showed no structural damage to his shoulder.	49389211	1473219503567	1473219503678	 	32
94813	1038387	Tests Monday showed no structural damage to his shoulder.	Test Monday showed no structural damage to his shoulder.	49389231	1473219503697	1473219503877	SHIFT	16
94813	1038387	Tests Monday showed no structural damage to his shoulder.	Test Monday showed no structural damage to his shoulder.	49389233	1473219503817	1473219503917	M	77
94813	1038387	Tests Monday showed no structural damage to his shoulder.	Test Monday showed no structural damage to his shoulder.	49389236	1473219503997	1473219504067	o	79
94813	1038387	Tests Monday showed no structural damage to his shoulder.	Test Monday showed no structural damage to his shoulder.	49389239	1473219504167	1473219504257	n	78
94813	1038387	Tests Monday showed no structural damage to his shoulder.	Test Monday showed no structural damage to his shoulder.	49389242	1473219504317	1473219504407	d	68
94813	1038387	Tests Monday showed no structural damage to his shoulder.	Test Monday showed no structural damage to his shoulder.	49389246	1473219504477	1473219504587	a	65
94813	1038387	Tests Monday showed no structural damage to his shoulder.	Test Monday showed no structural damage to his shoulder.	49389289	1473219504597	1473219504687	y	89
94813	1038387	Tests Monday showed no structural damage to his shoulder.	Test Monday showed no structural damage to his shoulder.	49389294	1473219504847	1473219504958	 	32
94813	1038387	Tests Monday showed no structural damage to his shoulder.	Test Monday showed no structural damage to his shoulder.	49389303	1473219505257	1473219505357	s	83
94813	1038387	Tests Monday showed no structural damage to his shoulder.	Test Monday showed no structural damage to his shoulder.	49389312	1473219505398	1473219505497	h	72
94813	1038387	Tests Monday showed no structural damage to his shoulder.	Test Monday showed no structural damage to his shoulder.	49389318	1473219505597	1473219505677	o	79
94813	1038387	Tests Monday showed no structural damage to his shoulder.	Test Monday showed no structural damage to his shoulder.	49389391	1473219505697	1473219505807	w	87
94813	1038387	Tests Monday showed no structural damage to his shoulder.	Test Monday showed no structural damage to his shoulder.	49389394	1473219505888	1473219505997	e	69
94813	1038387	Tests Monday showed no structural damage to his shoulder.	Test Monday showed no structural damage to his shoulder.	49389398	1473219506078	1473219506167	d	68
94813	1038387	Tests Monday showed no structural damage to his shoulder.	Test Monday showed no structural damage to his shoulder.	49389401	1473219506227	1473219506339	 	32
94813	1038387	Tests Monday showed no structural damage to his shoulder.	Test Monday showed no structural damage to his shoulder.	49389406	1473219506689	1473219506807	n	78
94813	1038387	Tests Monday showed no structural damage to his shoulder.	Test Monday showed no structural damage to his shoulder.	49389536	1473219506847	1473219506937	o	79
94813	1038387	Tests Monday showed no structural damage to his shoulder.	Test Monday showed no structural damage to his shoulder.	49389539	1473219507178	1473219507257	s	83
94813	1038387	Tests Monday showed no structural damage to his shoulder.	Test Monday showed no structural damage to his shoulder.	49389545	1473219507600	1473219507727	BKSP	8
94813	1038387	Tests Monday showed no structural damage to his shoulder.	Test Monday showed no structural damage to his shoulder.	49389549	1473219507967	1473219508077	 	32
94813	1038387	Tests Monday showed no structural damage to his shoulder.	Test Monday showed no structural damage to his shoulder.	49389552	1473219508604	1473219508695	s	83
94813	1038387	Tests Monday showed no structural damage to his shoulder.	Test Monday showed no structural damage to his shoulder.	49389556	1473219508767	1473219508848	t	84
94813	1038387	Tests Monday showed no structural damage to his shoulder.	Test Monday showed no structural damage to his shoulder.	49389623	1473219508927	1473219509018	r	82
94813	1038387	Tests Monday showed no structural damage to his shoulder.	Test Monday showed no structural damage to his shoulder.	49389629	1473219509228	1473219509318	u	85
94813	1038387	Tests Monday showed no structural damage to his shoulder.	Test Monday showed no structural damage to his shoulder.	49389637	1473219509418	1473219509517	c	67
94813	1038387	Tests Monday showed no structural damage to his shoulder.	Test Monday showed no structural damage to his shoulder.	49389640	1473219509558	1473219509647	t	84
94813	1038387	Tests Monday showed no structural damage to his shoulder.	Test Monday showed no structural damage to his shoulder.	49389645	1473219509877	1473219509977	u	85
94813	1038387	Tests Monday showed no structural damage to his shoulder.	Test Monday showed no structural damage to his shoulder.	49389712	1473219510044	1473219510147	r	82
94813	1038387	Tests Monday showed no structural damage to his shoulder.	Test Monday showed no structural damage to his shoulder.	49389716	1473219510307	1473219510422	a	65
94813	1038387	Tests Monday showed no structural damage to his shoulder.	Test Monday showed no structural damage to his shoulder.	49389719	1473219510398	1473219510507	l	76
94813	1038387	Tests Monday showed no structural damage to his shoulder.	Test Monday showed no structural damage to his shoulder.	49389722	1473219510638	1473219510757	 	32
94813	1038387	Tests Monday showed no structural damage to his shoulder.	Test Monday showed no structural damage to his shoulder.	49389726	1473219511405	1473219511517	d	68
94813	1038387	Tests Monday showed no structural damage to his shoulder.	Test Monday showed no structural damage to his shoulder.	49389791	1473219511587	1473219511697	a	65
94813	1038387	Tests Monday showed no structural damage to his shoulder.	Test Monday showed no structural damage to his shoulder.	49389795	1473219511737	1473219511827	m	77
94813	1038387	Tests Monday showed no structural damage to his shoulder.	Test Monday showed no structural damage to his shoulder.	49389798	1473219511869	1473219511967	a	65
94813	1038387	Tests Monday showed no structural damage to his shoulder.	Test Monday showed no structural damage to his shoulder.	49389802	1473219512047	1473219512137	g	71
94813	1038387	Tests Monday showed no structural damage to his shoulder.	Test Monday showed no structural damage to his shoulder.	49389806	1473219512207	1473219512308	e	69
94813	1038387	Tests Monday showed no structural damage to his shoulder.	Test Monday showed no structural damage to his shoulder.	49389873	1473219512357	1473219512468	 	32
94813	1038387	Tests Monday showed no structural damage to his shoulder.	Test Monday showed no structural damage to his shoulder.	49389881	1473219513457	1473219513558	t	84
94813	1038387	Tests Monday showed no structural damage to his shoulder.	Test Monday showed no structural damage to his shoulder.	49389888	1473219513566	1473219513667	o	79
94813	1038387	Tests Monday showed no structural damage to his shoulder.	Test Monday showed no structural damage to his shoulder.	49389895	1473219513768	1473219513884	 	32
94813	1038387	Tests Monday showed no structural damage to his shoulder.	Test Monday showed no structural damage to his shoulder.	49389902	1473219513958	1473219514039	h	72
94813	1038387	Tests Monday showed no structural damage to his shoulder.	Test Monday showed no structural damage to his shoulder.	49389918	1473219514117	1473219514208	i	73
94813	1038387	Tests Monday showed no structural damage to his shoulder.	Test Monday showed no structural damage to his shoulder.	49389922	1473219514258	1473219514348	s	83
94813	1038387	Tests Monday showed no structural damage to his shoulder.	Test Monday showed no structural damage to his shoulder.	49389927	1473219514348	1473219514438	 	32
94813	1038387	Tests Monday showed no structural damage to his shoulder.	Test Monday showed no structural damage to his shoulder.	49389931	1473219514527	1473219514607	s	83
94813	1038387	Tests Monday showed no structural damage to his shoulder.	Test Monday showed no structural damage to his shoulder.	49389980	1473219514578	1473219514667	h	72
94813	1038387	Tests Monday showed no structural damage to his shoulder.	Test Monday showed no structural damage to his shoulder.	49389982	1473219514777	1473219514877	o	79
94813	1038387	Tests Monday showed no structural damage to his shoulder.	Test Monday showed no structural damage to his shoulder.	49389985	1473219514977	1473219515087	u	85
94813	1038387	Tests Monday showed no structural damage to his shoulder.	Test Monday showed no structural damage to his shoulder.	49389987	1473219515258	1473219515347	l	76
94813	1038387	Tests Monday showed no structural damage to his shoulder.	Test Monday showed no structural damage to his shoulder.	49389989	1473219515387	1473219515488	d	68
94813	1038387	Tests Monday showed no structural damage to his shoulder.	Test Monday showed no structural damage to his shoulder.	49389991	1473219515628	1473219515717	e	69
94813	1038387	Tests Monday showed no structural damage to his shoulder.	Test Monday showed no structural damage to his shoulder.	49390004	1473219515797	1473219515896	r	82
94813	1038387	Tests Monday showed no structural damage to his shoulder.	Test Monday showed no structural damage to his shoulder.	49390006	1473219515917	1473219516017	.	190
94813	1038409	The big tight end has no real value as a Fantasy player.	The big tight end has no real value as a Fantasy player	49390222	1473219518679	1473219519037	SHIFT	16
94813	1038409	The big tight end has no real value as a Fantasy player.	The big tight end has no real value as a Fantasy player	49390215	1473219518867	1473219518967	T	84
94813	1038409	The big tight end has no real value as a Fantasy player.	The big tight end has no real value as a Fantasy player	49390228	1473219519117	1473219519227	h	72
94813	1038409	The big tight end has no real value as a Fantasy player.	The big tight end has no real value as a Fantasy player	49390232	1473219519297	1473219519387	e	69
94813	1038409	The big tight end has no real value as a Fantasy player.	The big tight end has no real value as a Fantasy player	49390236	1473219519408	1473219519497	 	32
94813	1038409	The big tight end has no real value as a Fantasy player.	The big tight end has no real value as a Fantasy player	49390239	1473219519577	1473219519667	b	66
94813	1038409	The big tight end has no real value as a Fantasy player.	The big tight end has no real value as a Fantasy player	49390300	1473219519748	1473219519868	i	73
94813	1038409	The big tight end has no real value as a Fantasy player.	The big tight end has no real value as a Fantasy player	49390305	1473219519937	1473219520014	g	71
94813	1038409	The big tight end has no real value as a Fantasy player.	The big tight end has no real value as a Fantasy player	49390307	1473219520088	1473219520188	 	32
94813	1038409	The big tight end has no real value as a Fantasy player.	The big tight end has no real value as a Fantasy player	49390311	1473219520787	1473219520875	t	84
94813	1038409	The big tight end has no real value as a Fantasy player.	The big tight end has no real value as a Fantasy player	49390315	1473219521007	1473219521097	i	73
94813	1038409	The big tight end has no real value as a Fantasy player.	The big tight end has no real value as a Fantasy player	49390369	1473219521177	1473219521288	g	71
94813	1038409	The big tight end has no real value as a Fantasy player.	The big tight end has no real value as a Fantasy player	49390373	1473219521288	1473219521387	h	72
94813	1038409	The big tight end has no real value as a Fantasy player.	The big tight end has no real value as a Fantasy player	49390376	1473219521447	1473219521537	t	84
94813	1038409	The big tight end has no real value as a Fantasy player.	The big tight end has no real value as a Fantasy player	49390380	1473219521587	1473219521677	 	32
94813	1038409	The big tight end has no real value as a Fantasy player.	The big tight end has no real value as a Fantasy player	49390385	1473219522038	1473219522138	e	69
94813	1038409	The big tight end has no real value as a Fantasy player.	The big tight end has no real value as a Fantasy player	49390410	1473219522157	1473219522258	n	78
94813	1038409	The big tight end has no real value as a Fantasy player.	The big tight end has no real value as a Fantasy player	49390413	1473219522298	1473219522388	d	68
94813	1038409	The big tight end has no real value as a Fantasy player.	The big tight end has no real value as a Fantasy player	49390417	1473219522418	1473219522507	 	32
94813	1038409	The big tight end has no real value as a Fantasy player.	The big tight end has no real value as a Fantasy player	49390421	1473219522596	1473219522697	h	72
94813	1038409	The big tight end has no real value as a Fantasy player.	The big tight end has no real value as a Fantasy player	49390424	1473219522706	1473219522818	a	65
94813	1038409	The big tight end has no real value as a Fantasy player.	The big tight end has no real value as a Fantasy player	49390498	1473219522907	1473219523017	s	83
94813	1038409	The big tight end has no real value as a Fantasy player.	The big tight end has no real value as a Fantasy player	49390502	1473219523058	1473219523146	 	32
94813	1038409	The big tight end has no real value as a Fantasy player.	The big tight end has no real value as a Fantasy player	49390506	1473219523507	1473219523607	n	78
94813	1038409	The big tight end has no real value as a Fantasy player.	The big tight end has no real value as a Fantasy player	49390510	1473219523698	1473219523797	o	79
94813	1038409	The big tight end has no real value as a Fantasy player.	The big tight end has no real value as a Fantasy player	49390515	1473219523911	1473219524018	 	32
94813	1038409	The big tight end has no real value as a Fantasy player.	The big tight end has no real value as a Fantasy player	49390549	1473219524034	1473219524138	r	82
94813	1038409	The big tight end has no real value as a Fantasy player.	The big tight end has no real value as a Fantasy player	49390552	1473219524218	1473219524317	e	69
94813	1038409	The big tight end has no real value as a Fantasy player.	The big tight end has no real value as a Fantasy player	49390554	1473219524467	1473219524608	a	65
94813	1038409	The big tight end has no real value as a Fantasy player.	The big tight end has no real value as a Fantasy player	49390560	1473219524857	1473219524937	l	76
94813	1038409	The big tight end has no real value as a Fantasy player.	The big tight end has no real value as a Fantasy player	49390565	1473219525018	1473219525117	 	32
94813	1038409	The big tight end has no real value as a Fantasy player.	The big tight end has no real value as a Fantasy player	49390593	1473219525257	1473219525338	v	86
94813	1038409	The big tight end has no real value as a Fantasy player.	The big tight end has no real value as a Fantasy player	49390595	1473219525406	1473219525508	a	65
94813	1038409	The big tight end has no real value as a Fantasy player.	The big tight end has no real value as a Fantasy player	49390597	1473219525557	1473219525668	l	76
94813	1038409	The big tight end has no real value as a Fantasy player.	The big tight end has no real value as a Fantasy player	49390599	1473219525808	1473219525888	u	85
94813	1038409	The big tight end has no real value as a Fantasy player.	The big tight end has no real value as a Fantasy player	49390601	1473219525948	1473219526048	e	69
94813	1038409	The big tight end has no real value as a Fantasy player.	The big tight end has no real value as a Fantasy player	49390659	1473219526157	1473219526247	 	32
94813	1038409	The big tight end has no real value as a Fantasy player.	The big tight end has no real value as a Fantasy player	49390660	1473219526586	1473219526688	a	65
94813	1038409	The big tight end has no real value as a Fantasy player.	The big tight end has no real value as a Fantasy player	49390668	1473219526768	1473219526867	s	83
94813	1038409	The big tight end has no real value as a Fantasy player.	The big tight end has no real value as a Fantasy player	49390673	1473219527066	1473219527168	 	32
94813	1038409	The big tight end has no real value as a Fantasy player.	The big tight end has no real value as a Fantasy player	49390679	1473219527267	1473219527367	a	65
94813	1038409	The big tight end has no real value as a Fantasy player.	The big tight end has no real value as a Fantasy player	49390748	1473219527437	1473219527550	 	32
94813	1038409	The big tight end has no real value as a Fantasy player.	The big tight end has no real value as a Fantasy player	49390753	1473219527828	1473219527981	SHIFT	16
94813	1038409	The big tight end has no real value as a Fantasy player.	The big tight end has no real value as a Fantasy player	49390757	1473219527938	1473219528002	F	70
94813	1038409	The big tight end has no real value as a Fantasy player.	The big tight end has no real value as a Fantasy player	49390761	1473219528108	1473219528196	a	65
94813	1038409	The big tight end has no real value as a Fantasy player.	The big tight end has no real value as a Fantasy player	49390764	1473219528187	1473219528280	n	78
94813	1038409	The big tight end has no real value as a Fantasy player.	The big tight end has no real value as a Fantasy player	49390769	1473219528429	1473219528508	t	84
94813	1038409	The big tight end has no real value as a Fantasy player.	The big tight end has no real value as a Fantasy player	49390815	1473219528568	1473219528668	a	65
94813	1038409	The big tight end has no real value as a Fantasy player.	The big tight end has no real value as a Fantasy player	49390821	1473219528748	1473219528837	s	83
94813	1038409	The big tight end has no real value as a Fantasy player.	The big tight end has no real value as a Fantasy player	49390827	1473219528878	1473219528955	y	89
94813	1038409	The big tight end has no real value as a Fantasy player.	The big tight end has no real value as a Fantasy player	49390832	1473219529065	1473219529192	 	32
94813	1038409	The big tight end has no real value as a Fantasy player.	The big tight end has no real value as a Fantasy player	49390926	1473219529308	1473219529752	SHIFT	16
94813	1038409	The big tight end has no real value as a Fantasy player.	The big tight end has no real value as a Fantasy player	49390837	1473219529448	1473219529512	P	80
94813	1038409	The big tight end has no real value as a Fantasy player.	The big tight end has no real value as a Fantasy player	49390930	1473219529938	1473219530018	BKSP	8
94813	1038409	The big tight end has no real value as a Fantasy player.	The big tight end has no real value as a Fantasy player	49390934	1473219530438	1473219530547	p	80
94813	1038409	The big tight end has no real value as a Fantasy player.	The big tight end has no real value as a Fantasy player	49390941	1473219530528	1473219530658	l	76
94813	1038409	The big tight end has no real value as a Fantasy player.	The big tight end has no real value as a Fantasy player	49390949	1473219530640	1473219530757	a	65
94813	1038409	The big tight end has no real value as a Fantasy player.	The big tight end has no real value as a Fantasy player	49390955	1473219530824	1473219530925	y	89
94813	1038409	The big tight end has no real value as a Fantasy player.	The big tight end has no real value as a Fantasy player	49390960	1473219530958	1473219531078	e	69
94813	1038409	The big tight end has no real value as a Fantasy player.	The big tight end has no real value as a Fantasy player	49390952	1473219531158	1473219531250	r	82
94813	1038424	I'll catch up with you tomorrow.	ILL catch up with you tomorrow.	49391211	1473219533609	1473219533858	SHIFT	16
94813	1038424	I'll catch up with you tomorrow.	ILL catch up with you tomorrow.	49391209	1473219533738	1473219533828	I	73
94813	1038424	I'll catch up with you tomorrow.	ILL catch up with you tomorrow.	49391221	1473219534879	1473219535268	SHIFT	16
94813	1038424	I'll catch up with you tomorrow.	ILL catch up with you tomorrow.	49391214	1473219534998	1473219535077	L	76
94813	1038424	I'll catch up with you tomorrow.	ILL catch up with you tomorrow.	49391218	1473219535147	1473219535248	L	76
94813	1038424	I'll catch up with you tomorrow.	ILL catch up with you tomorrow.	49391223	1473219535362	1473219535604	 	32
94813	1038424	I'll catch up with you tomorrow.	ILL catch up with you tomorrow.	49391230	1473219536028	1473219536118	c	67
94813	1038424	I'll catch up with you tomorrow.	ILL catch up with you tomorrow.	49391287	1473219536139	1473219536238	a	65
94813	1038424	I'll catch up with you tomorrow.	ILL catch up with you tomorrow.	49391293	1473219536358	1473219536382	t	84
94813	1038424	I'll catch up with you tomorrow.	ILL catch up with you tomorrow.	49391298	1473219536568	1473219536570	t	84
94813	1038424	I'll catch up with you tomorrow.	ILL catch up with you tomorrow.	49391304	1473219537080	1473219537218	BKSP	8
94813	1038424	I'll catch up with you tomorrow.	ILL catch up with you tomorrow.	49391312	1473219537658	1473219537699	c	67
94813	1038424	I'll catch up with you tomorrow.	ILL catch up with you tomorrow.	49391364	1473219537698	1473219537868	h	72
94813	1038424	I'll catch up with you tomorrow.	ILL catch up with you tomorrow.	49391367	1473219537868	1473219538078	 	32
94813	1038424	I'll catch up with you tomorrow.	ILL catch up with you tomorrow.	49391372	1473219538978	1473219538979	u	85
94813	1038424	I'll catch up with you tomorrow.	ILL catch up with you tomorrow.	49391376	1473219538979	1473219538980	p	80
94813	1038424	I'll catch up with you tomorrow.	ILL catch up with you tomorrow.	49391382	1473219538980	1473219538983	 	32
94813	1038424	I'll catch up with you tomorrow.	ILL catch up with you tomorrow.	49391385	1473219539089	1473219539228	w	87
94813	1038424	I'll catch up with you tomorrow.	ILL catch up with you tomorrow.	49391427	1473219539231	1473219539328	i	73
94813	1038424	I'll catch up with you tomorrow.	ILL catch up with you tomorrow.	49391434	1473219539448	1473219539486	t	84
94813	1038424	I'll catch up with you tomorrow.	ILL catch up with you tomorrow.	49391440	1473219539528	1473219539668	h	72
94813	1038424	I'll catch up with you tomorrow.	ILL catch up with you tomorrow.	49391443	1473219539748	1473219539888	 	32
94813	1038424	I'll catch up with you tomorrow.	ILL catch up with you tomorrow.	49391450	1473219540388	1473219540533	y	89
94813	1038424	I'll catch up with you tomorrow.	ILL catch up with you tomorrow.	49391485	1473219540563	1473219540678	o	79
94813	1038424	I'll catch up with you tomorrow.	ILL catch up with you tomorrow.	49391492	1473219540728	1473219540868	u	85
94813	1038424	I'll catch up with you tomorrow.	ILL catch up with you tomorrow.	49391499	1473219540916	1473219541088	 	32
94813	1038424	I'll catch up with you tomorrow.	ILL catch up with you tomorrow.	49391505	1473219541088	1473219541157	t	84
94813	1038424	I'll catch up with you tomorrow.	ILL catch up with you tomorrow.	49391510	1473219541165	1473219541308	o	79
94813	1038424	I'll catch up with you tomorrow.	ILL catch up with you tomorrow.	49391530	1473219541312	1473219541399	m	77
94813	1038424	I'll catch up with you tomorrow.	ILL catch up with you tomorrow.	49391536	1473219541458	1473219541548	o	79
94813	1038424	I'll catch up with you tomorrow.	ILL catch up with you tomorrow.	49391541	1473219541568	1473219541649	r	82
94813	1038424	I'll catch up with you tomorrow.	ILL catch up with you tomorrow.	49391547	1473219541708	1473219541808	r	82
94813	1038424	I'll catch up with you tomorrow.	ILL catch up with you tomorrow.	49391555	1473219541848	1473219541928	o	79
94813	1038424	I'll catch up with you tomorrow.	ILL catch up with you tomorrow.	49391575	1473219541987	1473219542079	w	87
94813	1038424	I'll catch up with you tomorrow.	ILL catch up with you tomorrow.	49391579	1473219542168	1473219542249	.	190
94813	1038439	Is this the conference rate?	Is this the conference rate?	49391789	1473219544918	1473219545087	SHIFT	16
94813	1038439	Is this the conference rate?	Is this the conference rate?	49391792	1473219545028	1473219545107	I	73
94813	1038439	Is this the conference rate?	Is this the conference rate?	49391798	1473219545226	1473219545338	s	83
94813	1038439	Is this the conference rate?	Is this the conference rate?	49391805	1473219545659	1473219545758	 	32
94813	1038439	Is this the conference rate?	Is this the conference rate?	49391811	1473219545807	1473219545918	t	84
94813	1038439	Is this the conference rate?	Is this the conference rate?	49391816	1473219545926	1473219546018	h	72
94813	1038439	Is this the conference rate?	Is this the conference rate?	49391872	1473219546088	1473219546188	i	73
94813	1038439	Is this the conference rate?	Is this the conference rate?	49391877	1473219546195	1473219546308	s	83
94813	1038439	Is this the conference rate?	Is this the conference rate?	49391880	1473219546398	1473219546508	 	32
94813	1038439	Is this the conference rate?	Is this the conference rate?	49391886	1473219547038	1473219547138	t	84
94813	1038439	Is this the conference rate?	Is this the conference rate?	49391890	1473219547154	1473219547248	h	72
94813	1038439	Is this the conference rate?	Is this the conference rate?	49391939	1473219547318	1473219547418	e	69
94813	1038439	Is this the conference rate?	Is this the conference rate?	49391947	1473219547426	1473219547503	 	32
94813	1038439	Is this the conference rate?	Is this the conference rate?	49391953	1473219547588	1473219547708	c	67
94813	1038439	Is this the conference rate?	Is this the conference rate?	49391958	1473219547728	1473219547808	o	79
94813	1038439	Is this the conference rate?	Is this the conference rate?	49391962	1473219547888	1473219547988	n	78
94813	1038439	Is this the conference rate?	Is this the conference rate?	49392000	1473219548076	1473219548180	f	70
94813	1038439	Is this the conference rate?	Is this the conference rate?	49392003	1473219548308	1473219548418	e	69
94813	1038439	Is this the conference rate?	Is this the conference rate?	49392009	1473219548488	1473219548578	r	82
94813	1038439	Is this the conference rate?	Is this the conference rate?	49392015	1473219548680	1473219548805	e	69
94813	1038439	Is this the conference rate?	Is this the conference rate?	49392022	1473219548838	1473219548918	n	78
94813	1038439	Is this the conference rate?	Is this the conference rate?	49392086	1473219549088	1473219549198	c	67
94813	1038439	Is this the conference rate?	Is this the conference rate?	49392092	1473219549238	1473219549327	e	69
94813	1038439	Is this the conference rate?	Is this the conference rate?	49392097	1473219549398	1473219549488	 	32
94813	1038439	Is this the conference rate?	Is this the conference rate?	49392100	1473219550068	1473219550156	r	82
94813	1038439	Is this the conference rate?	Is this the conference rate?	49392104	1473219550156	1473219550268	a	65
94813	1038439	Is this the conference rate?	Is this the conference rate?	49392234	1473219550298	1473219550378	t	84
94813	1038439	Is this the conference rate?	Is this the conference rate?	49392237	1473219550408	1473219550508	e	69
94813	1038439	Is this the conference rate?	Is this the conference rate?	49392240	1473219550618	1473219550718	 	32
94813	1038439	Is this the conference rate?	Is this the conference rate?	49392245	1473219551028	1473219551836	SHIFT	16
94813	1038439	Is this the conference rate?	Is this the conference rate?	49392248	1473219551878	1473219551968	BKSP	8
94813	1038439	Is this the conference rate?	Is this the conference rate?	49392251	1473219552148	1473219552238	?	191
94813	1038450	The Columbia mission takes off from the Kennedy space centre.	The colombia mission takes off from the Kennedy Space centre	49392440	1473219555118	1473219555208	T	84
94813	1038450	The Columbia mission takes off from the Kennedy space centre.	The colombia mission takes off from the Kennedy Space centre	49392444	1473219555358	1473219555448	h	72
94813	1038450	The Columbia mission takes off from the Kennedy space centre.	The colombia mission takes off from the Kennedy Space centre	49392448	1473219555455	1473219555568	e	69
94813	1038450	The Columbia mission takes off from the Kennedy space centre.	The colombia mission takes off from the Kennedy Space centre	49392452	1473219555588	1473219555688	 	32
94813	1038450	The Columbia mission takes off from the Kennedy space centre.	The colombia mission takes off from the Kennedy Space centre	49392457	1473219555718	1473219555818	c	67
94813	1038450	The Columbia mission takes off from the Kennedy space centre.	The colombia mission takes off from the Kennedy Space centre	49392505	1473219555878	1473219555950	o	79
94813	1038450	The Columbia mission takes off from the Kennedy space centre.	The colombia mission takes off from the Kennedy Space centre	49392508	1473219556048	1473219556158	l	76
94813	1038450	The Columbia mission takes off from the Kennedy space centre.	The colombia mission takes off from the Kennedy Space centre	49392515	1473219556209	1473219556318	o	79
94813	1038450	The Columbia mission takes off from the Kennedy space centre.	The colombia mission takes off from the Kennedy Space centre	49392519	1473219556378	1473219556488	m	77
94813	1038450	The Columbia mission takes off from the Kennedy space centre.	The colombia mission takes off from the Kennedy Space centre	49392522	1473219556618	1473219556728	b	66
94813	1038450	The Columbia mission takes off from the Kennedy space centre.	The colombia mission takes off from the Kennedy Space centre	49392584	1473219556838	1473219556938	i	73
94813	1038450	The Columbia mission takes off from the Kennedy space centre.	The colombia mission takes off from the Kennedy Space centre	49392591	1473219556998	1473219557108	a	65
94813	1038450	The Columbia mission takes off from the Kennedy space centre.	The colombia mission takes off from the Kennedy Space centre	49392597	1473219557158	1473219557268	 	32
94813	1038450	The Columbia mission takes off from the Kennedy space centre.	The colombia mission takes off from the Kennedy Space centre	49392604	1473219557827	1473219557938	m	77
94813	1038450	The Columbia mission takes off from the Kennedy space centre.	The colombia mission takes off from the Kennedy Space centre	49392609	1473219558016	1473219558088	i	73
94813	1038450	The Columbia mission takes off from the Kennedy space centre.	The colombia mission takes off from the Kennedy Space centre	49392631	1473219558096	1473219558198	s	83
94813	1038450	The Columbia mission takes off from the Kennedy space centre.	The colombia mission takes off from the Kennedy Space centre	49392634	1473219558258	1473219558368	s	83
94813	1038450	The Columbia mission takes off from the Kennedy space centre.	The colombia mission takes off from the Kennedy Space centre	49392638	1473219558430	1473219558528	i	73
94813	1038450	The Columbia mission takes off from the Kennedy space centre.	The colombia mission takes off from the Kennedy Space centre	49392642	1473219558630	1473219558718	o	79
94813	1038450	The Columbia mission takes off from the Kennedy space centre.	The colombia mission takes off from the Kennedy Space centre	49392647	1473219558808	1473219558908	n	78
94813	1038450	The Columbia mission takes off from the Kennedy space centre.	The colombia mission takes off from the Kennedy Space centre	49392714	1473219559008	1473219559108	 	32
94813	1038450	The Columbia mission takes off from the Kennedy space centre.	The colombia mission takes off from the Kennedy Space centre	49392717	1473219559750	1473219559848	t	84
94813	1038450	The Columbia mission takes off from the Kennedy space centre.	The colombia mission takes off from the Kennedy Space centre	49392722	1473219559856	1473219559978	a	65
94813	1038450	The Columbia mission takes off from the Kennedy space centre.	The colombia mission takes off from the Kennedy Space centre	49392729	1473219560046	1473219560138	k	75
94813	1038450	The Columbia mission takes off from the Kennedy space centre.	The colombia mission takes off from the Kennedy Space centre	49392739	1473219560159	1473219560247	e	69
94813	1038450	The Columbia mission takes off from the Kennedy space centre.	The colombia mission takes off from the Kennedy Space centre	49392792	1473219560350	1473219560458	s	83
94813	1038450	The Columbia mission takes off from the Kennedy space centre.	The colombia mission takes off from the Kennedy Space centre	49392799	1473219560459	1473219560548	 	32
94813	1038450	The Columbia mission takes off from the Kennedy space centre.	The colombia mission takes off from the Kennedy Space centre	49392805	1473219560648	1473219560728	o	79
94813	1038450	The Columbia mission takes off from the Kennedy space centre.	The colombia mission takes off from the Kennedy Space centre	49392809	1473219560758	1473219560860	f	70
94813	1038450	The Columbia mission takes off from the Kennedy space centre.	The colombia mission takes off from the Kennedy Space centre	49392813	1473219561008	1473219561118	f	70
94813	1038450	The Columbia mission takes off from the Kennedy space centre.	The colombia mission takes off from the Kennedy Space centre	49392895	1473219561519	1473219561630	 	32
94813	1038450	The Columbia mission takes off from the Kennedy space centre.	The colombia mission takes off from the Kennedy Space centre	49392897	1473219561950	1473219562078	f	70
94813	1038450	The Columbia mission takes off from the Kennedy space centre.	The colombia mission takes off from the Kennedy Space centre	49392901	1473219562168	1473219562268	r	82
94813	1038450	The Columbia mission takes off from the Kennedy space centre.	The colombia mission takes off from the Kennedy Space centre	49392904	1473219562268	1473219562368	o	79
94813	1038450	The Columbia mission takes off from the Kennedy space centre.	The colombia mission takes off from the Kennedy Space centre	49392908	1473219562508	1473219562568	m	77
94813	1038450	The Columbia mission takes off from the Kennedy space centre.	The colombia mission takes off from the Kennedy Space centre	49392955	1473219562999	1473219563038	 	32
94813	1038450	The Columbia mission takes off from the Kennedy space centre.	The colombia mission takes off from the Kennedy Space centre	49392958	1473219563088	1473219563188	t	84
94813	1038450	The Columbia mission takes off from the Kennedy space centre.	The colombia mission takes off from the Kennedy Space centre	49392960	1473219563248	1473219563328	h	72
94813	1038450	The Columbia mission takes off from the Kennedy space centre.	The colombia mission takes off from the Kennedy Space centre	49392961	1473219563396	1473219563528	e	69
94813	1038450	The Columbia mission takes off from the Kennedy space centre.	The colombia mission takes off from the Kennedy Space centre	49392964	1473219563578	1473219563678	 	32
94813	1038450	The Columbia mission takes off from the Kennedy space centre.	The colombia mission takes off from the Kennedy Space centre	49393006	1473219563908	1473219564076	SHIFT	16
94813	1038450	The Columbia mission takes off from the Kennedy space centre.	The colombia mission takes off from the Kennedy Space centre	49393007	1473219564058	1473219564132	K	75
94813	1038450	The Columbia mission takes off from the Kennedy space centre.	The colombia mission takes off from the Kennedy Space centre	49393008	1473219564258	1473219564380	e	69
94813	1038450	The Columbia mission takes off from the Kennedy space centre.	The colombia mission takes off from the Kennedy Space centre	49393009	1473219564386	1473219564468	n	78
94813	1038450	The Columbia mission takes off from the Kennedy space centre.	The colombia mission takes off from the Kennedy Space centre	49393010	1473219564550	1473219564668	n	78
94813	1038450	The Columbia mission takes off from the Kennedy space centre.	The colombia mission takes off from the Kennedy Space centre	49393011	1473219564728	1473219564838	d	68
94813	1038450	The Columbia mission takes off from the Kennedy space centre.	The colombia mission takes off from the Kennedy Space centre	49393182	1473219565248	1473219565326	=	187
94813	1038450	The Columbia mission takes off from the Kennedy space centre.	The colombia mission takes off from the Kennedy Space centre	49393188	1473219565368	1473219565448	e	69
94813	1038450	The Columbia mission takes off from the Kennedy space centre.	The colombia mission takes off from the Kennedy Space centre	49393197	1473219565918	1473219566008	BKSP	8
94813	1038450	The Columbia mission takes off from the Kennedy space centre.	The colombia mission takes off from the Kennedy Space centre	49393203	1473219566078	1473219566146	BKSP	8
94813	1038450	The Columbia mission takes off from the Kennedy space centre.	The colombia mission takes off from the Kennedy Space centre	49393210	1473219566218	1473219566326	e	69
94813	1038450	The Columbia mission takes off from the Kennedy space centre.	The colombia mission takes off from the Kennedy Space centre	49393213	1473219566709	1473219566768	BKSP	8
94813	1038450	The Columbia mission takes off from the Kennedy space centre.	The colombia mission takes off from the Kennedy Space centre	49393220	1473219566838	1473219566928	BKSP	8
94813	1038450	The Columbia mission takes off from the Kennedy space centre.	The colombia mission takes off from the Kennedy Space centre	49393225	1473219566998	1473219567078	BKSP	8
94813	1038450	The Columbia mission takes off from the Kennedy space centre.	The colombia mission takes off from the Kennedy Space centre	49393230	1473219567748	1473219567848	n	78
94813	1038450	The Columbia mission takes off from the Kennedy space centre.	The colombia mission takes off from the Kennedy Space centre	49393235	1473219567958	1473219568068	e	69
94813	1038450	The Columbia mission takes off from the Kennedy space centre.	The colombia mission takes off from the Kennedy Space centre	49393267	1473219568158	1473219568268	d	68
94813	1038450	The Columbia mission takes off from the Kennedy space centre.	The colombia mission takes off from the Kennedy Space centre	49393272	1473219568378	1473219568468	y	89
94813	1038450	The Columbia mission takes off from the Kennedy space centre.	The colombia mission takes off from the Kennedy Space centre	49393276	1473219568603	1473219568702	 	32
94813	1038450	The Columbia mission takes off from the Kennedy space centre.	The colombia mission takes off from the Kennedy Space centre	49393278	1473219568788	1473219569000	SHIFT	16
94813	1038450	The Columbia mission takes off from the Kennedy space centre.	The colombia mission takes off from the Kennedy Space centre	49393280	1473219568958	1473219569108	S	83
94813	1038450	The Columbia mission takes off from the Kennedy space centre.	The colombia mission takes off from the Kennedy Space centre	49393282	1473219569138	1473219569218	p	80
94813	1038450	The Columbia mission takes off from the Kennedy space centre.	The colombia mission takes off from the Kennedy Space centre	49393315	1473219569288	1473219569398	a	65
94813	1038450	The Columbia mission takes off from the Kennedy space centre.	The colombia mission takes off from the Kennedy Space centre	49393318	1473219569478	1473219569558	c	67
94813	1038450	The Columbia mission takes off from the Kennedy space centre.	The colombia mission takes off from the Kennedy Space centre	49393321	1473219569566	1473219569668	e	69
94813	1038450	The Columbia mission takes off from the Kennedy space centre.	The colombia mission takes off from the Kennedy Space centre	49393324	1473219569698	1473219569798	 	32
94813	1038450	The Columbia mission takes off from the Kennedy space centre.	The colombia mission takes off from the Kennedy Space centre	49393327	1473219569878	1473219569988	c	67
94813	1038450	The Columbia mission takes off from the Kennedy space centre.	The colombia mission takes off from the Kennedy Space centre	49393357	1473219570158	1473219570288	e	69
94813	1038450	The Columbia mission takes off from the Kennedy space centre.	The colombia mission takes off from the Kennedy Space centre	49393361	1473219570318	1473219570428	n	78
94813	1038450	The Columbia mission takes off from the Kennedy space centre.	The colombia mission takes off from the Kennedy Space centre	49393363	1473219570478	1473219570568	t	84
94813	1038450	The Columbia mission takes off from the Kennedy space centre.	The colombia mission takes off from the Kennedy Space centre	49393366	1473219570668	1473219570768	r	82
94813	1038450	The Columbia mission takes off from the Kennedy space centre.	The colombia mission takes off from the Kennedy Space centre	49393367	1473219570868	1473219570998	e	69
94813	1038471	We are going to send some money to a fund to help the victims.	We are going to send some money to a fund to help the victims.	49393542	1473219573499	1473219573818	SHIFT	16
94813	1038471	We are going to send some money to a fund to help the victims.	We are going to send some money to a fund to help the victims.	49393545	1473219573728	1473219573868	W	87
94813	1038471	We are going to send some money to a fund to help the victims.	We are going to send some money to a fund to help the victims.	49393549	1473219574146	1473219574256	e	69
94813	1038471	We are going to send some money to a fund to help the victims.	We are going to send some money to a fund to help the victims.	49393553	1473219574328	1473219574418	 	32
94813	1038471	We are going to send some money to a fund to help the victims.	We are going to send some money to a fund to help the victims.	49393558	1473219574498	1473219574628	a	65
94813	1038471	We are going to send some money to a fund to help the victims.	We are going to send some money to a fund to help the victims.	49393560	1473219574808	1473219574888	r	82
94813	1038471	We are going to send some money to a fund to help the victims.	We are going to send some money to a fund to help the victims.	49393617	1473219575159	1473219575218	BKSP	8
94813	1038471	We are going to send some money to a fund to help the victims.	We are going to send some money to a fund to help the victims.	49393619	1473219575278	1473219575370	BKSP	8
94813	1038471	We are going to send some money to a fund to help the victims.	We are going to send some money to a fund to help the victims.	49393623	1473219575899	1473219575988	a	65
94813	1038471	We are going to send some money to a fund to help the victims.	We are going to send some money to a fund to help the victims.	49393626	1473219575996	1473219576098	r	82
94813	1038471	We are going to send some money to a fund to help the victims.	We are going to send some money to a fund to help the victims.	49393630	1473219576106	1473219576228	e	69
94813	1038471	We are going to send some money to a fund to help the victims.	We are going to send some money to a fund to help the victims.	49393633	1473219576268	1473219576358	 	32
94813	1038471	We are going to send some money to a fund to help the victims.	We are going to send some money to a fund to help the victims.	49393636	1473219576988	1473219577088	g	71
94813	1038471	We are going to send some money to a fund to help the victims.	We are going to send some money to a fund to help the victims.	49393660	1473219577148	1473219577248	o	79
94813	1038471	We are going to send some money to a fund to help the victims.	We are going to send some money to a fund to help the victims.	49393666	1473219577338	1473219577429	i	73
94813	1038471	We are going to send some money to a fund to help the victims.	We are going to send some money to a fund to help the victims.	49393672	1473219577486	1473219577598	n	78
94813	1038471	We are going to send some money to a fund to help the victims.	We are going to send some money to a fund to help the victims.	49393677	1473219577607	1473219577698	g	71
94813	1038471	We are going to send some money to a fund to help the victims.	We are going to send some money to a fund to help the victims.	49393683	1473219577706	1473219577806	 	32
94813	1038471	We are going to send some money to a fund to help the victims.	We are going to send some money to a fund to help the victims.	49393776	1473219577848	1473219577926	t	84
94813	1038471	We are going to send some money to a fund to help the victims.	We are going to send some money to a fund to help the victims.	49393779	1473219578018	1473219578120	o	79
94813	1038471	We are going to send some money to a fund to help the victims.	We are going to send some money to a fund to help the victims.	49393780	1473219578278	1473219578389	 	32
94813	1038471	We are going to send some money to a fund to help the victims.	We are going to send some money to a fund to help the victims.	49393782	1473219578918	1473219579028	s	83
94813	1038471	We are going to send some money to a fund to help the victims.	We are going to send some money to a fund to help the victims.	49393785	1473219579108	1473219579198	e	69
94813	1038471	We are going to send some money to a fund to help the victims.	We are going to send some money to a fund to help the victims.	49393832	1473219579200	1473219579308	n	78
94813	1038471	We are going to send some money to a fund to help the victims.	We are going to send some money to a fund to help the victims.	49393834	1473219579338	1473219579458	d	68
94813	1038471	We are going to send some money to a fund to help the victims.	We are going to send some money to a fund to help the victims.	49393839	1473219579508	1473219579588	 	32
94813	1038471	We are going to send some money to a fund to help the victims.	We are going to send some money to a fund to help the victims.	49393846	1473219580098	1473219580198	s	83
94813	1038471	We are going to send some money to a fund to help the victims.	We are going to send some money to a fund to help the victims.	49393851	1473219580206	1473219580308	o	79
94813	1038471	We are going to send some money to a fund to help the victims.	We are going to send some money to a fund to help the victims.	49393869	1473219580378	1473219580479	m	77
94813	1038471	We are going to send some money to a fund to help the victims.	We are going to send some money to a fund to help the victims.	49393870	1473219580478	1473219580578	e	69
94813	1038471	We are going to send some money to a fund to help the victims.	We are going to send some money to a fund to help the victims.	49393872	1473219580608	1473219580717	 	32
94813	1038471	We are going to send some money to a fund to help the victims.	We are going to send some money to a fund to help the victims.	49393874	1473219580826	1473219580918	m	77
94813	1038471	We are going to send some money to a fund to help the victims.	We are going to send some money to a fund to help the victims.	49393879	1473219581018	1473219581128	o	79
94813	1038471	We are going to send some money to a fund to help the victims.	We are going to send some money to a fund to help the victims.	49393933	1473219581228	1473219581328	n	78
94813	1038471	We are going to send some money to a fund to help the victims.	We are going to send some money to a fund to help the victims.	49393936	1473219581358	1473219581448	e	69
94813	1038471	We are going to send some money to a fund to help the victims.	We are going to send some money to a fund to help the victims.	49393939	1473219581476	1473219581578	y	89
94813	1038471	We are going to send some money to a fund to help the victims.	We are going to send some money to a fund to help the victims.	49393942	1473219581698	1473219581818	 	32
94813	1038471	We are going to send some money to a fund to help the victims.	We are going to send some money to a fund to help the victims.	49393945	1473219582208	1473219582288	t	84
94813	1038471	We are going to send some money to a fund to help the victims.	We are going to send some money to a fund to help the victims.	49394016	1473219582348	1473219582438	o	79
94813	1038471	We are going to send some money to a fund to help the victims.	We are going to send some money to a fund to help the victims.	49394018	1473219582569	1473219582648	 	32
94813	1038471	We are going to send some money to a fund to help the victims.	We are going to send some money to a fund to help the victims.	49394023	1473219582719	1473219582828	a	65
94813	1038471	We are going to send some money to a fund to help the victims.	We are going to send some money to a fund to help the victims.	49394028	1473219582858	1473219582938	 	32
94813	1038471	We are going to send some money to a fund to help the victims.	We are going to send some money to a fund to help the victims.	49394032	1473219583748	1473219583848	f	70
94813	1038471	We are going to send some money to a fund to help the victims.	We are going to send some money to a fund to help the victims.	49394086	1473219584020	1473219584118	u	85
94813	1038471	We are going to send some money to a fund to help the victims.	We are going to send some money to a fund to help the victims.	49394088	1473219584188	1473219584298	n	78
94813	1038471	We are going to send some money to a fund to help the victims.	We are going to send some money to a fund to help the victims.	49394091	1473219584328	1473219584418	d	68
94813	1038471	We are going to send some money to a fund to help the victims.	We are going to send some money to a fund to help the victims.	49394094	1473219584468	1473219584568	 	32
94813	1038471	We are going to send some money to a fund to help the victims.	We are going to send some money to a fund to help the victims.	49394097	1473219585089	1473219585148	t	84
94813	1038471	We are going to send some money to a fund to help the victims.	We are going to send some money to a fund to help the victims.	49394127	1473219585188	1473219585288	o	79
94813	1038471	We are going to send some money to a fund to help the victims.	We are going to send some money to a fund to help the victims.	49394129	1473219585388	1473219585488	 	32
94813	1038471	We are going to send some money to a fund to help the victims.	We are going to send some money to a fund to help the victims.	49394131	1473219585576	1473219585668	h	72
94813	1038471	We are going to send some money to a fund to help the victims.	We are going to send some money to a fund to help the victims.	49394134	1473219585688	1473219585788	e	69
94813	1038471	We are going to send some money to a fund to help the victims.	We are going to send some money to a fund to help the victims.	49394137	1473219585848	1473219585958	l	76
94813	1038471	We are going to send some money to a fund to help the victims.	We are going to send some money to a fund to help the victims.	49394193	1473219586068	1473219586158	p	80
94813	1038471	We are going to send some money to a fund to help the victims.	We are going to send some money to a fund to help the victims.	49394199	1473219586338	1473219586458	 	32
94813	1038471	We are going to send some money to a fund to help the victims.	We are going to send some money to a fund to help the victims.	49394202	1473219586558	1473219586658	t	84
94813	1038471	We are going to send some money to a fund to help the victims.	We are going to send some money to a fund to help the victims.	49394207	1473219586690	1473219586816	h	72
94813	1038471	We are going to send some money to a fund to help the victims.	We are going to send some money to a fund to help the victims.	49394210	1473219586858	1473219586988	e	69
94813	1038471	We are going to send some money to a fund to help the victims.	We are going to send some money to a fund to help the victims.	49394264	1473219587028	1473219587148	 	32
94813	1038471	We are going to send some money to a fund to help the victims.	We are going to send some money to a fund to help the victims.	49394265	1473219587389	1473219587498	v	86
94813	1038471	We are going to send some money to a fund to help the victims.	We are going to send some money to a fund to help the victims.	49394266	1473219587638	1473219587728	i	73
94813	1038471	We are going to send some money to a fund to help the victims.	We are going to send some money to a fund to help the victims.	49394269	1473219587978	1473219588056	c	67
94813	1038471	We are going to send some money to a fund to help the victims.	We are going to send some money to a fund to help the victims.	49394272	1473219588158	1473219588258	t	84
94813	1038471	We are going to send some money to a fund to help the victims.	We are going to send some money to a fund to help the victims.	49394305	1473219588428	1473219588538	i	73
94813	1038471	We are going to send some money to a fund to help the victims.	We are going to send some money to a fund to help the victims.	49394307	1473219588639	1473219588748	m	77
94813	1038471	We are going to send some money to a fund to help the victims.	We are going to send some money to a fund to help the victims.	49394311	1473219588778	1473219588891	s	83
94813	1038471	We are going to send some money to a fund to help the victims.	We are going to send some money to a fund to help the victims.	49394315	1473219589010	1473219589108	.	190
94813	1038491	Kay Mann is going to take the lead on this.	Kay Mann is going to take the lead on this.	49394530	1473219592044	1473219592238	SHIFT	16
94813	1038491	Kay Mann is going to take the lead on this.	Kay Mann is going to take the lead on this.	49394533	1473219592198	1473219592298	K	75
94813	1038491	Kay Mann is going to take the lead on this.	Kay Mann is going to take the lead on this.	49394539	1473219592408	1473219592508	a	65
94813	1038491	Kay Mann is going to take the lead on this.	Kay Mann is going to take the lead on this.	49394547	1473219592578	1473219592646	y	89
94813	1038491	Kay Mann is going to take the lead on this.	Kay Mann is going to take the lead on this.	49394552	1473219592758	1473219592879	 	32
94813	1038491	Kay Mann is going to take the lead on this.	Kay Mann is going to take the lead on this.	49394554	1473219592948	1473219593338	SHIFT	16
94813	1038491	Kay Mann is going to take the lead on this.	Kay Mann is going to take the lead on this.	49394559	1473219593800	1473219594028	SHIFT	16
94813	1038491	Kay Mann is going to take the lead on this.	Kay Mann is going to take the lead on this.	49394604	1473219593948	1473219594036	M	77
94813	1038491	Kay Mann is going to take the lead on this.	Kay Mann is going to take the lead on this.	49394607	1473219594138	1473219594238	a	65
94813	1038491	Kay Mann is going to take the lead on this.	Kay Mann is going to take the lead on this.	49394610	1473219594318	1473219594388	n	78
94813	1038491	Kay Mann is going to take the lead on this.	Kay Mann is going to take the lead on this.	49394613	1473219594448	1473219594569	n	78
94813	1038491	Kay Mann is going to take the lead on this.	Kay Mann is going to take the lead on this.	49394616	1473219594628	1473219594730	 	32
94813	1038491	Kay Mann is going to take the lead on this.	Kay Mann is going to take the lead on this.	49394618	1473219595148	1473219595236	i	73
94813	1038491	Kay Mann is going to take the lead on this.	Kay Mann is going to take the lead on this.	49394636	1473219595278	1473219595388	s	83
94813	1038491	Kay Mann is going to take the lead on this.	Kay Mann is going to take the lead on this.	49394638	1473219595396	1473219595500	 	32
94813	1038491	Kay Mann is going to take the lead on this.	Kay Mann is going to take the lead on this.	49394640	1473219595561	1473219595639	g	71
94813	1038491	Kay Mann is going to take the lead on this.	Kay Mann is going to take the lead on this.	49394643	1473219595638	1473219595728	o	79
94813	1038491	Kay Mann is going to take the lead on this.	Kay Mann is going to take the lead on this.	49394645	1473219595848	1473219595948	i	73
94813	1038491	Kay Mann is going to take the lead on this.	Kay Mann is going to take the lead on this.	49394671	1473219596003	1473219596121	n	78
94813	1038491	Kay Mann is going to take the lead on this.	Kay Mann is going to take the lead on this.	49394673	1473219596128	1473219596215	g	71
94813	1038491	Kay Mann is going to take the lead on this.	Kay Mann is going to take the lead on this.	49394674	1473219596278	1473219596358	 	32
94813	1038491	Kay Mann is going to take the lead on this.	Kay Mann is going to take the lead on this.	49394676	1473219596698	1473219596800	t	84
94813	1038491	Kay Mann is going to take the lead on this.	Kay Mann is going to take the lead on this.	49394678	1473219596828	1473219596928	o	79
94813	1038491	Kay Mann is going to take the lead on this.	Kay Mann is going to take the lead on this.	49394720	1473219597018	1473219597138	 	32
94813	1038491	Kay Mann is going to take the lead on this.	Kay Mann is going to take the lead on this.	49394726	1473219597288	1473219597389	t	84
94813	1038491	Kay Mann is going to take the lead on this.	Kay Mann is going to take the lead on this.	49394730	1473219597389	1473219597478	a	65
94813	1038491	Kay Mann is going to take the lead on this.	Kay Mann is going to take the lead on this.	49394734	1473219597558	1473219597649	k	75
94813	1038491	Kay Mann is going to take the lead on this.	Kay Mann is going to take the lead on this.	49394737	1473219597696	1473219597778	e	69
94813	1038491	Kay Mann is going to take the lead on this.	Kay Mann is going to take the lead on this.	49394789	1473219597888	1473219597998	 	32
94813	1038491	Kay Mann is going to take the lead on this.	Kay Mann is going to take the lead on this.	49394791	1473219598519	1473219598608	t	84
94813	1038491	Kay Mann is going to take the lead on this.	Kay Mann is going to take the lead on this.	49394794	1473219598640	1473219598728	h	72
94813	1038491	Kay Mann is going to take the lead on this.	Kay Mann is going to take the lead on this.	49394795	1473219598800	1473219598883	e	69
94813	1038491	Kay Mann is going to take the lead on this.	Kay Mann is going to take the lead on this.	49394828	1473219598879	1473219598966	 	32
94813	1038491	Kay Mann is going to take the lead on this.	Kay Mann is going to take the lead on this.	49394831	1473219599078	1473219599151	l	76
94813	1038491	Kay Mann is going to take the lead on this.	Kay Mann is going to take the lead on this.	49394835	1473219599198	1473219599279	e	69
94813	1038491	Kay Mann is going to take the lead on this.	Kay Mann is going to take the lead on this.	49394839	1473219599418	1473219599528	a	65
94813	1038491	Kay Mann is going to take the lead on this.	Kay Mann is going to take the lead on this.	49394842	1473219599628	1473219599728	d	68
94813	1038491	Kay Mann is going to take the lead on this.	Kay Mann is going to take the lead on this.	49394871	1473219599708	1473219599818	 	32
94813	1038491	Kay Mann is going to take the lead on this.	Kay Mann is going to take the lead on this.	49394876	1473219599910	1473219599988	o	79
94813	1038491	Kay Mann is going to take the lead on this.	Kay Mann is going to take the lead on this.	49394881	1473219600079	1473219600158	n	78
94813	1038491	Kay Mann is going to take the lead on this.	Kay Mann is going to take the lead on this.	49394883	1473219600238	1473219600338	 	32
94813	1038491	Kay Mann is going to take the lead on this.	Kay Mann is going to take the lead on this.	49394886	1473219600346	1473219600428	t	84
94813	1038491	Kay Mann is going to take the lead on this.	Kay Mann is going to take the lead on this.	49394888	1473219600488	1473219600574	h	72
94813	1038491	Kay Mann is going to take the lead on this.	Kay Mann is going to take the lead on this.	49394974	1473219600658	1473219600748	i	73
94813	1038491	Kay Mann is going to take the lead on this.	Kay Mann is going to take the lead on this.	49394977	1473219600802	1473219600910	s	83
94813	1038491	Kay Mann is going to take the lead on this.	Kay Mann is going to take the lead on this.	49394981	1473219601793	1473219601905	/	191
94813	1038491	Kay Mann is going to take the lead on this.	Kay Mann is going to take the lead on this.	49394986	1473219602298	1473219602384	BKSP	8
94813	1038491	Kay Mann is going to take the lead on this.	Kay Mann is going to take the lead on this.	49394990	1473219602747	1473219602848	.	190
94813	1038503	I hope you feel better.	I hope you feel better.	49395153	1473219605668	1473219605808	SHIFT	16
94813	1038503	I hope you feel better.	I hope you feel better.	49395156	1473219605768	1473219605858	I	73
94813	1038503	I hope you feel better.	I hope you feel better.	49395159	1473219606009	1473219606058	 	32
94813	1038503	I hope you feel better.	I hope you feel better.	49395163	1473219606279	1473219606280	h	72
94813	1038503	I hope you feel better.	I hope you feel better.	49395167	1473219606408	1473219606409	o	79
94813	1038503	I hope you feel better.	I hope you feel better.	49395172	1473219606478	1473219606629	p	80
94813	1038503	I hope you feel better.	I hope you feel better.	49395194	1473219606632	1473219606680	e	69
94813	1038503	I hope you feel better.	I hope you feel better.	49395198	1473219606708	1473219606838	 	32
94813	1038503	I hope you feel better.	I hope you feel better.	49395202	1473219606878	1473219607058	y	89
94813	1038503	I hope you feel better.	I hope you feel better.	49395206	1473219607059	1473219607088	o	79
94813	1038503	I hope you feel better.	I hope you feel better.	49395212	1473219607270	1473219607278	u	85
94813	1038503	I hope you feel better.	I hope you feel better.	49395237	1473219607490	1473219607499	 	32
94813	1038503	I hope you feel better.	I hope you feel better.	49395242	1473219607499	1473219607738	f	70
94813	1038503	I hope you feel better.	I hope you feel better.	49395247	1473219607739	1473219607810	e	69
94813	1038503	I hope you feel better.	I hope you feel better.	49395250	1473219607888	1473219608041	e	69
94813	1038503	I hope you feel better.	I hope you feel better.	49395252	1473219608082	1473219608269	l	76
94813	1038503	I hope you feel better.	I hope you feel better.	49395286	1473219608328	1473219608478	 	32
94813	1038503	I hope you feel better.	I hope you feel better.	49395288	1473219608690	1473219608762	b	66
94813	1038503	I hope you feel better.	I hope you feel better.	49395293	1473219608788	1473219608907	e	69
94813	1038503	I hope you feel better.	I hope you feel better.	49395298	1473219608915	1473219609128	t	84
94813	1038503	I hope you feel better.	I hope you feel better.	49395302	1473219609129	1473219609178	t	84
94813	1038503	I hope you feel better.	I hope you feel better.	49395313	1473219609186	1473219609349	e	69
94813	1038503	I hope you feel better.	I hope you feel better.	49395315	1473219609366	1473219609579	r	82
94813	1038503	I hope you feel better.	I hope you feel better.	49395317	1473219609610	1473219609706	.	190
94813	1038510	The reigning Indy-car series champion will be among top contenders.	The reigning Indy-car series champion will be among top contenders.	49395488	1473219612320	1473219612528	SHIFT	16
94813	1038510	The reigning Indy-car series champion will be among top contenders.	The reigning Indy-car series champion will be among top contenders.	49395489	1473219612488	1473219612568	T	84
94813	1038510	The reigning Indy-car series champion will be among top contenders.	The reigning Indy-car series champion will be among top contenders.	49395492	1473219612719	1473219612806	h	72
94813	1038510	The reigning Indy-car series champion will be among top contenders.	The reigning Indy-car series champion will be among top contenders.	49395494	1473219612828	1473219612938	e	69
94813	1038510	The reigning Indy-car series champion will be among top contenders.	The reigning Indy-car series champion will be among top contenders.	49395496	1473219612996	1473219613078	 	32
94813	1038510	The reigning Indy-car series champion will be among top contenders.	The reigning Indy-car series champion will be among top contenders.	49395500	1473219613939	1473219614063	r	82
94813	1038510	The reigning Indy-car series champion will be among top contenders.	The reigning Indy-car series champion will be among top contenders.	49395575	1473219614208	1473219614338	e	69
94813	1038510	The reigning Indy-car series champion will be among top contenders.	The reigning Indy-car series champion will be among top contenders.	49395579	1473219614648	1473219614758	i	73
94813	1038510	The reigning Indy-car series champion will be among top contenders.	The reigning Indy-car series champion will be among top contenders.	49395584	1473219614832	1473219614948	g	71
94813	1038510	The reigning Indy-car series champion will be among top contenders.	The reigning Indy-car series champion will be among top contenders.	49395587	1473219615518	1473219615647	n	78
94813	1038510	The reigning Indy-car series champion will be among top contenders.	The reigning Indy-car series champion will be among top contenders.	49395591	1473219615788	1473219615905	i	73
94813	1038510	The reigning Indy-car series champion will be among top contenders.	The reigning Indy-car series champion will be among top contenders.	49395652	1473219615978	1473219616076	n	78
94813	1038510	The reigning Indy-car series champion will be among top contenders.	The reigning Indy-car series champion will be among top contenders.	49395657	1473219616817	1473219616928	g	71
94813	1038510	The reigning Indy-car series champion will be among top contenders.	The reigning Indy-car series champion will be among top contenders.	49395666	1473219616958	1473219617068	 	32
94813	1038510	The reigning Indy-car series champion will be among top contenders.	The reigning Indy-car series champion will be among top contenders.	49395672	1473219617228	1473219617575	SHIFT	16
94813	1038510	The reigning Indy-car series champion will be among top contenders.	The reigning Indy-car series champion will be among top contenders.	49395677	1473219617498	1473219617576	I	73
94813	1038510	The reigning Indy-car series champion will be among top contenders.	The reigning Indy-car series champion will be among top contenders.	49395681	1473219617688	1473219617786	n	78
94813	1038510	The reigning Indy-car series champion will be among top contenders.	The reigning Indy-car series champion will be among top contenders.	49395761	1473219617858	1473219617958	d	68
94813	1038510	The reigning Indy-car series champion will be among top contenders.	The reigning Indy-car series champion will be among top contenders.	49395763	1473219618168	1473219618278	y	89
94813	1038510	The reigning Indy-car series champion will be among top contenders.	The reigning Indy-car series champion will be among top contenders.	49395765	1473219618518	1473219618609	0	189
94813	1038510	The reigning Indy-car series champion will be among top contenders.	The reigning Indy-car series champion will be among top contenders.	49395767	1473219619418	1473219619498	BKSP	8
94813	1038510	The reigning Indy-car series champion will be among top contenders.	The reigning Indy-car series champion will be among top contenders.	49395769	1473219619799	1473219619889	c	67
94813	1038510	The reigning Indy-car series champion will be among top contenders.	The reigning Indy-car series champion will be among top contenders.	49395825	1473219619914	1473219619998	a	65
94813	1038510	The reigning Indy-car series champion will be among top contenders.	The reigning Indy-car series champion will be among top contenders.	49395827	1473219620018	1473219620080	r	82
94813	1038510	The reigning Indy-car series champion will be among top contenders.	The reigning Indy-car series champion will be among top contenders.	49395829	1473219620199	1473219620308	 	32
94813	1038510	The reigning Indy-car series champion will be among top contenders.	The reigning Indy-car series champion will be among top contenders.	49395832	1473219620999	1473219621118	s	83
94813	1038510	The reigning Indy-car series champion will be among top contenders.	The reigning Indy-car series champion will be among top contenders.	49395835	1473219621198	1473219621288	e	69
94813	1038510	The reigning Indy-car series champion will be among top contenders.	The reigning Indy-car series champion will be among top contenders.	49395865	1473219621358	1473219621448	r	82
94813	1038510	The reigning Indy-car series champion will be among top contenders.	The reigning Indy-car series champion will be among top contenders.	49395869	1473219621478	1473219621580	i	73
94813	1038510	The reigning Indy-car series champion will be among top contenders.	The reigning Indy-car series champion will be among top contenders.	49395873	1473219621643	1473219621748	e	69
94813	1038510	The reigning Indy-car series champion will be among top contenders.	The reigning Indy-car series champion will be among top contenders.	49395878	1473219621868	1473219621978	s	83
94813	1038510	The reigning Indy-car series champion will be among top contenders.	The reigning Indy-car series champion will be among top contenders.	49395883	1473219622359	1473219622418	 	32
94813	1038510	The reigning Indy-car series champion will be among top contenders.	The reigning Indy-car series champion will be among top contenders.	49395924	1473219622488	1473219622598	c	67
94813	1038510	The reigning Indy-car series champion will be among top contenders.	The reigning Indy-car series champion will be among top contenders.	49395927	1473219622648	1473219622729	h	72
94813	1038510	The reigning Indy-car series champion will be among top contenders.	The reigning Indy-car series champion will be among top contenders.	49395928	1473219622728	1473219622848	a	65
94813	1038510	The reigning Indy-car series champion will be among top contenders.	The reigning Indy-car series champion will be among top contenders.	49395929	1473219622968	1473219623078	m	77
94813	1038510	The reigning Indy-car series champion will be among top contenders.	The reigning Indy-car series champion will be among top contenders.	49395930	1473219623158	1473219623278	p	80
94813	1038510	The reigning Indy-car series champion will be among top contenders.	The reigning Indy-car series champion will be among top contenders.	49395967	1473219623418	1473219623518	i	73
94813	1038510	The reigning Indy-car series champion will be among top contenders.	The reigning Indy-car series champion will be among top contenders.	49395971	1473219623638	1473219623718	o	79
94813	1038510	The reigning Indy-car series champion will be among top contenders.	The reigning Indy-car series champion will be among top contenders.	49395976	1473219623838	1473219623948	n	78
94813	1038510	The reigning Indy-car series champion will be among top contenders.	The reigning Indy-car series champion will be among top contenders.	49395981	1473219624058	1473219624168	 	32
94813	1038510	The reigning Indy-car series champion will be among top contenders.	The reigning Indy-car series champion will be among top contenders.	49395985	1473219624438	1473219624538	w	87
94813	1038510	The reigning Indy-car series champion will be among top contenders.	The reigning Indy-car series champion will be among top contenders.	49396024	1473219624603	1473219624688	i	73
94813	1038510	The reigning Indy-car series champion will be among top contenders.	The reigning Indy-car series champion will be among top contenders.	49396029	1473219624798	1473219624896	l	76
94813	1038510	The reigning Indy-car series champion will be among top contenders.	The reigning Indy-car series champion will be among top contenders.	49396033	1473219624940	1473219625032	l	76
94813	1038510	The reigning Indy-car series champion will be among top contenders.	The reigning Indy-car series champion will be among top contenders.	49396036	1473219625138	1473219625240	 	32
94813	1038510	The reigning Indy-car series champion will be among top contenders.	The reigning Indy-car series champion will be among top contenders.	49396040	1473219625538	1473219625628	b	66
94813	1038510	The reigning Indy-car series champion will be among top contenders.	The reigning Indy-car series champion will be among top contenders.	49396065	1473219625648	1473219625748	e	69
94813	1038510	The reigning Indy-car series champion will be among top contenders.	The reigning Indy-car series champion will be among top contenders.	49396068	1473219625779	1473219625865	 	32
94813	1038510	The reigning Indy-car series champion will be among top contenders.	The reigning Indy-car series champion will be among top contenders.	49396073	1473219625958	1473219626059	a	65
94813	1038510	The reigning Indy-car series champion will be among top contenders.	The reigning Indy-car series champion will be among top contenders.	49396079	1473219626067	1473219626148	m	77
94813	1038510	The reigning Indy-car series champion will be among top contenders.	The reigning Indy-car series champion will be among top contenders.	49396087	1473219626236	1473219626328	o	79
94813	1038510	The reigning Indy-car series champion will be among top contenders.	The reigning Indy-car series champion will be among top contenders.	49396146	1473219626408	1473219626518	n	78
94813	1038510	The reigning Indy-car series champion will be among top contenders.	The reigning Indy-car series champion will be among top contenders.	49396150	1473219626608	1473219626708	g	71
94813	1038510	The reigning Indy-car series champion will be among top contenders.	The reigning Indy-car series champion will be among top contenders.	49396154	1473219626748	1473219626848	 	32
94813	1038510	The reigning Indy-car series champion will be among top contenders.	The reigning Indy-car series champion will be among top contenders.	49396157	1473219627758	1473219627859	t	84
94813	1038510	The reigning Indy-car series champion will be among top contenders.	The reigning Indy-car series champion will be among top contenders.	49396182	1473219627840	1473219627928	o	79
94813	1038510	The reigning Indy-car series champion will be among top contenders.	The reigning Indy-car series champion will be among top contenders.	49396185	1473219627996	1473219628108	p	80
94813	1038510	The reigning Indy-car series champion will be among top contenders.	The reigning Indy-car series champion will be among top contenders.	49396188	1473219628198	1473219628308	 	32
94813	1038510	The reigning Indy-car series champion will be among top contenders.	The reigning Indy-car series champion will be among top contenders.	49396192	1473219628370	1473219628418	c	67
94813	1038510	The reigning Indy-car series champion will be among top contenders.	The reigning Indy-car series champion will be among top contenders.	49396196	1473219628477	1473219628548	o	79
94813	1038510	The reigning Indy-car series champion will be among top contenders.	The reigning Indy-car series champion will be among top contenders.	49396200	1473219628639	1473219628748	n	78
94813	1038510	The reigning Indy-car series champion will be among top contenders.	The reigning Indy-car series champion will be among top contenders.	49396215	1473219628848	1473219628948	t	84
94813	1038510	The reigning Indy-car series champion will be among top contenders.	The reigning Indy-car series champion will be among top contenders.	49396219	1473219629004	1473219629088	e	69
94813	1038510	The reigning Indy-car series champion will be among top contenders.	The reigning Indy-car series champion will be among top contenders.	49396223	1473219629148	1473219629249	n	78
94813	1038510	The reigning Indy-car series champion will be among top contenders.	The reigning Indy-car series champion will be among top contenders.	49396227	1473219629278	1473219629378	d	68
94813	1038510	The reigning Indy-car series champion will be among top contenders.	The reigning Indy-car series champion will be among top contenders.	49396234	1473219629468	1473219629588	e	69
94813	1038510	The reigning Indy-car series champion will be among top contenders.	The reigning Indy-car series champion will be among top contenders.	49396262	1473219629638	1473219629718	r	82
94813	1038510	The reigning Indy-car series champion will be among top contenders.	The reigning Indy-car series champion will be among top contenders.	49396264	1473219629878	1473219629998	s	83
94813	1038510	The reigning Indy-car series champion will be among top contenders.	The reigning Indy-car series champion will be among top contenders.	49396266	1473219630126	1473219630238	.	190
94813	1038529	Davis was listed as questionable on the weekly injury report.	Davis was listed as questionable on the weekly injury report.	49396390	1473219632670	1473219633058	SHIFT	16
94813	1038529	Davis was listed as questionable on the weekly injury report.	Davis was listed as questionable on the weekly injury report.	49396393	1473219633018	1473219633108	D	68
94813	1038529	Davis was listed as questionable on the weekly injury report.	Davis was listed as questionable on the weekly injury report.	49396398	1473219633228	1473219633328	a	65
94813	1038529	Davis was listed as questionable on the weekly injury report.	Davis was listed as questionable on the weekly injury report.	49396403	1473219633298	1473219633398	v	86
94813	1038529	Davis was listed as questionable on the weekly injury report.	Davis was listed as questionable on the weekly injury report.	49396404	1473219633508	1473219633618	i	73
94813	1038529	Davis was listed as questionable on the weekly injury report.	Davis was listed as questionable on the weekly injury report.	49396405	1473219633668	1473219633778	s	83
94813	1038529	Davis was listed as questionable on the weekly injury report.	Davis was listed as questionable on the weekly injury report.	49396449	1473219633849	1473219633948	 	32
94813	1038529	Davis was listed as questionable on the weekly injury report.	Davis was listed as questionable on the weekly injury report.	49396454	1473219634158	1473219634243	w	87
94813	1038529	Davis was listed as questionable on the weekly injury report.	Davis was listed as questionable on the weekly injury report.	49396459	1473219634738	1473219634858	a	65
94813	1038529	Davis was listed as questionable on the weekly injury report.	Davis was listed as questionable on the weekly injury report.	49396461	1473219634928	1473219635048	s	83
94813	1038529	Davis was listed as questionable on the weekly injury report.	Davis was listed as questionable on the weekly injury report.	49396463	1473219635178	1473219635278	 	32
94813	1038529	Davis was listed as questionable on the weekly injury report.	Davis was listed as questionable on the weekly injury report.	49396484	1473219635428	1473219635538	l	76
94813	1038529	Davis was listed as questionable on the weekly injury report.	Davis was listed as questionable on the weekly injury report.	49396490	1473219635604	1473219635708	i	73
94813	1038529	Davis was listed as questionable on the weekly injury report.	Davis was listed as questionable on the weekly injury report.	49396497	1473219635716	1473219635828	s	83
94813	1038529	Davis was listed as questionable on the weekly injury report.	Davis was listed as questionable on the weekly injury report.	49396501	1473219635874	1473219635948	t	84
94813	1038529	Davis was listed as questionable on the weekly injury report.	Davis was listed as questionable on the weekly injury report.	49396505	1473219635998	1473219636089	e	69
94813	1038529	Davis was listed as questionable on the weekly injury report.	Davis was listed as questionable on the weekly injury report.	49396537	1473219636198	1473219636278	d	68
94813	1038529	Davis was listed as questionable on the weekly injury report.	Davis was listed as questionable on the weekly injury report.	49396540	1473219636378	1473219636468	 	32
94813	1038529	Davis was listed as questionable on the weekly injury report.	Davis was listed as questionable on the weekly injury report.	49396543	1473219636558	1473219636668	a	65
94813	1038529	Davis was listed as questionable on the weekly injury report.	Davis was listed as questionable on the weekly injury report.	49396545	1473219636778	1473219636886	s	83
94813	1038529	Davis was listed as questionable on the weekly injury report.	Davis was listed as questionable on the weekly injury report.	49396546	1473219636958	1473219637047	 	32
94813	1038529	Davis was listed as questionable on the weekly injury report.	Davis was listed as questionable on the weekly injury report.	49396598	1473219637439	1473219637528	q	81
94813	1038529	Davis was listed as questionable on the weekly injury report.	Davis was listed as questionable on the weekly injury report.	49396601	1473219637658	1473219637749	u	85
94813	1038529	Davis was listed as questionable on the weekly injury report.	Davis was listed as questionable on the weekly injury report.	49396603	1473219637828	1473219637908	e	69
94813	1038529	Davis was listed as questionable on the weekly injury report.	Davis was listed as questionable on the weekly injury report.	49396605	1473219638048	1473219638148	s	83
94813	1038529	Davis was listed as questionable on the weekly injury report.	Davis was listed as questionable on the weekly injury report.	49396608	1473219638156	1473219638258	t	84
94813	1038529	Davis was listed as questionable on the weekly injury report.	Davis was listed as questionable on the weekly injury report.	49396643	1473219638388	1473219638498	i	73
94813	1038529	Davis was listed as questionable on the weekly injury report.	Davis was listed as questionable on the weekly injury report.	49396645	1473219638566	1473219638658	o	79
94813	1038529	Davis was listed as questionable on the weekly injury report.	Davis was listed as questionable on the weekly injury report.	49396650	1473219638718	1473219638819	n	78
94813	1038529	Davis was listed as questionable on the weekly injury report.	Davis was listed as questionable on the weekly injury report.	49396654	1473219638818	1473219638918	a	65
94813	1038529	Davis was listed as questionable on the weekly injury report.	Davis was listed as questionable on the weekly injury report.	49396661	1473219638940	1473219639038	l	76
94813	1038529	Davis was listed as questionable on the weekly injury report.	Davis was listed as questionable on the weekly injury report.	49396738	1473219639488	1473219639578	BKSP	8
94813	1038529	Davis was listed as questionable on the weekly injury report.	Davis was listed as questionable on the weekly injury report.	49396742	1473219639758	1473219639848	b	66
94813	1038529	Davis was listed as questionable on the weekly injury report.	Davis was listed as questionable on the weekly injury report.	49396746	1473219639948	1473219640028	l	76
94813	1038529	Davis was listed as questionable on the weekly injury report.	Davis was listed as questionable on the weekly injury report.	49396747	1473219640068	1473219640159	e	69
94813	1038529	Davis was listed as questionable on the weekly injury report.	Davis was listed as questionable on the weekly injury report.	49396748	1473219640238	1473219640338	 	32
94813	1038529	Davis was listed as questionable on the weekly injury report.	Davis was listed as questionable on the weekly injury report.	49396750	1473219640778	1473219640851	o	79
94813	1038529	Davis was listed as questionable on the weekly injury report.	Davis was listed as questionable on the weekly injury report.	49396776	1473219640928	1473219641008	n	78
94813	1038529	Davis was listed as questionable on the weekly injury report.	Davis was listed as questionable on the weekly injury report.	49396780	1473219641098	1473219641218	 	32
94813	1038529	Davis was listed as questionable on the weekly injury report.	Davis was listed as questionable on the weekly injury report.	49396784	1473219641219	1473219641298	t	84
94813	1038529	Davis was listed as questionable on the weekly injury report.	Davis was listed as questionable on the weekly injury report.	49396788	1473219641338	1473219641428	h	72
94813	1038529	Davis was listed as questionable on the weekly injury report.	Davis was listed as questionable on the weekly injury report.	49396791	1473219641498	1473219641588	e	69
94813	1038529	Davis was listed as questionable on the weekly injury report.	Davis was listed as questionable on the weekly injury report.	49396853	1473219641628	1473219641738	 	32
94813	1038529	Davis was listed as questionable on the weekly injury report.	Davis was listed as questionable on the weekly injury report.	49396857	1473219641979	1473219642088	w	87
94813	1038529	Davis was listed as questionable on the weekly injury report.	Davis was listed as questionable on the weekly injury report.	49396859	1473219642178	1473219642280	e	69
94813	1038529	Davis was listed as questionable on the weekly injury report.	Davis was listed as questionable on the weekly injury report.	49396862	1473219642709	1473219642800	e	69
94813	1038529	Davis was listed as questionable on the weekly injury report.	Davis was listed as questionable on the weekly injury report.	49396866	1473219642928	1473219643030	k	75
94813	1038529	Davis was listed as questionable on the weekly injury report.	Davis was listed as questionable on the weekly injury report.	49397000	1473219643269	1473219643318	l	186
94813	1038529	Davis was listed as questionable on the weekly injury report.	Davis was listed as questionable on the weekly injury report.	49397004	1473219644239	1473219644348	BKSP	8
94813	1038529	Davis was listed as questionable on the weekly injury report.	Davis was listed as questionable on the weekly injury report.	49397011	1473219644408	1473219644528	BKSP	8
94813	1038529	Davis was listed as questionable on the weekly injury report.	Davis was listed as questionable on the weekly injury report.	49397018	1473219644988	1473219645068	l	76
94813	1038529	Davis was listed as questionable on the weekly injury report.	Davis was listed as questionable on the weekly injury report.	49397023	1473219645228	1473219645328	y	89
94813	1038529	Davis was listed as questionable on the weekly injury report.	Davis was listed as questionable on the weekly injury report.	49397030	1473219645468	1473219645584	 	32
94813	1038529	Davis was listed as questionable on the weekly injury report.	Davis was listed as questionable on the weekly injury report.	49397106	1473219645988	1473219646088	i	73
94813	1038529	Davis was listed as questionable on the weekly injury report.	Davis was listed as questionable on the weekly injury report.	49397108	1473219646126	1473219646259	n	78
94813	1038529	Davis was listed as questionable on the weekly injury report.	Davis was listed as questionable on the weekly injury report.	49397111	1473219646438	1473219646548	j	74
94813	1038529	Davis was listed as questionable on the weekly injury report.	Davis was listed as questionable on the weekly injury report.	49397114	1473219646708	1473219646818	u	85
94813	1038529	Davis was listed as questionable on the weekly injury report.	Davis was listed as questionable on the weekly injury report.	49397116	1473219646978	1473219647068	r	82
94813	1038529	Davis was listed as questionable on the weekly injury report.	Davis was listed as questionable on the weekly injury report.	49397170	1473219647098	1473219647178	y	89
94813	1038529	Davis was listed as questionable on the weekly injury report.	Davis was listed as questionable on the weekly injury report.	49397172	1473219647318	1473219647438	 	32
94813	1038529	Davis was listed as questionable on the weekly injury report.	Davis was listed as questionable on the weekly injury report.	49397174	1473219647698	1473219647808	r	82
94813	1038529	Davis was listed as questionable on the weekly injury report.	Davis was listed as questionable on the weekly injury report.	49397176	1473219647902	1473219648018	e	69
94813	1038529	Davis was listed as questionable on the weekly injury report.	Davis was listed as questionable on the weekly injury report.	49397177	1473219648019	1473219648118	p	80
94813	1038529	Davis was listed as questionable on the weekly injury report.	Davis was listed as questionable on the weekly injury report.	49397188	1473219648148	1473219648248	o	79
94813	1038529	Davis was listed as questionable on the weekly injury report.	Davis was listed as questionable on the weekly injury report.	49397189	1473219648256	1473219648368	r	82
94813	1038529	Davis was listed as questionable on the weekly injury report.	Davis was listed as questionable on the weekly injury report.	49397190	1473219648438	1473219648528	t	84
94813	1038529	Davis was listed as questionable on the weekly injury report.	Davis was listed as questionable on the weekly injury report.	49397191	1473219648558	1473219648658	.	190
94813	1038545	The directors see significant prospects for growth.	The directors see significant prospects for growth.	49397340	1473219651068	1473219651298	SHIFT	16
94813	1038545	The directors see significant prospects for growth.	The directors see significant prospects for growth.	49397343	1473219651259	1473219651348	T	84
94813	1038545	The directors see significant prospects for growth.	The directors see significant prospects for growth.	49397347	1473219651478	1473219651566	h	72
94813	1038545	The directors see significant prospects for growth.	The directors see significant prospects for growth.	49397350	1473219651563	1473219651668	e	69
94813	1038545	The directors see significant prospects for growth.	The directors see significant prospects for growth.	49397354	1473219651728	1473219651818	 	32
94813	1038545	The directors see significant prospects for growth.	The directors see significant prospects for growth.	49397358	1473219651835	1473219651946	d	68
94813	1038545	The directors see significant prospects for growth.	The directors see significant prospects for growth.	49397407	1473219652048	1473219652138	i	73
94813	1038545	The directors see significant prospects for growth.	The directors see significant prospects for growth.	49397409	1473219652228	1473219652328	r	82
94813	1038545	The directors see significant prospects for growth.	The directors see significant prospects for growth.	49397413	1473219652448	1473219652548	e	69
94813	1038545	The directors see significant prospects for growth.	The directors see significant prospects for growth.	49397416	1473219652738	1473219652839	c	67
94813	1038545	The directors see significant prospects for growth.	The directors see significant prospects for growth.	49397420	1473219653248	1473219653336	t	84
94813	1038545	The directors see significant prospects for growth.	The directors see significant prospects for growth.	49397470	1473219653589	1473219653668	o	79
94813	1038545	The directors see significant prospects for growth.	The directors see significant prospects for growth.	49397473	1473219653759	1473219653858	r	82
94813	1038545	The directors see significant prospects for growth.	The directors see significant prospects for growth.	49397475	1473219654068	1473219654188	s	83
94813	1038545	The directors see significant prospects for growth.	The directors see significant prospects for growth.	49397477	1473219654258	1473219654358	 	32
94813	1038545	The directors see significant prospects for growth.	The directors see significant prospects for growth.	49397480	1473219654538	1473219654650	s	83
94813	1038545	The directors see significant prospects for growth.	The directors see significant prospects for growth.	49397507	1473219654758	1473219654858	e	69
94813	1038545	The directors see significant prospects for growth.	The directors see significant prospects for growth.	49397509	1473219654898	1473219655028	e	69
94813	1038545	The directors see significant prospects for growth.	The directors see significant prospects for growth.	49397512	1473219655029	1473219655138	 	32
94813	1038545	The directors see significant prospects for growth.	The directors see significant prospects for growth.	49397515	1473219655198	1473219655278	s	83
94813	1038545	The directors see significant prospects for growth.	The directors see significant prospects for growth.	49397518	1473219655338	1473219655428	i	73
94813	1038545	The directors see significant prospects for growth.	The directors see significant prospects for growth.	49397575	1473219655508	1473219655598	g	71
94813	1038545	The directors see significant prospects for growth.	The directors see significant prospects for growth.	49397579	1473219655628	1473219655728	n	78
94813	1038545	The directors see significant prospects for growth.	The directors see significant prospects for growth.	49397586	1473219655800	1473219655888	i	73
94813	1038545	The directors see significant prospects for growth.	The directors see significant prospects for growth.	49397591	1473219655978	1473219656042	g	71
94813	1038545	The directors see significant prospects for growth.	The directors see significant prospects for growth.	49397595	1473219656388	1473219656488	BKSP	8
94813	1038545	The directors see significant prospects for growth.	The directors see significant prospects for growth.	49397598	1473219656529	1473219656618	f	70
94813	1038545	The directors see significant prospects for growth.	The directors see significant prospects for growth.	49397624	1473219656678	1473219656758	i	73
94813	1038545	The directors see significant prospects for growth.	The directors see significant prospects for growth.	49397627	1473219656838	1473219656958	c	67
94813	1038545	The directors see significant prospects for growth.	The directors see significant prospects for growth.	49397629	1473219657058	1473219657168	a	65
94813	1038545	The directors see significant prospects for growth.	The directors see significant prospects for growth.	49397632	1473219657228	1473219657308	n	78
94813	1038545	The directors see significant prospects for growth.	The directors see significant prospects for growth.	49397634	1473219657378	1473219657448	t	84
94813	1038545	The directors see significant prospects for growth.	The directors see significant prospects for growth.	49397710	1473219657528	1473219657608	 	32
94813	1038545	The directors see significant prospects for growth.	The directors see significant prospects for growth.	49397712	1473219658458	1473219658528	p	80
94813	1038545	The directors see significant prospects for growth.	The directors see significant prospects for growth.	49397714	1473219658578	1473219658668	r	82
94813	1038545	The directors see significant prospects for growth.	The directors see significant prospects for growth.	49397716	1473219659098	1473219659179	o	79
94813	1038545	The directors see significant prospects for growth.	The directors see significant prospects for growth.	49397719	1473219659243	1473219659358	s	83
94813	1038545	The directors see significant prospects for growth.	The directors see significant prospects for growth.	49397778	1473219659478	1473219659578	p	80
94813	1038545	The directors see significant prospects for growth.	The directors see significant prospects for growth.	49397781	1473219659979	1473219660048	e	69
94813	1038545	The directors see significant prospects for growth.	The directors see significant prospects for growth.	49397785	1473219660180	1473219660278	c	67
94813	1038545	The directors see significant prospects for growth.	The directors see significant prospects for growth.	49397790	1473219660298	1473219660398	t	84
94813	1038545	The directors see significant prospects for growth.	The directors see significant prospects for growth.	49397795	1473219660478	1473219660596	s	83
94813	1038545	The directors see significant prospects for growth.	The directors see significant prospects for growth.	49397844	1473219660648	1473219660756	 	32
94813	1038545	The directors see significant prospects for growth.	The directors see significant prospects for growth.	49397849	1473219661239	1473219661298	f	70
94813	1038545	The directors see significant prospects for growth.	The directors see significant prospects for growth.	49397852	1473219661358	1473219661458	o	79
94813	1038545	The directors see significant prospects for growth.	The directors see significant prospects for growth.	49397858	1473219661478	1473219661558	r	82
94813	1038545	The directors see significant prospects for growth.	The directors see significant prospects for growth.	49397861	1473219661609	1473219661718	 	32
94813	1038545	The directors see significant prospects for growth.	The directors see significant prospects for growth.	49397912	1473219661829	1473219661938	g	71
94813	1038545	The directors see significant prospects for growth.	The directors see significant prospects for growth.	49397914	1473219661969	1473219662078	r	82
94813	1038545	The directors see significant prospects for growth.	The directors see significant prospects for growth.	49397920	1473219662118	1473219662218	o	79
94813	1038545	The directors see significant prospects for growth.	The directors see significant prospects for growth.	49397925	1473219662571	1473219662678	w	87
94813	1038545	The directors see significant prospects for growth.	The directors see significant prospects for growth.	49397931	1473219662848	1473219662928	t	84
94813	1038545	The directors see significant prospects for growth.	The directors see significant prospects for growth.	49397960	1473219662958	1473219663048	h	72
94813	1038545	The directors see significant prospects for growth.	The directors see significant prospects for growth.	49397965	1473219663331	1473219663438	.	190
