PARTICIPANT_ID	TEST_SECTION_ID	SENTENCE	USER_INPUT	KEYSTROKE_ID	PRESS_TIME	RELEASE_TIME	LETTER	KEYCODE
95679	1047762	TXU is off, everyone else OK.	TXU is off, everyone else OK.	49835765	1473232038144	1473232039133	SHIFT	16
95679	1047762	TXU is off, everyone else OK.	TXU is off, everyone else OK.	49835758	1473232038428	1473232038500	T	84
95679	1047762	TXU is off, everyone else OK.	TXU is off, everyone else OK.	49835759	1473232038625	1473232038715	X	88
95679	1047762	TXU is off, everyone else OK.	TXU is off, everyone else OK.	49835761	1473232038824	1473232038876	U	85
95679	1047762	TXU is off, everyone else OK.	TXU is off, everyone else OK.	49835768	1473232039447	1473232039530	 	32
95679	1047762	TXU is off, everyone else OK.	TXU is off, everyone else OK.	49835772	1473232039789	1473232039873	i	73
95679	1047762	TXU is off, everyone else OK.	TXU is off, everyone else OK.	49835798	1473232039914	1473232039998	s	83
95679	1047762	TXU is off, everyone else OK.	TXU is off, everyone else OK.	49835802	1473232039998	1473232040110	 	32
95679	1047762	TXU is off, everyone else OK.	TXU is off, everyone else OK.	49835805	1473232040173	1473232040265	o	79
95679	1047762	TXU is off, everyone else OK.	TXU is off, everyone else OK.	49835810	1473232040289	1473232040357	f	70
95679	1047762	TXU is off, everyone else OK.	TXU is off, everyone else OK.	49835815	1473232040428	1473232040498	f	70
95679	1047762	TXU is off, everyone else OK.	TXU is off, everyone else OK.	49835832	1473232040538	1473232040632	,	188
95679	1047762	TXU is off, everyone else OK.	TXU is off, everyone else OK.	49835834	1473232040726	1473232040835	 	32
95679	1047762	TXU is off, everyone else OK.	TXU is off, everyone else OK.	49835836	1473232040976	1473232041063	e	69
95679	1047762	TXU is off, everyone else OK.	TXU is off, everyone else OK.	49835840	1473232041196	1473232041273	v	86
95679	1047762	TXU is off, everyone else OK.	TXU is off, everyone else OK.	49835844	1473232041383	1473232041436	e	69
95679	1047762	TXU is off, everyone else OK.	TXU is off, everyone else OK.	49835909	1473232041519	1473232041584	r	82
95679	1047762	TXU is off, everyone else OK.	TXU is off, everyone else OK.	49835911	1473232041567	1473232041633	y	89
95679	1047762	TXU is off, everyone else OK.	TXU is off, everyone else OK.	49835915	1473232042318	1473232042406	o	79
95679	1047762	TXU is off, everyone else OK.	TXU is off, everyone else OK.	49835919	1473232042484	1473232042580	n	78
95679	1047762	TXU is off, everyone else OK.	TXU is off, everyone else OK.	49835920	1473232042596	1473232042681	e	69
95679	1047762	TXU is off, everyone else OK.	TXU is off, everyone else OK.	49835923	1473232042681	1473232042782	 	32
95679	1047762	TXU is off, everyone else OK.	TXU is off, everyone else OK.	49835925	1473232042798	1473232042890	e	69
95679	1047762	TXU is off, everyone else OK.	TXU is off, everyone else OK.	49835930	1473232042921	1473232043009	l	76
95679	1047762	TXU is off, everyone else OK.	TXU is off, everyone else OK.	49835933	1473232043040	1473232043092	s	83
95679	1047762	TXU is off, everyone else OK.	TXU is off, everyone else OK.	49835935	1473232043185	1473232043266	e	69
95679	1047762	TXU is off, everyone else OK.	TXU is off, everyone else OK.	49835956	1473232043309	1473232043406	 	32
95679	1047762	TXU is off, everyone else OK.	TXU is off, everyone else OK.	49835961	1473232043437	1473232043909	SHIFT	16
95679	1047762	TXU is off, everyone else OK.	TXU is off, everyone else OK.	49835958	1473232043547	1473232043640	O	79
95679	1047762	TXU is off, everyone else OK.	TXU is off, everyone else OK.	49835960	1473232043742	1473232043815	K	75
95679	1047762	TXU is off, everyone else OK.	TXU is off, everyone else OK.	49835962	1473232044171	1473232044254	.	190
95679	1047775	You can have all the horsepower and it won't matter.	You can have all the horsepower and it won't matter	49836284	1473232050917	1473232051257	SHIFT	16
95679	1047775	You can have all the horsepower and it won't matter.	You can have all the horsepower and it won't matter	49836287	1473232051207	1473232051297	Y	89
95679	1047775	You can have all the horsepower and it won't matter.	You can have all the horsepower and it won't matter	49836291	1473232051277	1473232051363	o	79
95679	1047775	You can have all the horsepower and it won't matter.	You can have all the horsepower and it won't matter	49836294	1473232051457	1473232051548	u	85
95679	1047775	You can have all the horsepower and it won't matter.	You can have all the horsepower and it won't matter	49836298	1473232051563	1473232051663	 	32
95679	1047775	You can have all the horsepower and it won't matter.	You can have all the horsepower and it won't matter	49836302	1473232051726	1473232051869	c	67
95679	1047775	You can have all the horsepower and it won't matter.	You can have all the horsepower and it won't matter	49836330	1473232051813	1473232051932	a	65
95679	1047775	You can have all the horsepower and it won't matter.	You can have all the horsepower and it won't matter	49836335	1473232051914	1473232051998	n	78
95679	1047775	You can have all the horsepower and it won't matter.	You can have all the horsepower and it won't matter	49836340	1473232052060	1473232052128	 	32
95679	1047775	You can have all the horsepower and it won't matter.	You can have all the horsepower and it won't matter	49836344	1473232052229	1473232052313	h	72
95679	1047775	You can have all the horsepower and it won't matter.	You can have all the horsepower and it won't matter	49836348	1473232052313	1473232052364	a	65
95679	1047775	You can have all the horsepower and it won't matter.	You can have all the horsepower and it won't matter	49836352	1473232052445	1473232052516	v	86
95679	1047775	You can have all the horsepower and it won't matter.	You can have all the horsepower and it won't matter	49836366	1473232052626	1473232052698	e	69
95679	1047775	You can have all the horsepower and it won't matter.	You can have all the horsepower and it won't matter	49836369	1473232052714	1473232052797	 	32
95679	1047775	You can have all the horsepower and it won't matter.	You can have all the horsepower and it won't matter	49836372	1473232052797	1473232052881	a	65
95679	1047775	You can have all the horsepower and it won't matter.	You can have all the horsepower and it won't matter	49836375	1473232052912	1473232052968	l	76
95679	1047775	You can have all the horsepower and it won't matter.	You can have all the horsepower and it won't matter	49836378	1473232053048	1473232053115	l	76
95679	1047775	You can have all the horsepower and it won't matter.	You can have all the horsepower and it won't matter	49836382	1473232053150	1473232053269	 	32
95679	1047775	You can have all the horsepower and it won't matter.	You can have all the horsepower and it won't matter	49836383	1473232053269	1473232053340	t	84
95679	1047775	You can have all the horsepower and it won't matter.	You can have all the horsepower and it won't matter	49836386	1473232053340	1473232053430	h	72
95679	1047775	You can have all the horsepower and it won't matter.	You can have all the horsepower and it won't matter	49836390	1473232053461	1473232053516	e	69
95679	1047775	You can have all the horsepower and it won't matter.	You can have all the horsepower and it won't matter	49836393	1473232053547	1473232053646	 	32
95679	1047775	You can have all the horsepower and it won't matter.	You can have all the horsepower and it won't matter	49836424	1473232053741	1473232053829	h	72
95679	1047775	You can have all the horsepower and it won't matter.	You can have all the horsepower and it won't matter	49836427	1473232053938	1473232054034	o	79
95679	1047775	You can have all the horsepower and it won't matter.	You can have all the horsepower and it won't matter	49836432	1473232054011	1473232054066	r	82
95679	1047775	You can have all the horsepower and it won't matter.	You can have all the horsepower and it won't matter	49836439	1473232054157	1473232054231	e	69
95679	1047775	You can have all the horsepower and it won't matter.	You can have all the horsepower and it won't matter	49836447	1473232054334	1473232054388	s	83
95679	1047775	You can have all the horsepower and it won't matter.	You can have all the horsepower and it won't matter	49836505	1473232054494	1473232054564	e	69
95679	1047775	You can have all the horsepower and it won't matter.	You can have all the horsepower and it won't matter	49836507	1473232054869	1473232054990	BKSP	8
95679	1047775	You can have all the horsepower and it won't matter.	You can have all the horsepower and it won't matter	49836509	1473232055185	1473232055268	p	80
95679	1047775	You can have all the horsepower and it won't matter.	You can have all the horsepower and it won't matter	49836513	1473232055377	1473232055472	o	79
95679	1047775	You can have all the horsepower and it won't matter.	You can have all the horsepower and it won't matter	49836516	1473232055487	1473232055536	w	87
95679	1047775	You can have all the horsepower and it won't matter.	You can have all the horsepower and it won't matter	49836522	1473232055635	1473232055706	e	69
95679	1047775	You can have all the horsepower and it won't matter.	You can have all the horsepower and it won't matter	49836551	1473232055784	1473232055864	r	82
95679	1047775	You can have all the horsepower and it won't matter.	You can have all the horsepower and it won't matter	49836556	1473232055942	1473232056044	 	32
95679	1047775	You can have all the horsepower and it won't matter.	You can have all the horsepower and it won't matter	49836560	1473232056008	1473232056073	a	65
95679	1047775	You can have all the horsepower and it won't matter.	You can have all the horsepower and it won't matter	49836565	1473232056120	1473232056215	n	78
95679	1047775	You can have all the horsepower and it won't matter.	You can have all the horsepower and it won't matter	49836638	1473232056198	1473232056266	d	68
95679	1047775	You can have all the horsepower and it won't matter.	You can have all the horsepower and it won't matter	49836641	1473232056344	1473232056428	 	32
95679	1047775	You can have all the horsepower and it won't matter.	You can have all the horsepower and it won't matter	49836646	1473232056685	1473232057505	BKSP	8
95679	1047775	You can have all the horsepower and it won't matter.	You can have all the horsepower and it won't matter	49836649	1473232057783	1473232057837	BKSP	8
95679	1047775	You can have all the horsepower and it won't matter.	You can have all the horsepower and it won't matter	49836652	1473232058124	1473232058206	s	83
95679	1047775	You can have all the horsepower and it won't matter.	You can have all the horsepower and it won't matter	49836656	1473232058237	1473232058322	e	69
95679	1047775	You can have all the horsepower and it won't matter.	You can have all the horsepower and it won't matter	49836660	1473232058557	1473232058633	p	80
95679	1047775	You can have all the horsepower and it won't matter.	You can have all the horsepower and it won't matter	49836662	1473232058773	1473232058793	o	79
95679	1047775	You can have all the horsepower and it won't matter.	You can have all the horsepower and it won't matter	49836677	1473232059051	1473232059123	w	87
95679	1047775	You can have all the horsepower and it won't matter.	You can have all the horsepower and it won't matter	49836679	1473232059232	1473232059287	e	69
95679	1047775	You can have all the horsepower and it won't matter.	You can have all the horsepower and it won't matter	49836681	1473232059385	1473232059451	r	82
95679	1047775	You can have all the horsepower and it won't matter.	You can have all the horsepower and it won't matter	49836683	1473232059482	1473232059564	 	32
95679	1047775	You can have all the horsepower and it won't matter.	You can have all the horsepower and it won't matter	49836688	1473232059596	1473232059650	a	65
95679	1047775	You can have all the horsepower and it won't matter.	You can have all the horsepower and it won't matter	49836719	1473232059670	1473232059751	n	78
95679	1047775	You can have all the horsepower and it won't matter.	You can have all the horsepower and it won't matter	49836721	1473232059751	1473232059822	d	68
95679	1047775	You can have all the horsepower and it won't matter.	You can have all the horsepower and it won't matter	49836723	1473232059838	1473232059922	 	32
95679	1047775	You can have all the horsepower and it won't matter.	You can have all the horsepower and it won't matter	49836725	1473232060060	1473232060146	i	73
95679	1047775	You can have all the horsepower and it won't matter.	You can have all the horsepower and it won't matter	49836727	1473232060178	1473232060260	t	84
95679	1047775	You can have all the horsepower and it won't matter.	You can have all the horsepower and it won't matter	49836766	1473232060300	1473232060389	 	32
95679	1047775	You can have all the horsepower and it won't matter.	You can have all the horsepower and it won't matter	49836773	1473232060467	1473232060548	w	87
95679	1047775	You can have all the horsepower and it won't matter.	You can have all the horsepower and it won't matter	49836781	1473232060563	1473232060616	o	79
95679	1047775	You can have all the horsepower and it won't matter.	You can have all the horsepower and it won't matter	49836792	1473232060769	1473232060852	n	78
95679	1047775	You can have all the horsepower and it won't matter.	You can have all the horsepower and it won't matter	49836799	1473232061008	1473232061097	;	186
95679	1047775	You can have all the horsepower and it won't matter.	You can have all the horsepower and it won't matter	49836884	1473232061132	1473232061214	t	84
95679	1047775	You can have all the horsepower and it won't matter.	You can have all the horsepower and it won't matter	49836887	1473232061245	1473232061342	 	32
95679	1047775	You can have all the horsepower and it won't matter.	You can have all the horsepower and it won't matter	49836892	1473232061521	1473232061572	BKSP	8
95679	1047775	You can have all the horsepower and it won't matter.	You can have all the horsepower and it won't matter	49836896	1473232061683	1473232061721	BKSP	8
95679	1047775	You can have all the horsepower and it won't matter.	You can have all the horsepower and it won't matter	49836900	1473232061827	1473232061898	BKSP	8
95679	1047775	You can have all the horsepower and it won't matter.	You can have all the horsepower and it won't matter	49836906	1473232062086	1473232062180	BKSP	8
95679	1047775	You can have all the horsepower and it won't matter.	You can have all the horsepower and it won't matter	49836910	1473232062376	1473232062460	'	222
95679	1047775	You can have all the horsepower and it won't matter.	You can have all the horsepower and it won't matter	49836914	1473232062483	1473232062556	t	84
95679	1047775	You can have all the horsepower and it won't matter.	You can have all the horsepower and it won't matter	49836916	1473232062689	1473232062789	 	32
95679	1047775	You can have all the horsepower and it won't matter.	You can have all the horsepower and it won't matter	49837024	1473232063101	1473232063154	BKSP	8
95679	1047775	You can have all the horsepower and it won't matter.	You can have all the horsepower and it won't matter	49837029	1473232063252	1473232063326	BKSP	8
95679	1047775	You can have all the horsepower and it won't matter.	You can have all the horsepower and it won't matter	49837031	1473232063389	1473232063503	BKSP	8
95679	1047775	You can have all the horsepower and it won't matter.	You can have all the horsepower and it won't matter	49837034	1473232063651	1473232063723	n	78
95679	1047775	You can have all the horsepower and it won't matter.	You can have all the horsepower and it won't matter	49837037	1473232063816	1473232063897	'	186
95679	1047775	You can have all the horsepower and it won't matter.	You can have all the horsepower and it won't matter	49837041	1473232064038	1473232064144	BKSP	8
95679	1047775	You can have all the horsepower and it won't matter.	You can have all the horsepower and it won't matter	49837045	1473232064221	1473232064296	BKSP	8
95679	1047775	You can have all the horsepower and it won't matter.	You can have all the horsepower and it won't matter	49837048	1473232064377	1473232064409	BKSP	8
95679	1047775	You can have all the horsepower and it won't matter.	You can have all the horsepower and it won't matter	49837050	1473232065020	1473232065077	n	78
95679	1047775	You can have all the horsepower and it won't matter.	You can have all the horsepower and it won't matter	49837053	1473232065124	1473232065205	'	222
95679	1047775	You can have all the horsepower and it won't matter.	You can have all the horsepower and it won't matter	49837064	1473232065229	1473232065310	t	84
95679	1047775	You can have all the horsepower and it won't matter.	You can have all the horsepower and it won't matter	49837069	1473232065388	1473232065475	 	32
95679	1047775	You can have all the horsepower and it won't matter.	You can have all the horsepower and it won't matter	49837074	1473232065521	1473232065604	m	77
95679	1047775	You can have all the horsepower and it won't matter.	You can have all the horsepower and it won't matter	49837077	1473232065628	1473232065697	a	65
95679	1047775	You can have all the horsepower and it won't matter.	You can have all the horsepower and it won't matter	49837080	1473232065775	1473232065843	t	84
95679	1047775	You can have all the horsepower and it won't matter.	You can have all the horsepower and it won't matter	49837107	1473232065906	1473232065954	t	84
95679	1047775	You can have all the horsepower and it won't matter.	You can have all the horsepower and it won't matter	49837113	1473232066066	1473232066131	e	69
95679	1047775	You can have all the horsepower and it won't matter.	You can have all the horsepower and it won't matter	49837117	1473232066211	1473232066274	r	82
95679	1047801	Tell her to get my expense report done.	Tell her to get my expense report done.	49837384	1473232070863	1473232071138	SHIFT	16
95679	1047801	Tell her to get my expense report done.	Tell her to get my expense report done.	49837388	1473232071098	1473232071187	T	84
95679	1047801	Tell her to get my expense report done.	Tell her to get my expense report done.	49837391	1473232071297	1473232071380	e	69
95679	1047801	Tell her to get my expense report done.	Tell her to get my expense report done.	49837396	1473232071481	1473232071564	l	76
95679	1047801	Tell her to get my expense report done.	Tell her to get my expense report done.	49837402	1473232071627	1473232071709	l	76
95679	1047801	Tell her to get my expense report done.	Tell her to get my expense report done.	49837407	1473232071725	1473232071861	 	32
95679	1047801	Tell her to get my expense report done.	Tell her to get my expense report done.	49837419	1473232071904	1473232071991	h	72
95679	1047801	Tell her to get my expense report done.	Tell her to get my expense report done.	49837423	1473232071991	1473232072041	e	69
95679	1047801	Tell her to get my expense report done.	Tell her to get my expense report done.	49837426	1473232072135	1473232072214	r	82
95679	1047801	Tell her to get my expense report done.	Tell her to get my expense report done.	49837427	1473232072214	1473232072281	 	32
95679	1047801	Tell her to get my expense report done.	Tell her to get my expense report done.	49837428	1473232072312	1473232072381	t	84
95679	1047801	Tell her to get my expense report done.	Tell her to get my expense report done.	49837441	1473232072381	1473232072470	o	79
95679	1047801	Tell her to get my expense report done.	Tell her to get my expense report done.	49837444	1473232072448	1473232072554	 	32
95679	1047801	Tell her to get my expense report done.	Tell her to get my expense report done.	49837448	1473232072569	1473232072618	g	71
95679	1047801	Tell her to get my expense report done.	Tell her to get my expense report done.	49837452	1473232072728	1473232072780	e	69
95679	1047801	Tell her to get my expense report done.	Tell her to get my expense report done.	49837457	1473232072872	1473232072948	t	84
95679	1047801	Tell her to get my expense report done.	Tell her to get my expense report done.	49837467	1473232072948	1473232073047	 	32
95679	1047801	Tell her to get my expense report done.	Tell her to get my expense report done.	49837470	1473232073078	1473232073182	m	77
95679	1047801	Tell her to get my expense report done.	Tell her to get my expense report done.	49837472	1473232073159	1473232073214	y	89
95679	1047801	Tell her to get my expense report done.	Tell her to get my expense report done.	49837474	1473232073255	1473232073353	 	32
95679	1047801	Tell her to get my expense report done.	Tell her to get my expense report done.	49837476	1473232073416	1473232073468	e	69
95679	1047801	Tell her to get my expense report done.	Tell her to get my expense report done.	49837530	1473232073575	1473232073648	x	88
95679	1047801	Tell her to get my expense report done.	Tell her to get my expense report done.	49837533	1473232073773	1473232073823	[	219
95679	1047801	Tell her to get my expense report done.	Tell her to get my expense report done.	49837535	1473232074164	1473232074270	BKSP	8
95679	1047801	Tell her to get my expense report done.	Tell her to get my expense report done.	49837539	1473232074364	1473232074478	p	80
95679	1047801	Tell her to get my expense report done.	Tell her to get my expense report done.	49837540	1473232074494	1473232074575	e	69
95679	1047801	Tell her to get my expense report done.	Tell her to get my expense report done.	49837542	1473232074951	1473232075045	n	78
95679	1047801	Tell her to get my expense report done.	Tell her to get my expense report done.	49837556	1473232075096	1473232075164	s	83
95679	1047801	Tell her to get my expense report done.	Tell her to get my expense report done.	49837559	1473232075258	1473232075331	e	69
95679	1047801	Tell her to get my expense report done.	Tell her to get my expense report done.	49837561	1473232075362	1473232075498	 	32
95679	1047801	Tell her to get my expense report done.	Tell her to get my expense report done.	49837567	1473232075478	1473232075514	r	82
95679	1047801	Tell her to get my expense report done.	Tell her to get my expense report done.	49837573	1473232075606	1473232075661	e	69
95679	1047801	Tell her to get my expense report done.	Tell her to get my expense report done.	49837596	1473232075696	1473232075780	p	80
95679	1047801	Tell her to get my expense report done.	Tell her to get my expense report done.	49837600	1473232075874	1473232075994	o	79
95679	1047801	Tell her to get my expense report done.	Tell her to get my expense report done.	49837602	1473232075972	1473232076023	r	82
95679	1047801	Tell her to get my expense report done.	Tell her to get my expense report done.	49837606	1473232076109	1473232076195	t	84
95679	1047801	Tell her to get my expense report done.	Tell her to get my expense report done.	49837609	1473232076195	1473232076296	 	32
95679	1047801	Tell her to get my expense report done.	Tell her to get my expense report done.	49837646	1473232076339	1473232076418	d	68
95679	1047801	Tell her to get my expense report done.	Tell her to get my expense report done.	49837649	1473232076512	1473232076604	o	79
95679	1047801	Tell her to get my expense report done.	Tell her to get my expense report done.	49837652	1473232076703	1473232076797	n	78
95679	1047801	Tell her to get my expense report done.	Tell her to get my expense report done.	49837655	1473232076780	1473232076856	e	69
95679	1047801	Tell her to get my expense report done.	Tell her to get my expense report done.	49837657	1473232076926	1473232077010	.	190
95679	1047812	Can you do the Gallup contracts as well?	can you do the Gallup contracts as well?	49837879	1473232082212	1473232083072	SHIFT	16
95679	1047812	Can you do the Gallup contracts as well?	can you do the Gallup contracts as well?	49837881	1473232083088	1473232083171	c	67
95679	1047812	Can you do the Gallup contracts as well?	can you do the Gallup contracts as well?	49837883	1473232083171	1473232083286	a	65
95679	1047812	Can you do the Gallup contracts as well?	can you do the Gallup contracts as well?	49837885	1473232083286	1473232083410	n	78
95679	1047812	Can you do the Gallup contracts as well?	can you do the Gallup contracts as well?	49837888	1473232083582	1473232083663	 	32
95679	1047812	Can you do the Gallup contracts as well?	can you do the Gallup contracts as well?	49837891	1473232083867	1473232083986	y	89
95679	1047812	Can you do the Gallup contracts as well?	can you do the Gallup contracts as well?	49837924	1473232084062	1473232084147	o	79
95679	1047812	Can you do the Gallup contracts as well?	can you do the Gallup contracts as well?	49837928	1473232084257	1473232084330	u	85
95679	1047812	Can you do the Gallup contracts as well?	can you do the Gallup contracts as well?	49837930	1473232084346	1473232084453	 	32
95679	1047812	Can you do the Gallup contracts as well?	can you do the Gallup contracts as well?	49837933	1473232084484	1473232084551	d	68
95679	1047812	Can you do the Gallup contracts as well?	can you do the Gallup contracts as well?	49837937	1473232084582	1473232084663	o	79
95679	1047812	Can you do the Gallup contracts as well?	can you do the Gallup contracts as well?	49837934	1473232084663	1473232084758	 	32
95679	1047812	Can you do the Gallup contracts as well?	can you do the Gallup contracts as well?	49837938	1473232084773	1473232084862	t	84
95679	1047812	Can you do the Gallup contracts as well?	can you do the Gallup contracts as well?	49837944	1473232084902	1473232084968	h	72
95679	1047812	Can you do the Gallup contracts as well?	can you do the Gallup contracts as well?	49837951	1473232084983	1473232085036	e	69
95679	1047812	Can you do the Gallup contracts as well?	can you do the Gallup contracts as well?	49837957	1473232085056	1473232085169	 	32
95679	1047812	Can you do the Gallup contracts as well?	can you do the Gallup contracts as well?	49837986	1473232085282	1473232085638	SHIFT	16
95679	1047812	Can you do the Gallup contracts as well?	can you do the Gallup contracts as well?	49837987	1473232085605	1473232085703	G	71
95679	1047812	Can you do the Gallup contracts as well?	can you do the Gallup contracts as well?	49837989	1473232085812	1473232085939	a	65
95679	1047812	Can you do the Gallup contracts as well?	can you do the Gallup contracts as well?	49837991	1473232086018	1473232086088	l	76
95679	1047812	Can you do the Gallup contracts as well?	can you do the Gallup contracts as well?	49837994	1473232086153	1473232086238	l	76
95679	1047812	Can you do the Gallup contracts as well?	can you do the Gallup contracts as well?	49837997	1473232086363	1473232086431	u	85
95679	1047812	Can you do the Gallup contracts as well?	can you do the Gallup contracts as well?	49838044	1473232086599	1473232086648	[	80
95679	1047812	Can you do the Gallup contracts as well?	can you do the Gallup contracts as well?	49838048	1473232087102	1473232087172	BKSP	8
95679	1047812	Can you do the Gallup contracts as well?	can you do the Gallup contracts as well?	49838052	1473232087352	1473232087464	 	32
95679	1047812	Can you do the Gallup contracts as well?	can you do the Gallup contracts as well?	49838053	1473232087511	1473232087564	c	67
95679	1047812	Can you do the Gallup contracts as well?	can you do the Gallup contracts as well?	49838054	1473232087619	1473232087707	o	79
95679	1047812	Can you do the Gallup contracts as well?	can you do the Gallup contracts as well?	49838060	1473232087820	1473232087904	n	78
95679	1047812	Can you do the Gallup contracts as well?	can you do the Gallup contracts as well?	49838061	1473232087904	1473232087980	t	84
95679	1047812	Can you do the Gallup contracts as well?	can you do the Gallup contracts as well?	49838063	1473232088074	1473232088184	r	82
95679	1047812	Can you do the Gallup contracts as well?	can you do the Gallup contracts as well?	49838065	1473232088162	1473232088277	a	65
95679	1047812	Can you do the Gallup contracts as well?	can you do the Gallup contracts as well?	49838068	1473232088293	1473232088367	c	67
95679	1047812	Can you do the Gallup contracts as well?	can you do the Gallup contracts as well?	49838106	1473232088474	1473232088546	t	84
95679	1047812	Can you do the Gallup contracts as well?	can you do the Gallup contracts as well?	49838109	1473232088640	1473232088695	s	83
95679	1047812	Can you do the Gallup contracts as well?	can you do the Gallup contracts as well?	49838112	1473232088746	1473232088846	 	32
95679	1047812	Can you do the Gallup contracts as well?	can you do the Gallup contracts as well?	49838116	1473232088924	1473232088977	a	65
95679	1047812	Can you do the Gallup contracts as well?	can you do the Gallup contracts as well?	49838118	1473232089075	1473232089162	s	83
95679	1047812	Can you do the Gallup contracts as well?	can you do the Gallup contracts as well?	49838137	1473232089245	1473232089353	 	32
95679	1047812	Can you do the Gallup contracts as well?	can you do the Gallup contracts as well?	49838138	1473232089353	1473232089430	w	87
95679	1047812	Can you do the Gallup contracts as well?	can you do the Gallup contracts as well?	49838139	1473232089523	1473232089596	e	69
95679	1047812	Can you do the Gallup contracts as well?	can you do the Gallup contracts as well?	49838141	1473232089627	1473232089681	l	76
95679	1047812	Can you do the Gallup contracts as well?	can you do the Gallup contracts as well?	49838143	1473232089783	1473232089832	l	76
95679	1047812	Can you do the Gallup contracts as well?	can you do the Gallup contracts as well?	49838187	1473232089970	1473232090127	SHIFT	16
95679	1047812	Can you do the Gallup contracts as well?	can you do the Gallup contracts as well?	49838191	1473232090001	1473232090127	?	191
95679	1047824	Trip was good I presume?	Trip was good I presume?	49838330	1473232095522	1473232096379	SHIFT	16
95679	1047824	Trip was good I presume?	Trip was good I presume?	49838331	1473232096379	1473232096414	t	84
95679	1047824	Trip was good I presume?	Trip was good I presume?	49838332	1473232096525	1473232096601	r	82
95679	1047824	Trip was good I presume?	Trip was good I presume?	49838333	1473232096616	1473232096688	i	73
95679	1047824	Trip was good I presume?	Trip was good I presume?	49838334	1473232096813	1473232096880	p	80
95679	1047824	Trip was good I presume?	Trip was good I presume?	49838335	1473232096950	1473232097017	 	32
95679	1047824	Trip was good I presume?	Trip was good I presume?	49838399	1473232097563	1473232097670	BKSP	8
95679	1047824	Trip was good I presume?	Trip was good I presume?	49838401	1473232097748	1473232097821	BKSP	8
95679	1047824	Trip was good I presume?	Trip was good I presume?	49838403	1473232097899	1473232097971	BKSP	8
95679	1047824	Trip was good I presume?	Trip was good I presume?	49838406	1473232098041	1473232098113	BKSP	8
95679	1047824	Trip was good I presume?	Trip was good I presume?	49838409	1473232098191	1473232098247	BKSP	8
95679	1047824	Trip was good I presume?	Trip was good I presume?	49838412	1473232098310	1473232098364	BKSP	8
95679	1047824	Trip was good I presume?	Trip was good I presume?	49838415	1473232098399	1473232098546	SHIFT	16
95679	1047824	Trip was good I presume?	Trip was good I presume?	49838417	1473232098477	1473232098561	T	84
95679	1047824	Trip was good I presume?	Trip was good I presume?	49838418	1473232098649	1473232098744	r	82
95679	1047824	Trip was good I presume?	Trip was good I presume?	49838419	1473232098744	1473232098813	i	73
95679	1047824	Trip was good I presume?	Trip was good I presume?	49838420	1473232098923	1473232099004	p	80
95679	1047824	Trip was good I presume?	Trip was good I presume?	49838421	1473232099074	1473232099178	 	32
95679	1047824	Trip was good I presume?	Trip was good I presume?	49838423	1473232099218	1473232099319	w	87
95679	1047824	Trip was good I presume?	Trip was good I presume?	49838425	1473232099319	1473232099442	a	65
95679	1047824	Trip was good I presume?	Trip was good I presume?	49838427	1473232099419	1473232099535	s	83
95679	1047824	Trip was good I presume?	Trip was good I presume?	49838429	1473232099551	1473232099652	 	32
95679	1047824	Trip was good I presume?	Trip was good I presume?	49838431	1473232099684	1473232099771	g	71
95679	1047824	Trip was good I presume?	Trip was good I presume?	49838481	1473232099819	1473232099892	o	79
95679	1047824	Trip was good I presume?	Trip was good I presume?	49838484	1473232099978	1473232100063	o	79
95679	1047824	Trip was good I presume?	Trip was good I presume?	49838487	1473232100079	1473232100147	d	68
95679	1047824	Trip was good I presume?	Trip was good I presume?	49838489	1473232100280	1473232100363	 	32
95679	1047824	Trip was good I presume?	Trip was good I presume?	49838490	1473232100692	1473232100910	SHIFT	16
95679	1047824	Trip was good I presume?	Trip was good I presume?	49838500	1473232100804	1473232100910	I	73
95679	1047824	Trip was good I presume?	Trip was good I presume?	49838502	1473232100927	1473232101049	 	32
95679	1047824	Trip was good I presume?	Trip was good I presume?	49838504	1473232101127	1473232101213	p	80
95679	1047824	Trip was good I presume?	Trip was good I presume?	49838505	1473232101213	1473232101288	r	82
95679	1047824	Trip was good I presume?	Trip was good I presume?	49838506	1473232101397	1473232101449	e	69
95679	1047824	Trip was good I presume?	Trip was good I presume?	49838509	1473232101542	1473232101637	s	83
95679	1047824	Trip was good I presume?	Trip was good I presume?	49838534	1473232101703	1473232101790	u	85
95679	1047824	Trip was good I presume?	Trip was good I presume?	49838536	1473232101931	1473232102019	m	77
95679	1047824	Trip was good I presume?	Trip was good I presume?	49838539	1473232101970	1473232102019	,	188
95679	1047824	Trip was good I presume?	Trip was good I presume?	49838542	1473232102034	1473232102105	e	69
95679	1047824	Trip was good I presume?	Trip was good I presume?	49838545	1473232102426	1473232102492	BKSP	8
95679	1047824	Trip was good I presume?	Trip was good I presume?	49838548	1473232102556	1473232102629	BKSP	8
95679	1047824	Trip was good I presume?	Trip was good I presume?	49838553	1473232102715	1473232102796	e	69
95679	1047824	Trip was good I presume?	Trip was good I presume?	49838560	1473232102864	1473232103029	SHIFT	16
95679	1047824	Trip was good I presume?	Trip was good I presume?	49838564	1473232102966	1473232103060	?	191
95679	1047831	his will be hard.	his will be hard.	49838730	1473232107405	1473232107601	SHIFT	16
95679	1047831	his will be hard.	his will be hard.	49838731	1473232108195	1473232108279	h	72
95679	1047831	his will be hard.	his will be hard.	49838732	1473232108373	1473232108441	i	73
95679	1047831	his will be hard.	his will be hard.	49838733	1473232108488	1473232108563	s	83
95679	1047831	his will be hard.	his will be hard.	49838735	1473232108579	1473232108662	 	32
95679	1047831	his will be hard.	his will be hard.	49838738	1473232108693	1473232108762	w	87
95679	1047831	his will be hard.	his will be hard.	49838767	1473232108746	1473232108809	i	73
95679	1047831	his will be hard.	his will be hard.	49838769	1473232108941	1473232109012	l	76
95679	1047831	his will be hard.	his will be hard.	49838771	1473232109074	1473232109142	l	76
95679	1047831	his will be hard.	his will be hard.	49838772	1473232109232	1473232109352	 	32
95679	1047831	his will be hard.	his will be hard.	49838773	1473232109445	1473232109545	b	66
95679	1047831	his will be hard.	his will be hard.	49838774	1473232109568	1473232109634	e	69
95679	1047831	his will be hard.	his will be hard.	49838780	1473232109669	1473232109772	 	32
95679	1047831	his will be hard.	his will be hard.	49838782	1473232109819	1473232109952	h	72
95679	1047831	his will be hard.	his will be hard.	49838785	1473232109935	1473232110058	a	65
95679	1047831	his will be hard.	his will be hard.	49838791	1473232110023	1473232110096	r	82
95679	1047831	his will be hard.	his will be hard.	49838792	1473232110189	1473232110298	d	68
95679	1047831	his will be hard.	his will be hard.	49838798	1473232110349	1473232110421	.	190
95679	1047839	We will keep you posted.	We will keep you posted.	49838956	1473232115105	1473232115266	SHIFT	16
95679	1047839	We will keep you posted.	We will keep you posted.	49838958	1473232115215	1473232115303	W	87
95679	1047839	We will keep you posted.	We will keep you posted.	49838960	1473232115412	1473232115503	e	69
95679	1047839	We will keep you posted.	We will keep you posted.	49838963	1473232115550	1473232115652	 	32
95679	1047839	We will keep you posted.	We will keep you posted.	49838966	1473232115668	1473232115753	w	87
95679	1047839	We will keep you posted.	We will keep you posted.	49838971	1473232115769	1473232115845	i	73
95679	1047839	We will keep you posted.	We will keep you posted.	49838993	1473232115974	1473232116029	l	76
95679	1047839	We will keep you posted.	We will keep you posted.	49838996	1473232116092	1473232116171	l	76
95679	1047839	We will keep you posted.	We will keep you posted.	49839000	1473232116186	1473232116285	 	32
95679	1047839	We will keep you posted.	We will keep you posted.	49839005	1473232116301	1473232116371	k	75
95679	1047839	We will keep you posted.	We will keep you posted.	49839010	1473232116387	1473232116454	e	69
95679	1047839	We will keep you posted.	We will keep you posted.	49839015	1473232116544	1473232116593	e	69
95679	1047839	We will keep you posted.	We will keep you posted.	49839019	1473232116593	1473232116641	p	80
95679	1047839	We will keep you posted.	We will keep you posted.	49839022	1473232116675	1473232116773	 	32
95679	1047839	We will keep you posted.	We will keep you posted.	49839026	1473232116859	1473232116931	y	89
95679	1047839	We will keep you posted.	We will keep you posted.	49839058	1473232116913	1473232116995	o	79
95679	1047839	We will keep you posted.	We will keep you posted.	49839062	1473232117089	1473232117162	u	85
95679	1047839	We will keep you posted.	We will keep you posted.	49839065	1473232117162	1473232117269	 	32
95679	1047839	We will keep you posted.	We will keep you posted.	49839068	1473232117347	1473232117421	p	80
95679	1047839	We will keep you posted.	We will keep you posted.	49839071	1473232117515	1473232117619	o	79
95679	1047839	We will keep you posted.	We will keep you posted.	49839074	1473232117619	1473232117675	s	83
95679	1047839	We will keep you posted.	We will keep you posted.	49839087	1473232117750	1473232117821	t	84
95679	1047839	We will keep you posted.	We will keep you posted.	49839089	1473232117931	1473232117986	e	69
95679	1047839	We will keep you posted.	We will keep you posted.	49839093	1473232118067	1473232118145	d	68
95679	1047839	We will keep you posted.	We will keep you posted.	49839094	1473232118177	1473232118293	.	190
95679	1047847	He is recovering from a left knee injury.	He is recovering from a left knee injury	49839351	1473232124270	1473232124516	SHIFT	16
95679	1047847	He is recovering from a left knee injury.	He is recovering from a left knee injury	49839353	1473232124497	1473232124562	H	72
95679	1047847	He is recovering from a left knee injury.	He is recovering from a left knee injury	49839356	1473232124629	1473232124713	e	69
95679	1047847	He is recovering from a left knee injury.	He is recovering from a left knee injury	49839359	1473232124691	1473232124789	 	32
95679	1047847	He is recovering from a left knee injury.	He is recovering from a left knee injury	49839362	1473232124984	1473232125094	i	73
95679	1047847	He is recovering from a left knee injury.	He is recovering from a left knee injury	49839366	1473232125141	1473232125236	s	83
95679	1047847	He is recovering from a left knee injury.	He is recovering from a left knee injury	49839384	1473232125236	1473232125336	 	32
95679	1047847	He is recovering from a left knee injury.	He is recovering from a left knee injury	49839390	1473232125414	1473232125468	r	82
95679	1047847	He is recovering from a left knee injury.	He is recovering from a left knee injury	49839399	1473232125586	1473232125642	e	69
95679	1047847	He is recovering from a left knee injury.	He is recovering from a left knee injury	49839403	1473232125751	1473232125804	c	67
95679	1047847	He is recovering from a left knee injury.	He is recovering from a left knee injury	49839407	1473232125852	1473232125948	o	79
95679	1047847	He is recovering from a left knee injury.	He is recovering from a left knee injury	49839424	1473232125983	1473232126033	v	86
95679	1047847	He is recovering from a left knee injury.	He is recovering from a left knee injury	49839426	1473232126144	1473232126236	e	69
95679	1047847	He is recovering from a left knee injury.	He is recovering from a left knee injury	49839428	1473232126338	1473232126432	r	82
95679	1047847	He is recovering from a left knee injury.	He is recovering from a left knee injury	49839430	1473232126432	1473232126504	i	73
95679	1047847	He is recovering from a left knee injury.	He is recovering from a left knee injury	49839432	1473232126602	1473232126719	n	78
95679	1047847	He is recovering from a left knee injury.	He is recovering from a left knee injury	49839452	1473232126719	1473232126787	g	71
95679	1047847	He is recovering from a left knee injury.	He is recovering from a left knee injury	49839453	1473232126787	1473232126887	 	32
95679	1047847	He is recovering from a left knee injury.	He is recovering from a left knee injury	49839454	1473232126919	1473232126967	f	70
95679	1047847	He is recovering from a left knee injury.	He is recovering from a left knee injury	49839455	1473232127078	1473232127127	r	82
95679	1047847	He is recovering from a left knee injury.	He is recovering from a left knee injury	49839456	1473232127127	1473232127190	o	79
95679	1047847	He is recovering from a left knee injury.	He is recovering from a left knee injury	49839473	1473232127303	1473232127398	m	77
95679	1047847	He is recovering from a left knee injury.	He is recovering from a left knee injury	49839477	1473232127414	1473232127510	 	32
95679	1047847	He is recovering from a left knee injury.	He is recovering from a left knee injury	49839479	1473232127654	1473232127734	a	65
95679	1047847	He is recovering from a left knee injury.	He is recovering from a left knee injury	49839481	1473232127767	1473232127862	 	32
95679	1047847	He is recovering from a left knee injury.	He is recovering from a left knee injury	49839483	1473232127958	1473232128054	l	76
95679	1047847	He is recovering from a left knee injury.	He is recovering from a left knee injury	49839507	1473232128037	1473232128103	e	69
95679	1047847	He is recovering from a left knee injury.	He is recovering from a left knee injury	49839509	1473232128197	1473232128250	f	70
95679	1047847	He is recovering from a left knee injury.	He is recovering from a left knee injury	49839511	1473232128341	1473232128416	t	84
95679	1047847	He is recovering from a left knee injury.	He is recovering from a left knee injury	49839513	1473232128416	1473232128519	 	32
95679	1047847	He is recovering from a left knee injury.	He is recovering from a left knee injury	49839516	1473232128534	1473232128619	k	75
95679	1047847	He is recovering from a left knee injury.	He is recovering from a left knee injury	49839518	1473232128721	1473232128810	n	78
95679	1047847	He is recovering from a left knee injury.	He is recovering from a left knee injury	49839546	1473232128846	1473232128912	e	69
95679	1047847	He is recovering from a left knee injury.	He is recovering from a left knee injury	49839551	1473232128990	1473232129045	e	69
95679	1047847	He is recovering from a left knee injury.	He is recovering from a left knee injury	49839554	1473232129112	1473232129211	 	32
95679	1047847	He is recovering from a left knee injury.	He is recovering from a left knee injury	49839558	1473232129273	1473232129356	i	73
95679	1047847	He is recovering from a left knee injury.	He is recovering from a left knee injury	49839561	1473232129467	1473232129556	n	78
95679	1047847	He is recovering from a left knee injury.	He is recovering from a left knee injury	49839603	1473232129669	1473232129752	j	74
95679	1047847	He is recovering from a left knee injury.	He is recovering from a left knee injury	49839605	1473232129838	1473232129941	u	85
95679	1047847	He is recovering from a left knee injury.	He is recovering from a left knee injury	49839610	1473232130277	1473232130361	r	82
95679	1047847	He is recovering from a left knee injury.	He is recovering from a left knee injury	49839613	1473232130439	1473232130528	y	89
95679	1047857	Are you going to call?	Are you going to call?	49839841	1473232136142	1473232136418	SHIFT	16
95679	1047857	Are you going to call?	Are you going to call?	49839844	1473232136368	1473232136468	A	65
95679	1047857	Are you going to call?	Are you going to call?	49839847	1473232136530	1473232136602	r	82
95679	1047857	Are you going to call?	Are you going to call?	49839850	1473232136688	1473232136776	e	69
95679	1047857	Are you going to call?	Are you going to call?	49839855	1473232136808	1473232136890	 	32
95679	1047857	Are you going to call?	Are you going to call?	49839859	1473232136905	1473232136989	y	89
95679	1047857	Are you going to call?	Are you going to call?	49839894	1473232136997	1473232137062	o	79
95679	1047857	Are you going to call?	Are you going to call?	49839896	1473232137224	1473232137307	 	32
95679	1047857	Are you going to call?	Are you going to call?	49839899	1473232137745	1473232137844	BKSP	8
95679	1047857	Are you going to call?	Are you going to call?	49839900	1473232137937	1473232138031	u	85
95679	1047857	Are you going to call?	Are you going to call?	49839901	1473232138047	1473232138136	 	32
95679	1047857	Are you going to call?	Are you going to call?	49839902	1473232138198	1473232138270	g	71
95679	1047857	Are you going to call?	Are you going to call?	49839923	1473232138291	1473232138352	o	79
95679	1047857	Are you going to call?	Are you going to call?	49839928	1473232138626	1473232138711	i	73
95679	1047857	Are you going to call?	Are you going to call?	49839932	1473232138833	1473232138898	n	78
95679	1047857	Are you going to call?	Are you going to call?	49839936	1473232138930	1473232138995	g	71
95679	1047857	Are you going to call?	Are you going to call?	49839940	1473232138995	1473232139078	 	32
95679	1047857	Are you going to call?	Are you going to call?	49839968	1473232139121	1473232139204	t	84
95679	1047857	Are you going to call?	Are you going to call?	49839973	1473232139186	1473232139272	o	79
95679	1047857	Are you going to call?	Are you going to call?	49839976	1473232139253	1473232139360	 	32
95679	1047857	Are you going to call?	Are you going to call?	49839979	1473232139423	1473232139499	c	67
95679	1047857	Are you going to call?	Are you going to call?	49839982	1473232139577	1473232139665	a	65
95679	1047857	Are you going to call?	Are you going to call?	49839990	1473232139697	1473232139763	l	76
95679	1047857	Are you going to call?	Are you going to call?	49839993	1473232139833	1473232139902	l	76
95679	1047857	Are you going to call?	Are you going to call?	49839995	1473232140005	1473232140152	SHIFT	16
95679	1047857	Are you going to call?	Are you going to call?	49839997	1473232140067	1473232140152	?	191
95679	1047866	We are heartened by the many notes of care and concern.	We are heartened by the many notes of care and concern.	49840153	1473232145185	1473232145519	SHIFT	16
95679	1047866	We are heartened by the many notes of care and concern.	We are heartened by the many notes of care and concern.	49840156	1473232145432	1473232145534	W	87
95679	1047866	We are heartened by the many notes of care and concern.	We are heartened by the many notes of care and concern.	49840160	1473232145612	1473232145701	e	69
95679	1047866	We are heartened by the many notes of care and concern.	We are heartened by the many notes of care and concern.	49840164	1473232145748	1473232145851	 	32
95679	1047866	We are heartened by the many notes of care and concern.	We are heartened by the many notes of care and concern.	49840168	1473232145897	1473232145969	a	65
95679	1047866	We are heartened by the many notes of care and concern.	We are heartened by the many notes of care and concern.	49840173	1473232146008	1473232146085	r	82
95679	1047866	We are heartened by the many notes of care and concern.	We are heartened by the many notes of care and concern.	49840186	1473232146167	1473232146252	e	69
95679	1047866	We are heartened by the many notes of care and concern.	We are heartened by the many notes of care and concern.	49840193	1473232146268	1473232146375	 	32
95679	1047866	We are heartened by the many notes of care and concern.	We are heartened by the many notes of care and concern.	49840199	1473232146463	1473232146555	h	72
95679	1047866	We are heartened by the many notes of care and concern.	We are heartened by the many notes of care and concern.	49840204	1473232146535	1473232146641	e	69
95679	1047866	We are heartened by the many notes of care and concern.	We are heartened by the many notes of care and concern.	49840215	1473232146603	1473232146740	a	65
95679	1047866	We are heartened by the many notes of care and concern.	We are heartened by the many notes of care and concern.	49840218	1473232146724	1473232146802	r	82
95679	1047866	We are heartened by the many notes of care and concern.	We are heartened by the many notes of care and concern.	49840221	1473232146880	1473232146945	t	84
95679	1047866	We are heartened by the many notes of care and concern.	We are heartened by the many notes of care and concern.	49840224	1473232147023	1473232147103	e	69
95679	1047866	We are heartened by the many notes of care and concern.	We are heartened by the many notes of care and concern.	49840229	1473232147119	1473232147233	n	78
95679	1047866	We are heartened by the many notes of care and concern.	We are heartened by the many notes of care and concern.	49840232	1473232147265	1473232147336	e	69
95679	1047866	We are heartened by the many notes of care and concern.	We are heartened by the many notes of care and concern.	49840284	1473232147449	1473232147530	d	68
95679	1047866	We are heartened by the many notes of care and concern.	We are heartened by the many notes of care and concern.	49840287	1473232147765	1473232147891	 	32
95679	1047866	We are heartened by the many notes of care and concern.	We are heartened by the many notes of care and concern.	49840293	1473232147969	1473232148052	b	66
95679	1047866	We are heartened by the many notes of care and concern.	We are heartened by the many notes of care and concern.	49840296	1473232148702	1473232148792	y	89
95679	1047866	We are heartened by the many notes of care and concern.	We are heartened by the many notes of care and concern.	49840299	1473232148828	1473232148898	 	32
95679	1047866	We are heartened by the many notes of care and concern.	We are heartened by the many notes of care and concern.	49840516	1473232148900	1473232148974	t	84
95679	1047866	We are heartened by the many notes of care and concern.	We are heartened by the many notes of care and concern.	49840520	1473232148989	1473232149075	h	72
95679	1047866	We are heartened by the many notes of care and concern.	We are heartened by the many notes of care and concern.	49840525	1473232149091	1473232149185	e	69
95679	1047866	We are heartened by the many notes of care and concern.	We are heartened by the many notes of care and concern.	49840529	1473232149192	1473232149261	 	32
95679	1047866	We are heartened by the many notes of care and concern.	We are heartened by the many notes of care and concern.	49840534	1473232149354	1473232149441	m	77
95679	1047866	We are heartened by the many notes of care and concern.	We are heartened by the many notes of care and concern.	49840615	1473232149547	1473232149602	n	78
95679	1047866	We are heartened by the many notes of care and concern.	We are heartened by the many notes of care and concern.	49840617	1473232149932	1473232150049	BKSP	8
95679	1047866	We are heartened by the many notes of care and concern.	We are heartened by the many notes of care and concern.	49840618	1473232150071	1473232150159	a	65
95679	1047866	We are heartened by the many notes of care and concern.	We are heartened by the many notes of care and concern.	49840619	1473232150323	1473232150394	y	89
95679	1047866	We are heartened by the many notes of care and concern.	We are heartened by the many notes of care and concern.	49840620	1473232150504	1473232150608	 	32
95679	1047866	We are heartened by the many notes of care and concern.	We are heartened by the many notes of care and concern.	49840621	1473232150804	1473232150885	BKSP	8
95679	1047866	We are heartened by the many notes of care and concern.	We are heartened by the many notes of care and concern.	49840622	1473232150971	1473232151044	BKSP	8
95679	1047866	We are heartened by the many notes of care and concern.	We are heartened by the many notes of care and concern.	49840623	1473232151169	1473232151252	n	78
95679	1047866	We are heartened by the many notes of care and concern.	We are heartened by the many notes of care and concern.	49840631	1473232151252	1473232151344	y	89
95679	1047866	We are heartened by the many notes of care and concern.	We are heartened by the many notes of care and concern.	49840633	1473232151375	1473232151456	 	32
95679	1047866	We are heartened by the many notes of care and concern.	We are heartened by the many notes of care and concern.	49840638	1473232151487	1473232151569	n	78
95679	1047866	We are heartened by the many notes of care and concern.	We are heartened by the many notes of care and concern.	49840643	1473232151686	1473232151771	o	79
95679	1047866	We are heartened by the many notes of care and concern.	We are heartened by the many notes of care and concern.	49840687	1473232151753	1473232151836	t	84
95679	1047866	We are heartened by the many notes of care and concern.	We are heartened by the many notes of care and concern.	49840690	1473232151945	1473232152012	e	69
95679	1047866	We are heartened by the many notes of care and concern.	We are heartened by the many notes of care and concern.	49840693	1473232152113	1473232152194	s	83
95679	1047866	We are heartened by the many notes of care and concern.	We are heartened by the many notes of care and concern.	49840697	1473232152194	1473232152277	 	32
95679	1047866	We are heartened by the many notes of care and concern.	We are heartened by the many notes of care and concern.	49840702	1473232152293	1473232152416	o	79
95679	1047866	We are heartened by the many notes of care and concern.	We are heartened by the many notes of care and concern.	49840706	1473232152416	1473232152465	f	70
95679	1047866	We are heartened by the many notes of care and concern.	We are heartened by the many notes of care and concern.	49840721	1473232152481	1473232152585	 	32
95679	1047866	We are heartened by the many notes of care and concern.	We are heartened by the many notes of care and concern.	49840724	1473232152616	1473232152726	c	67
95679	1047866	We are heartened by the many notes of care and concern.	We are heartened by the many notes of care and concern.	49840728	1473232152726	1473232152810	a	65
95679	1047866	We are heartened by the many notes of care and concern.	We are heartened by the many notes of care and concern.	49840732	1473232152857	1473232152908	r	82
95679	1047866	We are heartened by the many notes of care and concern.	We are heartened by the many notes of care and concern.	49840737	1473232152994	1473232153085	e	69
95679	1047866	We are heartened by the many notes of care and concern.	We are heartened by the many notes of care and concern.	49840743	1473232153104	1473232153208	 	32
95679	1047866	We are heartened by the many notes of care and concern.	We are heartened by the many notes of care and concern.	49840747	1473232153208	1473232153278	a	65
95679	1047866	We are heartened by the many notes of care and concern.	We are heartened by the many notes of care and concern.	49840751	1473232153294	1473232153383	n	78
95679	1047866	We are heartened by the many notes of care and concern.	We are heartened by the many notes of care and concern.	49840754	1473232153361	1473232153429	d	68
95679	1047866	We are heartened by the many notes of care and concern.	We are heartened by the many notes of care and concern.	49840757	1473232153499	1473232153564	 	32
95679	1047866	We are heartened by the many notes of care and concern.	We are heartened by the many notes of care and concern.	49840803	1473232153671	1473232153756	c	67
95679	1047866	We are heartened by the many notes of care and concern.	We are heartened by the many notes of care and concern.	49840804	1473232153756	1473232153836	o	79
95679	1047866	We are heartened by the many notes of care and concern.	We are heartened by the many notes of care and concern.	49840805	1473232153945	1473232154048	n	78
95679	1047866	We are heartened by the many notes of care and concern.	We are heartened by the many notes of care and concern.	49840807	1473232154027	1473232154080	c	67
95679	1047866	We are heartened by the many notes of care and concern.	We are heartened by the many notes of care and concern.	49840809	1473232154196	1473232154245	e	69
95679	1047866	We are heartened by the many notes of care and concern.	We are heartened by the many notes of care and concern.	49840844	1473232154352	1473232154435	r	82
95679	1047866	We are heartened by the many notes of care and concern.	We are heartened by the many notes of care and concern.	49840846	1473232154450	1473232154551	n	78
95679	1047866	We are heartened by the many notes of care and concern.	We are heartened by the many notes of care and concern.	49840848	1473232154723	1473232154806	.	190
95679	1047881	Things are crazy for sure!	Things are crazy for sure!	49841098	1473232168272	1473232168910	SHIFT	16
95679	1047881	Things are crazy for sure!	Things are crazy for sure!	49841101	1473232168877	1473232168960	T	84
95679	1047881	Things are crazy for sure!	Things are crazy for sure!	49841104	1473232168976	1473232169044	h	72
95679	1047881	Things are crazy for sure!	Things are crazy for sure!	49841106	1473232169153	1473232169238	i	73
95679	1047881	Things are crazy for sure!	Things are crazy for sure!	49841108	1473232169316	1473232169373	g	71
95679	1047881	Things are crazy for sure!	Things are crazy for sure!	49841109	1473232169482	1473232169599	s	83
95679	1047881	Things are crazy for sure!	Things are crazy for sure!	49841178	1473232169666	1473232169764	 	32
95679	1047881	Things are crazy for sure!	Things are crazy for sure!	49841179	1473232169779	1473232169867	a	65
95679	1047881	Things are crazy for sure!	Things are crazy for sure!	49841182	1473232169879	1473232169952	r	82
95679	1047881	Things are crazy for sure!	Things are crazy for sure!	49841185	1473232170046	1473232170134	e	69
95679	1047881	Things are crazy for sure!	Things are crazy for sure!	49841186	1473232170212	1473232170293	BKSP	8
95679	1047881	Things are crazy for sure!	Things are crazy for sure!	49841188	1473232170380	1473232170468	BKSP	8
95679	1047881	Things are crazy for sure!	Things are crazy for sure!	49841191	1473232170530	1473232170602	BKSP	8
95679	1047881	Things are crazy for sure!	Things are crazy for sure!	49841195	1473232170688	1473232170744	BKSP	8
95679	1047881	Things are crazy for sure!	Things are crazy for sure!	49841200	1473232170838	1473232170891	BKSP	8
95679	1047881	Things are crazy for sure!	Things are crazy for sure!	49841205	1473232170974	1473232171053	BKSP	8
95679	1047881	Things are crazy for sure!	Things are crazy for sure!	49841210	1473232171219	1473232171332	n	78
95679	1047881	Things are crazy for sure!	Things are crazy for sure!	49841201	1473232171356	1473232171431	g	71
95679	1047881	Things are crazy for sure!	Things are crazy for sure!	49841206	1473232171549	1473232171665	s	83
95679	1047881	Things are crazy for sure!	Things are crazy for sure!	49841211	1473232171767	1473232171870	 	32
95679	1047881	Things are crazy for sure!	Things are crazy for sure!	49841215	1473232171886	1473232171976	a	65
95679	1047881	Things are crazy for sure!	Things are crazy for sure!	49841218	1473232171991	1473232172060	r	82
95679	1047881	Things are crazy for sure!	Things are crazy for sure!	49841226	1473232172172	1473232172227	e	69
95679	1047881	Things are crazy for sure!	Things are crazy for sure!	49841229	1473232172243	1473232172342	 	32
95679	1047881	Things are crazy for sure!	Things are crazy for sure!	49841235	1473232172373	1473232172428	c	67
95679	1047881	Things are crazy for sure!	Things are crazy for sure!	49841240	1473232172540	1473232172645	r	82
95679	1047881	Things are crazy for sure!	Things are crazy for sure!	49841266	1473232172626	1473232172710	a	65
95679	1047881	Things are crazy for sure!	Things are crazy for sure!	49841268	1473232172827	1473232172926	z	90
95679	1047881	Things are crazy for sure!	Things are crazy for sure!	49841270	1473232172926	1473232173010	y	89
95679	1047881	Things are crazy for sure!	Things are crazy for sure!	49841271	1473232173072	1473232173182	 	32
95679	1047881	Things are crazy for sure!	Things are crazy for sure!	49841272	1473232173307	1473232173373	f	70
95679	1047881	Things are crazy for sure!	Things are crazy for sure!	49841273	1473232173389	1473232173460	o	79
95679	1047881	Things are crazy for sure!	Things are crazy for sure!	49841336	1473232173487	1473232173571	r	82
95679	1047881	Things are crazy for sure!	Things are crazy for sure!	49841341	1473232173602	1473232173688	 	32
95679	1047881	Things are crazy for sure!	Things are crazy for sure!	49841347	1473232175779	1473232175868	u	85
95679	1047881	Things are crazy for sure!	Things are crazy for sure!	49841349	1473232176032	1473232176102	e	69
95679	1047881	Things are crazy for sure!	Things are crazy for sure!	49841376	1473232176333	1473232176390	BKSP	8
95679	1047881	Things are crazy for sure!	Things are crazy for sure!	49841380	1473232176421	1473232176477	r	82
95679	1047881	Things are crazy for sure!	Things are crazy for sure!	49841384	1473232176571	1473232176679	e	69
95679	1047881	Things are crazy for sure!	Things are crazy for sure!	49841393	1473232176710	1473232177019	SHIFT	16
95679	1047881	Things are crazy for sure!	Things are crazy for sure!	49841390	1473232176788	1473232176871	!	49
95679	1047894	I am not aware of any.	I am not aware of any.	49841550	1473232182285	1473232182675	SHIFT	16
95679	1047894	I am not aware of any.	I am not aware of any.	49841547	1473232182574	1473232182644	I	73
95679	1047894	I am not aware of any.	I am not aware of any.	49841553	1473232182737	1473232182860	 	32
95679	1047894	I am not aware of any.	I am not aware of any.	49841554	1473232183134	1473232183232	a	65
95679	1047894	I am not aware of any.	I am not aware of any.	49841555	1473232183351	1473232183434	m	77
95679	1047894	I am not aware of any.	I am not aware of any.	49841556	1473232183504	1473232183592	 	32
95679	1047894	I am not aware of any.	I am not aware of any.	49841576	1473232183665	1473232183751	n	78
95679	1047894	I am not aware of any.	I am not aware of any.	49841581	1473232183868	1473232183951	o	79
95679	1047894	I am not aware of any.	I am not aware of any.	49841583	1473232183951	1473232184019	t	84
95679	1047894	I am not aware of any.	I am not aware of any.	49841585	1473232184050	1473232184134	 	32
95679	1047894	I am not aware of any.	I am not aware of any.	49841587	1473232184204	1473232184310	a	65
95679	1047894	I am not aware of any.	I am not aware of any.	49841606	1473232184291	1473232184431	w	87
95679	1047894	I am not aware of any.	I am not aware of any.	49841607	1473232184431	1473232184517	a	65
95679	1047894	I am not aware of any.	I am not aware of any.	49841609	1473232184649	1473232184718	r	82
95679	1047894	I am not aware of any.	I am not aware of any.	49841611	1473232184827	1473232184925	e	69
95679	1047894	I am not aware of any.	I am not aware of any.	49841613	1473232185003	1473232185084	 	32
95679	1047894	I am not aware of any.	I am not aware of any.	49841617	1473232185162	1473232185251	o	79
95679	1047894	I am not aware of any.	I am not aware of any.	49841635	1473232185251	1473232185318	f	70
95679	1047894	I am not aware of any.	I am not aware of any.	49841638	1473232185350	1473232185449	 	32
95679	1047894	I am not aware of any.	I am not aware of any.	49841643	1473232185512	1473232185577	a	65
95679	1047894	I am not aware of any.	I am not aware of any.	49841645	1473232185616	1473232185720	n	78
95679	1047894	I am not aware of any.	I am not aware of any.	49841648	1473232185735	1473232185832	y	89
95679	1047894	I am not aware of any.	I am not aware of any.	49841656	1473232185883	1473232185991	.	190
95679	1047899	I'll get busy now and hopefully email you later today.	I'll get busy now and hopefully email you later today.	49841879	1473232192497	1473232192808	SHIFT	16
95679	1047899	I'll get busy now and hopefully email you later today.	I'll get busy now and hopefully email you later today.	49841876	1473232192703	1473232192792	I	73
95679	1047899	I'll get busy now and hopefully email you later today.	I'll get busy now and hopefully email you later today.	49841885	1473232193037	1473232193106	'	222
95679	1047899	I'll get busy now and hopefully email you later today.	I'll get busy now and hopefully email you later today.	49841882	1473232193059	1473232193105	;	186
95679	1047899	I'll get busy now and hopefully email you later today.	I'll get busy now and hopefully email you later today.	49841890	1473232193625	1473232193720	BKSP	8
95679	1047899	I'll get busy now and hopefully email you later today.	I'll get busy now and hopefully email you later today.	49841897	1473232193868	1473232193935	l	76
95679	1047899	I'll get busy now and hopefully email you later today.	I'll get busy now and hopefully email you later today.	49841903	1473232194013	1473232194084	l	76
95679	1047899	I'll get busy now and hopefully email you later today.	I'll get busy now and hopefully email you later today.	49841924	1473232194148	1473232194249	 	32
95679	1047899	I'll get busy now and hopefully email you later today.	I'll get busy now and hopefully email you later today.	49841926	1473232194280	1473232194315	g	71
95679	1047899	I'll get busy now and hopefully email you later today.	I'll get busy now and hopefully email you later today.	49841928	1473232194440	1473232194477	e	69
95679	1047899	I'll get busy now and hopefully email you later today.	I'll get busy now and hopefully email you later today.	49841929	1473232194596	1473232194663	t	84
95679	1047899	I'll get busy now and hopefully email you later today.	I'll get busy now and hopefully email you later today.	49841930	1473232194679	1473232194798	 	32
95679	1047899	I'll get busy now and hopefully email you later today.	I'll get busy now and hopefully email you later today.	49841957	1473232194919	1473232195000	b	66
95679	1047899	I'll get busy now and hopefully email you later today.	I'll get busy now and hopefully email you later today.	49841959	1473232195305	1473232195383	u	85
95679	1047899	I'll get busy now and hopefully email you later today.	I'll get busy now and hopefully email you later today.	49841970	1473232195808	1473232195893	y	89
95679	1047899	I'll get busy now and hopefully email you later today.	I'll get busy now and hopefully email you later today.	49841975	1473232196088	1473232196182	BKSP	8
95679	1047899	I'll get busy now and hopefully email you later today.	I'll get busy now and hopefully email you later today.	49841979	1473232196260	1473232196334	BKSP	8
95679	1047899	I'll get busy now and hopefully email you later today.	I'll get busy now and hopefully email you later today.	49841982	1473232196443	1473232196518	u	85
95679	1047899	I'll get busy now and hopefully email you later today.	I'll get busy now and hopefully email you later today.	49841985	1473232196549	1473232196633	s	83
95679	1047899	I'll get busy now and hopefully email you later today.	I'll get busy now and hopefully email you later today.	49841987	1473232196641	1473232196725	y	89
95679	1047899	I'll get busy now and hopefully email you later today.	I'll get busy now and hopefully email you later today.	49841989	1473232196740	1473232196824	 	32
95679	1047899	I'll get busy now and hopefully email you later today.	I'll get busy now and hopefully email you later today.	49841990	1473232196918	1473232197008	n	78
95679	1047899	I'll get busy now and hopefully email you later today.	I'll get busy now and hopefully email you later today.	49841992	1473232197113	1473232197180	o	79
95679	1047899	I'll get busy now and hopefully email you later today.	I'll get busy now and hopefully email you later today.	49841994	1473232197195	1473232197276	w	87
95679	1047899	I'll get busy now and hopefully email you later today.	I'll get busy now and hopefully email you later today.	49842001	1473232197276	1473232197383	 	32
95679	1047899	I'll get busy now and hopefully email you later today.	I'll get busy now and hopefully email you later today.	49842002	1473232197398	1473232197466	a	65
95679	1047899	I'll get busy now and hopefully email you later today.	I'll get busy now and hopefully email you later today.	49842003	1473232197481	1473232197574	n	78
95679	1047899	I'll get busy now and hopefully email you later today.	I'll get busy now and hopefully email you later today.	49842004	1473232197575	1473232197622	d	68
95679	1047899	I'll get busy now and hopefully email you later today.	I'll get busy now and hopefully email you later today.	49842005	1473232197667	1473232197773	 	32
95679	1047899	I'll get busy now and hopefully email you later today.	I'll get busy now and hopefully email you later today.	49842018	1473232197894	1473232197998	h	72
95679	1047899	I'll get busy now and hopefully email you later today.	I'll get busy now and hopefully email you later today.	49842021	1473232198029	1473232198109	o	79
95679	1047899	I'll get busy now and hopefully email you later today.	I'll get busy now and hopefully email you later today.	49842025	1473232198222	1473232198318	p	80
95679	1047899	I'll get busy now and hopefully email you later today.	I'll get busy now and hopefully email you later today.	49842027	1473232198354	1473232198453	e	69
95679	1047899	I'll get busy now and hopefully email you later today.	I'll get busy now and hopefully email you later today.	49842029	1473232198908	1473232198978	b	66
95679	1047899	I'll get busy now and hopefully email you later today.	I'll get busy now and hopefully email you later today.	49842045	1473232199107	1473232199219	BKSP	8
95679	1047899	I'll get busy now and hopefully email you later today.	I'll get busy now and hopefully email you later today.	49842048	1473232199375	1473232199472	f	70
95679	1047899	I'll get busy now and hopefully email you later today.	I'll get busy now and hopefully email you later today.	49842051	1473232199487	1473232199599	u	85
95679	1047899	I'll get busy now and hopefully email you later today.	I'll get busy now and hopefully email you later today.	49842053	1473232199755	1473232199822	l	76
95679	1047899	I'll get busy now and hopefully email you later today.	I'll get busy now and hopefully email you later today.	49842055	1473232199908	1473232199957	l	76
95679	1047899	I'll get busy now and hopefully email you later today.	I'll get busy now and hopefully email you later today.	49842056	1473232200008	1473232200076	y	89
95679	1047899	I'll get busy now and hopefully email you later today.	I'll get busy now and hopefully email you later today.	49842063	1473232200111	1473232200216	 	32
95679	1047899	I'll get busy now and hopefully email you later today.	I'll get busy now and hopefully email you later today.	49842064	1473232200286	1473232200367	e	69
95679	1047899	I'll get busy now and hopefully email you later today.	I'll get busy now and hopefully email you later today.	49842065	1473232200398	1473232200482	m	77
95679	1047899	I'll get busy now and hopefully email you later today.	I'll get busy now and hopefully email you later today.	49842066	1473232200545	1473232200641	a	65
95679	1047899	I'll get busy now and hopefully email you later today.	I'll get busy now and hopefully email you later today.	49842067	1473232200641	1473232200709	i	73
95679	1047899	I'll get busy now and hopefully email you later today.	I'll get busy now and hopefully email you later today.	49842086	1473232200830	1473232200884	l	76
95679	1047899	I'll get busy now and hopefully email you later today.	I'll get busy now and hopefully email you later today.	49842087	1473232200971	1473232201058	 	32
95679	1047899	I'll get busy now and hopefully email you later today.	I'll get busy now and hopefully email you later today.	49842088	1473232201120	1473232201208	y	89
95679	1047899	I'll get busy now and hopefully email you later today.	I'll get busy now and hopefully email you later today.	49842090	1473232201208	1473232201262	o	79
95679	1047899	I'll get busy now and hopefully email you later today.	I'll get busy now and hopefully email you later today.	49842092	1473232201362	1473232201449	u	85
95679	1047899	I'll get busy now and hopefully email you later today.	I'll get busy now and hopefully email you later today.	49842108	1473232201449	1473232201533	 	32
95679	1047899	I'll get busy now and hopefully email you later today.	I'll get busy now and hopefully email you later today.	49842109	1473232201580	1473232201691	l	76
95679	1047899	I'll get busy now and hopefully email you later today.	I'll get busy now and hopefully email you later today.	49842110	1473232201691	1473232201760	a	65
95679	1047899	I'll get busy now and hopefully email you later today.	I'll get busy now and hopefully email you later today.	49842111	1473232201822	1473232201889	t	84
95679	1047899	I'll get busy now and hopefully email you later today.	I'll get busy now and hopefully email you later today.	49842112	1473232201998	1473232202060	e	69
95679	1047899	I'll get busy now and hopefully email you later today.	I'll get busy now and hopefully email you later today.	49842129	1473232202175	1473232202243	r	82
95679	1047899	I'll get busy now and hopefully email you later today.	I'll get busy now and hopefully email you later today.	49842133	1473232202259	1473232202357	 	32
95679	1047899	I'll get busy now and hopefully email you later today.	I'll get busy now and hopefully email you later today.	49842138	1473232202521	1473232202589	t	84
95679	1047899	I'll get busy now and hopefully email you later today.	I'll get busy now and hopefully email you later today.	49842144	1473232202604	1473232202687	o	79
95679	1047899	I'll get busy now and hopefully email you later today.	I'll get busy now and hopefully email you later today.	49842150	1473232202719	1473232202866	d	68
95679	1047899	I'll get busy now and hopefully email you later today.	I'll get busy now and hopefully email you later today.	49842177	1473232202815	1473232202925	a	65
95679	1047899	I'll get busy now and hopefully email you later today.	I'll get busy now and hopefully email you later today.	49842179	1473232202925	1473232202992	y	89
95679	1047899	I'll get busy now and hopefully email you later today.	I'll get busy now and hopefully email you later today.	49842182	1473232203909	1473232203992	.	190
95679	1047912	I wonder if RBS is another institution which could move quickly.	I wonder if RBS is another institution which could move quickly.	49842409	1473232211644	1473232212119	SHIFT	16
95679	1047912	I wonder if RBS is another institution which could move quickly.	I wonder if RBS is another institution which could move quickly.	49842407	1473232212020	1473232212088	I	73
95679	1047912	I wonder if RBS is another institution which could move quickly.	I wonder if RBS is another institution which could move quickly.	49842412	1473232212150	1473232212256	 	32
95679	1047912	I wonder if RBS is another institution which could move quickly.	I wonder if RBS is another institution which could move quickly.	49842415	1473232212287	1473232212383	w	87
95679	1047912	I wonder if RBS is another institution which could move quickly.	I wonder if RBS is another institution which could move quickly.	49842418	1473232212430	1473232212508	o	79
95679	1047912	I wonder if RBS is another institution which could move quickly.	I wonder if RBS is another institution which could move quickly.	49842420	1473232212623	1473232212716	n	78
95679	1047912	I wonder if RBS is another institution which could move quickly.	I wonder if RBS is another institution which could move quickly.	49842426	1473232212716	1473232212765	d	68
95679	1047912	I wonder if RBS is another institution which could move quickly.	I wonder if RBS is another institution which could move quickly.	49842429	1473232212877	1473232212913	e	69
95679	1047912	I wonder if RBS is another institution which could move quickly.	I wonder if RBS is another institution which could move quickly.	49842431	1473232212989	1473232213091	r	82
95679	1047912	I wonder if RBS is another institution which could move quickly.	I wonder if RBS is another institution which could move quickly.	49842433	1473232213091	1473232213175	 	32
95679	1047912	I wonder if RBS is another institution which could move quickly.	I wonder if RBS is another institution which could move quickly.	49842436	1473232213175	1473232213258	i	73
95679	1047912	I wonder if RBS is another institution which could move quickly.	I wonder if RBS is another institution which could move quickly.	49842504	1473232213298	1473232213375	f	70
95679	1047912	I wonder if RBS is another institution which could move quickly.	I wonder if RBS is another institution which could move quickly.	49842507	1473232213406	1473232213510	 	32
95679	1047912	I wonder if RBS is another institution which could move quickly.	I wonder if RBS is another institution which could move quickly.	49842537	1473232213573	1473232214577	SHIFT	16
95679	1047912	I wonder if RBS is another institution which could move quickly.	I wonder if RBS is another institution which could move quickly.	49842511	1473232213683	1473232213792	R	82
95679	1047912	I wonder if RBS is another institution which could move quickly.	I wonder if RBS is another institution which could move quickly.	49842515	1473232213976	1473232214044	B	66
95679	1047912	I wonder if RBS is another institution which could move quickly.	I wonder if RBS is another institution which could move quickly.	49842520	1473232214364	1473232214504	S	83
95679	1047912	I wonder if RBS is another institution which could move quickly.	I wonder if RBS is another institution which could move quickly.	49842538	1473232214560	1473232214665	 	32
95679	1047912	I wonder if RBS is another institution which could move quickly.	I wonder if RBS is another institution which could move quickly.	49842539	1473232214790	1473232214883	i	73
95679	1047912	I wonder if RBS is another institution which could move quickly.	I wonder if RBS is another institution which could move quickly.	49842540	1473232214914	1473232214986	s	83
95679	1047912	I wonder if RBS is another institution which could move quickly.	I wonder if RBS is another institution which could move quickly.	49842541	1473232215049	1473232215165	 	32
95679	1047912	I wonder if RBS is another institution which could move quickly.	I wonder if RBS is another institution which could move quickly.	49842543	1473232215181	1473232215289	a	65
95679	1047912	I wonder if RBS is another institution which could move quickly.	I wonder if RBS is another institution which could move quickly.	49842549	1473232215309	1473232215376	n	78
95679	1047912	I wonder if RBS is another institution which could move quickly.	I wonder if RBS is another institution which could move quickly.	49842552	1473232215485	1473232215562	o	79
95679	1047912	I wonder if RBS is another institution which could move quickly.	I wonder if RBS is another institution which could move quickly.	49842556	1473232215578	1473232215627	t	84
95679	1047912	I wonder if RBS is another institution which could move quickly.	I wonder if RBS is another institution which could move quickly.	49842560	1473232215682	1473232215766	h	72
95679	1047912	I wonder if RBS is another institution which could move quickly.	I wonder if RBS is another institution which could move quickly.	49842564	1473232215766	1473232215817	e	69
95679	1047912	I wonder if RBS is another institution which could move quickly.	I wonder if RBS is another institution which could move quickly.	49842590	1473232215923	1473232215992	r	82
95679	1047912	I wonder if RBS is another institution which could move quickly.	I wonder if RBS is another institution which could move quickly.	49842594	1473232215992	1473232216091	 	32
95679	1047912	I wonder if RBS is another institution which could move quickly.	I wonder if RBS is another institution which could move quickly.	49842598	1473232216819	1473232216903	i	73
95679	1047912	I wonder if RBS is another institution which could move quickly.	I wonder if RBS is another institution which could move quickly.	49842601	1473232217020	1473232217114	n	78
95679	1047912	I wonder if RBS is another institution which could move quickly.	I wonder if RBS is another institution which could move quickly.	49842603	1473232217145	1473232217249	s	83
95679	1047912	I wonder if RBS is another institution which could move quickly.	I wonder if RBS is another institution which could move quickly.	49842613	1473232217391	1473232217475	t	84
95679	1047912	I wonder if RBS is another institution which could move quickly.	I wonder if RBS is another institution which could move quickly.	49842614	1473232217537	1473232217620	i	73
95679	1047912	I wonder if RBS is another institution which could move quickly.	I wonder if RBS is another institution which could move quickly.	49842615	1473232217909	1473232218007	t	84
95679	1047912	I wonder if RBS is another institution which could move quickly.	I wonder if RBS is another institution which could move quickly.	49842616	1473232218093	1473232218198	u	85
95679	1047912	I wonder if RBS is another institution which could move quickly.	I wonder if RBS is another institution which could move quickly.	49842617	1473232218339	1473232218452	t	84
95679	1047912	I wonder if RBS is another institution which could move quickly.	I wonder if RBS is another institution which could move quickly.	49842630	1473232218472	1473232218541	i	73
95679	1047912	I wonder if RBS is another institution which could move quickly.	I wonder if RBS is another institution which could move quickly.	49842634	1473232218635	1473232218707	o	79
95679	1047912	I wonder if RBS is another institution which could move quickly.	I wonder if RBS is another institution which could move quickly.	49842637	1473232218809	1473232218895	n	78
95679	1047912	I wonder if RBS is another institution which could move quickly.	I wonder if RBS is another institution which could move quickly.	49842640	1473232218927	1473232219008	 	32
95679	1047912	I wonder if RBS is another institution which could move quickly.	I wonder if RBS is another institution which could move quickly.	49842641	1473232219039	1473232219133	w	87
95679	1047912	I wonder if RBS is another institution which could move quickly.	I wonder if RBS is another institution which could move quickly.	49842654	1473232219133	1473232219216	h	72
95679	1047912	I wonder if RBS is another institution which could move quickly.	I wonder if RBS is another institution which could move quickly.	49842660	1473232219310	1473232219391	i	73
95679	1047912	I wonder if RBS is another institution which could move quickly.	I wonder if RBS is another institution which could move quickly.	49842664	1473232219445	1473232219529	c	67
95679	1047912	I wonder if RBS is another institution which could move quickly.	I wonder if RBS is another institution which could move quickly.	49842669	1473232219512	1473232219579	h	72
95679	1047912	I wonder if RBS is another institution which could move quickly.	I wonder if RBS is another institution which could move quickly.	49842674	1473232219642	1473232219747	 	32
95679	1047912	I wonder if RBS is another institution which could move quickly.	I wonder if RBS is another institution which could move quickly.	49842696	1473232220029	1473232220106	c	67
95679	1047912	I wonder if RBS is another institution which could move quickly.	I wonder if RBS is another institution which could move quickly.	49842700	1473232220083	1473232220158	o	79
95679	1047912	I wonder if RBS is another institution which could move quickly.	I wonder if RBS is another institution which could move quickly.	49842703	1473232220236	1473232220324	u	85
95679	1047912	I wonder if RBS is another institution which could move quickly.	I wonder if RBS is another institution which could move quickly.	49842708	1473232220418	1473232220496	l	76
95679	1047912	I wonder if RBS is another institution which could move quickly.	I wonder if RBS is another institution which could move quickly.	49842713	1473232220496	1473232220561	d	68
95679	1047912	I wonder if RBS is another institution which could move quickly.	I wonder if RBS is another institution which could move quickly.	49842722	1473232220561	1473232220647	 	32
95679	1047912	I wonder if RBS is another institution which could move quickly.	I wonder if RBS is another institution which could move quickly.	49842723	1473232220687	1473232220739	l	76
95679	1047912	I wonder if RBS is another institution which could move quickly.	I wonder if RBS is another institution which could move quickly.	49842724	1473232220934	1473232220983	BKSP	8
95679	1047912	I wonder if RBS is another institution which could move quickly.	I wonder if RBS is another institution which could move quickly.	49842725	1473232221126	1473232221192	m	77
95679	1047912	I wonder if RBS is another institution which could move quickly.	I wonder if RBS is another institution which could move quickly.	49842726	1473232221294	1473232221382	o	79
95679	1047912	I wonder if RBS is another institution which could move quickly.	I wonder if RBS is another institution which could move quickly.	49842727	1473232221382	1473232221434	v	86
95679	1047912	I wonder if RBS is another institution which could move quickly.	I wonder if RBS is another institution which could move quickly.	49842738	1473232221571	1473232221625	e	69
95679	1047912	I wonder if RBS is another institution which could move quickly.	I wonder if RBS is another institution which could move quickly.	49842740	1473232222013	1473232222136	 	32
95679	1047912	I wonder if RBS is another institution which could move quickly.	I wonder if RBS is another institution which could move quickly.	49842742	1473232222229	1473232222340	w	87
95679	1047912	I wonder if RBS is another institution which could move quickly.	I wonder if RBS is another institution which could move quickly.	49842744	1473232222512	1473232222601	BKSP	8
95679	1047912	I wonder if RBS is another institution which could move quickly.	I wonder if RBS is another institution which could move quickly.	49842746	1473232222624	1473232222708	q	81
95679	1047912	I wonder if RBS is another institution which could move quickly.	I wonder if RBS is another institution which could move quickly.	49842748	1473232222739	1473232222839	u	85
95679	1047912	I wonder if RBS is another institution which could move quickly.	I wonder if RBS is another institution which could move quickly.	49842766	1473232223007	1473232223091	i	73
95679	1047912	I wonder if RBS is another institution which could move quickly.	I wonder if RBS is another institution which could move quickly.	49842770	1473232223153	1473232223236	c	67
95679	1047912	I wonder if RBS is another institution which could move quickly.	I wonder if RBS is another institution which could move quickly.	49842774	1473232223446	1473232223543	k	75
95679	1047912	I wonder if RBS is another institution which could move quickly.	I wonder if RBS is another institution which could move quickly.	49842778	1473232223910	1473232223976	l	76
95679	1047912	I wonder if RBS is another institution which could move quickly.	I wonder if RBS is another institution which could move quickly.	49842782	1473232224007	1473232224102	y	89
95679	1047912	I wonder if RBS is another institution which could move quickly.	I wonder if RBS is another institution which could move quickly.	49842786	1473232224122	1473232224247	.	190
95679	1047924	The reserve receiver is expected to see a specialist this week.	The reserve reciever is expected to see a specialist this week.	49843097	1473232233046	1473232233399	SHIFT	16
95679	1047924	The reserve receiver is expected to see a specialist this week.	The reserve reciever is expected to see a specialist this week.	49843099	1473232233351	1473232233447	T	84
95679	1047924	The reserve receiver is expected to see a specialist this week.	The reserve reciever is expected to see a specialist this week.	49843103	1473232233447	1473232233548	h	72
95679	1047924	The reserve receiver is expected to see a specialist this week.	The reserve reciever is expected to see a specialist this week.	49843108	1473232233563	1473232233642	e	69
95679	1047924	The reserve receiver is expected to see a specialist this week.	The reserve reciever is expected to see a specialist this week.	49843111	1473232233721	1473232233838	 	32
95679	1047924	The reserve receiver is expected to see a specialist this week.	The reserve reciever is expected to see a specialist this week.	49843114	1473232234143	1473232234216	r	82
95679	1047924	The reserve receiver is expected to see a specialist this week.	The reserve reciever is expected to see a specialist this week.	49843126	1473232234321	1473232234415	e	69
95679	1047924	The reserve receiver is expected to see a specialist this week.	The reserve reciever is expected to see a specialist this week.	49843129	1473232234540	1473232234624	s	83
95679	1047924	The reserve receiver is expected to see a specialist this week.	The reserve reciever is expected to see a specialist this week.	49843133	1473232234702	1473232234791	e	69
95679	1047924	The reserve receiver is expected to see a specialist this week.	The reserve reciever is expected to see a specialist this week.	49843137	1473232234878	1473232234949	r	82
95679	1047924	The reserve receiver is expected to see a specialist this week.	The reserve reciever is expected to see a specialist this week.	49843141	1473232235059	1473232235134	v	86
95679	1047924	The reserve receiver is expected to see a specialist this week.	The reserve reciever is expected to see a specialist this week.	49843160	1473232235231	1473232235314	e	69
95679	1047924	The reserve receiver is expected to see a specialist this week.	The reserve reciever is expected to see a specialist this week.	49843162	1473232235346	1473232235455	 	32
95679	1047924	The reserve receiver is expected to see a specialist this week.	The reserve reciever is expected to see a specialist this week.	49843164	1473232235471	1473232235541	r	82
95679	1047924	The reserve receiver is expected to see a specialist this week.	The reserve reciever is expected to see a specialist this week.	49843166	1473232235619	1473232235702	e	69
95679	1047924	The reserve receiver is expected to see a specialist this week.	The reserve reciever is expected to see a specialist this week.	49843168	1473232235851	1473232235916	c	67
95679	1047924	The reserve receiver is expected to see a specialist this week.	The reserve reciever is expected to see a specialist this week.	49843188	1473232235967	1473232236071	i	73
95679	1047924	The reserve receiver is expected to see a specialist this week.	The reserve reciever is expected to see a specialist this week.	49843190	1473232236102	1473232236158	e	69
95679	1047924	The reserve receiver is expected to see a specialist this week.	The reserve reciever is expected to see a specialist this week.	49843192	1473232236276	1473232236350	v	86
95679	1047924	The reserve receiver is expected to see a specialist this week.	The reserve reciever is expected to see a specialist this week.	49843193	1473232236443	1473232236524	e	69
95679	1047924	The reserve receiver is expected to see a specialist this week.	The reserve reciever is expected to see a specialist this week.	49843194	1473232236602	1473232236689	r	82
95679	1047924	The reserve receiver is expected to see a specialist this week.	The reserve reciever is expected to see a specialist this week.	49843206	1473232236689	1473232236798	 	32
95679	1047924	The reserve receiver is expected to see a specialist this week.	The reserve reciever is expected to see a specialist this week.	49843208	1473232236829	1473232236923	i	73
95679	1047924	The reserve receiver is expected to see a specialist this week.	The reserve reciever is expected to see a specialist this week.	49843210	1473232236938	1473232237021	s	83
95679	1047924	The reserve receiver is expected to see a specialist this week.	The reserve reciever is expected to see a specialist this week.	49843212	1473232237021	1473232237157	 	32
95679	1047924	The reserve receiver is expected to see a specialist this week.	The reserve reciever is expected to see a specialist this week.	49843215	1473232237204	1473232237277	e	69
95679	1047924	The reserve receiver is expected to see a specialist this week.	The reserve reciever is expected to see a specialist this week.	49843254	1473232237391	1473232237458	x	88
95679	1047924	The reserve receiver is expected to see a specialist this week.	The reserve reciever is expected to see a specialist this week.	49843255	1473232237999	1473232238102	p	80
95679	1047924	The reserve receiver is expected to see a specialist this week.	The reserve reciever is expected to see a specialist this week.	49843256	1473232238066	1473232238125	e	69
95679	1047924	The reserve receiver is expected to see a specialist this week.	The reserve reciever is expected to see a specialist this week.	49843257	1473232238477	1473232238564	c	67
95679	1047924	The reserve receiver is expected to see a specialist this week.	The reserve reciever is expected to see a specialist this week.	49843259	1473232238697	1473232238769	t	84
95679	1047924	The reserve receiver is expected to see a specialist this week.	The reserve reciever is expected to see a specialist this week.	49843268	1473232238883	1473232238954	e	69
95679	1047924	The reserve receiver is expected to see a specialist this week.	The reserve reciever is expected to see a specialist this week.	49843269	1473232239049	1473232239099	d	68
95679	1047924	The reserve receiver is expected to see a specialist this week.	The reserve reciever is expected to see a specialist this week.	49843270	1473232239131	1473232239215	 	32
95679	1047924	The reserve receiver is expected to see a specialist this week.	The reserve reciever is expected to see a specialist this week.	49843271	1473232239215	1473232239310	t	84
95679	1047924	The reserve receiver is expected to see a specialist this week.	The reserve reciever is expected to see a specialist this week.	49843291	1473232239287	1473232239377	o	79
95679	1047924	The reserve receiver is expected to see a specialist this week.	The reserve reciever is expected to see a specialist this week.	49843293	1473232239377	1473232239449	 	32
95679	1047924	The reserve receiver is expected to see a specialist this week.	The reserve reciever is expected to see a specialist this week.	49843297	1473232239449	1473232239532	s	83
95679	1047924	The reserve receiver is expected to see a specialist this week.	The reserve reciever is expected to see a specialist this week.	49843301	1473232239626	1473232239681	e	69
95679	1047924	The reserve receiver is expected to see a specialist this week.	The reserve reciever is expected to see a specialist this week.	49843304	1473232239746	1473232239811	e	69
95679	1047924	The reserve receiver is expected to see a specialist this week.	The reserve reciever is expected to see a specialist this week.	49843307	1473232239874	1473232239958	 	32
95679	1047924	The reserve receiver is expected to see a specialist this week.	The reserve reciever is expected to see a specialist this week.	49843321	1473232239910	1473232239993	a	65
95679	1047924	The reserve receiver is expected to see a specialist this week.	The reserve reciever is expected to see a specialist this week.	49843322	1473232240073	1473232240158	 	32
95679	1047924	The reserve receiver is expected to see a specialist this week.	The reserve reciever is expected to see a specialist this week.	49843323	1473232240189	1473232240282	s	83
95679	1047924	The reserve receiver is expected to see a specialist this week.	The reserve reciever is expected to see a specialist this week.	49843324	1473232240376	1473232240498	p	80
95679	1047924	The reserve receiver is expected to see a specialist this week.	The reserve reciever is expected to see a specialist this week.	49843325	1473232240450	1473232240517	e	69
95679	1047924	The reserve receiver is expected to see a specialist this week.	The reserve reciever is expected to see a specialist this week.	49843326	1473232240657	1473232240725	c	67
95679	1047924	The reserve receiver is expected to see a specialist this week.	The reserve reciever is expected to see a specialist this week.	49843361	1473232240788	1473232240881	i	73
95679	1047924	The reserve receiver is expected to see a specialist this week.	The reserve reciever is expected to see a specialist this week.	49843362	1473232240912	1473232240998	a	65
95679	1047924	The reserve receiver is expected to see a specialist this week.	The reserve reciever is expected to see a specialist this week.	49843363	1473232242029	1473232242124	l	76
95679	1047924	The reserve receiver is expected to see a specialist this week.	The reserve reciever is expected to see a specialist this week.	49843364	1473232242226	1473232242322	i	73
95679	1047924	The reserve receiver is expected to see a specialist this week.	The reserve reciever is expected to see a specialist this week.	49843366	1473232242338	1473232242420	s	83
95679	1047924	The reserve receiver is expected to see a specialist this week.	The reserve reciever is expected to see a specialist this week.	49843393	1473232242420	1473232242506	t	84
95679	1047924	The reserve receiver is expected to see a specialist this week.	The reserve reciever is expected to see a specialist this week.	49843389	1473232242458	1473232242490	r	82
95679	1047924	The reserve receiver is expected to see a specialist this week.	The reserve reciever is expected to see a specialist this week.	49843395	1473232242543	1473232242647	 	32
95679	1047924	The reserve receiver is expected to see a specialist this week.	The reserve reciever is expected to see a specialist this week.	49843398	1473232243021	1473232243118	BKSP	8
95679	1047924	The reserve receiver is expected to see a specialist this week.	The reserve reciever is expected to see a specialist this week.	49843402	1473232243181	1473232243271	BKSP	8
95679	1047924	The reserve receiver is expected to see a specialist this week.	The reserve reciever is expected to see a specialist this week.	49843405	1473232243334	1473232243453	 	32
95679	1047924	The reserve receiver is expected to see a specialist this week.	The reserve reciever is expected to see a specialist this week.	49843410	1473232243432	1473232243542	t	84
95679	1047924	The reserve receiver is expected to see a specialist this week.	The reserve reciever is expected to see a specialist this week.	49843411	1473232243517	1473232243607	h	72
95679	1047924	The reserve receiver is expected to see a specialist this week.	The reserve reciever is expected to see a specialist this week.	49843412	1473232243701	1473232243767	i	73
95679	1047924	The reserve receiver is expected to see a specialist this week.	The reserve reciever is expected to see a specialist this week.	49843413	1473232243767	1473232243832	s	83
95679	1047924	The reserve receiver is expected to see a specialist this week.	The reserve reciever is expected to see a specialist this week.	49843414	1473232243848	1473232243974	 	32
95679	1047924	The reserve receiver is expected to see a specialist this week.	The reserve reciever is expected to see a specialist this week.	49843442	1473232243940	1473232244009	w	87
95679	1047924	The reserve receiver is expected to see a specialist this week.	The reserve reciever is expected to see a specialist this week.	49843443	1473232244102	1473232244155	e	69
95679	1047924	The reserve receiver is expected to see a specialist this week.	The reserve reciever is expected to see a specialist this week.	49843445	1473232244201	1473232244294	e	69
95679	1047924	The reserve receiver is expected to see a specialist this week.	The reserve reciever is expected to see a specialist this week.	49843447	1473232244277	1473232244381	k	75
95679	1047924	The reserve receiver is expected to see a specialist this week.	The reserve reciever is expected to see a specialist this week.	49843449	1473232244546	1473232244641	.	190
