PARTICIPANT_ID	TEST_SECTION_ID	SENTENCE	USER_INPUT	KEYSTROKE_ID	PRESS_TIME	RELEASE_TIME	LETTER	KEYCODE
99461	1085631	France also was prepared to participate in a UN multinational force.	France also was prepared to participate in a UN multinational force.	51638445	1473271377464	1473271377764	SHIFT	16
99461	1085631	France also was prepared to participate in a UN multinational force.	France also was prepared to participate in a UN multinational force.	51638443	1473271377651	1473271377763	F	70
99461	1085631	France also was prepared to participate in a UN multinational force.	France also was prepared to participate in a UN multinational force.	51638447	1473271377901	1473271377959	r	69
99461	1085631	France also was prepared to participate in a UN multinational force.	France also was prepared to participate in a UN multinational force.	51638449	1473271378284	1473271378379	BKSP	8
99461	1085631	France also was prepared to participate in a UN multinational force.	France also was prepared to participate in a UN multinational force.	51638451	1473271378469	1473271378574	BKSP	8
99461	1085631	France also was prepared to participate in a UN multinational force.	France also was prepared to participate in a UN multinational force.	51638455	1473271378855	1473271378959	r	82
99461	1085631	France also was prepared to participate in a UN multinational force.	France also was prepared to participate in a UN multinational force.	51638460	1473271379177	1473271379238	a	65
99461	1085631	France also was prepared to participate in a UN multinational force.	France also was prepared to participate in a UN multinational force.	51638531	1473271379496	1473271379601	BKSP	8
99461	1085631	France also was prepared to participate in a UN multinational force.	France also was prepared to participate in a UN multinational force.	51638535	1473271379990	1473271380134	a	65
99461	1085631	France also was prepared to participate in a UN multinational force.	France also was prepared to participate in a UN multinational force.	51638541	1473271380183	1473271380336	n	78
99461	1085631	France also was prepared to participate in a UN multinational force.	France also was prepared to participate in a UN multinational force.	51638547	1473271380275	1473271380405	c	67
99461	1085631	France also was prepared to participate in a UN multinational force.	France also was prepared to participate in a UN multinational force.	51638553	1473271380361	1473271380497	e	69
99461	1085631	France also was prepared to participate in a UN multinational force.	France also was prepared to participate in a UN multinational force.	51638615	1473271380462	1473271380608	 	32
99461	1085631	France also was prepared to participate in a UN multinational force.	France also was prepared to participate in a UN multinational force.	51638618	1473271380932	1473271381028	a	65
99461	1085631	France also was prepared to participate in a UN multinational force.	France also was prepared to participate in a UN multinational force.	51638621	1473271381024	1473271381126	l	76
99461	1085631	France also was prepared to participate in a UN multinational force.	France also was prepared to participate in a UN multinational force.	51638624	1473271381123	1473271381207	s	83
99461	1085631	France also was prepared to participate in a UN multinational force.	France also was prepared to participate in a UN multinational force.	51638629	1473271381704	1473271381839	o	79
99461	1085631	France also was prepared to participate in a UN multinational force.	France also was prepared to participate in a UN multinational force.	51638653	1473271381821	1473271381949	 	32
99461	1085631	France also was prepared to participate in a UN multinational force.	France also was prepared to participate in a UN multinational force.	51638655	1473271381960	1473271382087	w	87
99461	1085631	France also was prepared to participate in a UN multinational force.	France also was prepared to participate in a UN multinational force.	51638659	1473271382146	1473271382296	a	65
99461	1085631	France also was prepared to participate in a UN multinational force.	France also was prepared to participate in a UN multinational force.	51638663	1473271382210	1473271382313	s	83
99461	1085631	France also was prepared to participate in a UN multinational force.	France also was prepared to participate in a UN multinational force.	51638669	1473271382286	1473271382422	 	32
99461	1085631	France also was prepared to participate in a UN multinational force.	France also was prepared to participate in a UN multinational force.	51638715	1473271382370	1473271382528	p	80
99461	1085631	France also was prepared to participate in a UN multinational force.	France also was prepared to participate in a UN multinational force.	51638721	1473271382470	1473271382564	r	82
99461	1085631	France also was prepared to participate in a UN multinational force.	France also was prepared to participate in a UN multinational force.	51638728	1473271382522	1473271382632	e	69
99461	1085631	France also was prepared to participate in a UN multinational force.	France also was prepared to participate in a UN multinational force.	51638737	1473271382696	1473271382836	p	80
99461	1085631	France also was prepared to participate in a UN multinational force.	France also was prepared to participate in a UN multinational force.	51638743	1473271382820	1473271382980	a	65
99461	1085631	France also was prepared to participate in a UN multinational force.	France also was prepared to participate in a UN multinational force.	51638750	1473271382982	1473271383104	r	82
99461	1085631	France also was prepared to participate in a UN multinational force.	France also was prepared to participate in a UN multinational force.	51638773	1473271383206	1473271383298	e	69
99461	1085631	France also was prepared to participate in a UN multinational force.	France also was prepared to participate in a UN multinational force.	51638778	1473271383377	1473271383453	d	68
99461	1085631	France also was prepared to participate in a UN multinational force.	France also was prepared to participate in a UN multinational force.	51638786	1473271383413	1473271383558	 	32
99461	1085631	France also was prepared to participate in a UN multinational force.	France also was prepared to participate in a UN multinational force.	51638794	1473271383542	1473271383647	t	84
99461	1085631	France also was prepared to participate in a UN multinational force.	France also was prepared to participate in a UN multinational force.	51638829	1473271383596	1473271383723	o	79
99461	1085631	France also was prepared to participate in a UN multinational force.	France also was prepared to participate in a UN multinational force.	51638833	1473271383675	1473271383787	 	32
99461	1085631	France also was prepared to participate in a UN multinational force.	France also was prepared to participate in a UN multinational force.	51638837	1473271383808	1473271383940	p	80
99461	1085631	France also was prepared to participate in a UN multinational force.	France also was prepared to participate in a UN multinational force.	51638840	1473271383886	1473271384023	a	65
99461	1085631	France also was prepared to participate in a UN multinational force.	France also was prepared to participate in a UN multinational force.	51638846	1473271383975	1473271384077	r	82
99461	1085631	France also was prepared to participate in a UN multinational force.	France also was prepared to participate in a UN multinational force.	51638848	1473271384168	1473271384244	t	84
99461	1085631	France also was prepared to participate in a UN multinational force.	France also was prepared to participate in a UN multinational force.	51638890	1473271384267	1473271384400	i	73
99461	1085631	France also was prepared to participate in a UN multinational force.	France also was prepared to participate in a UN multinational force.	51638894	1473271384418	1473271384522	c	67
99461	1085631	France also was prepared to participate in a UN multinational force.	France also was prepared to participate in a UN multinational force.	51638899	1473271384596	1473271384715	i	73
99461	1085631	France also was prepared to participate in a UN multinational force.	France also was prepared to participate in a UN multinational force.	51638907	1473271384803	1473271384913	p	80
99461	1085631	France also was prepared to participate in a UN multinational force.	France also was prepared to participate in a UN multinational force.	51638913	1473271384962	1473271385096	a	65
99461	1085631	France also was prepared to participate in a UN multinational force.	France also was prepared to participate in a UN multinational force.	51638926	1473271385201	1473271385360	t	84
99461	1085631	France also was prepared to participate in a UN multinational force.	France also was prepared to participate in a UN multinational force.	51638928	1473271385357	1473271385503	e	69
99461	1085631	France also was prepared to participate in a UN multinational force.	France also was prepared to participate in a UN multinational force.	51638930	1473271385421	1473271385542	 	32
99461	1085631	France also was prepared to participate in a UN multinational force.	France also was prepared to participate in a UN multinational force.	51638932	1473271385549	1473271385687	i	73
99461	1085631	France also was prepared to participate in a UN multinational force.	France also was prepared to participate in a UN multinational force.	51639009	1473271385613	1473271385769	n	78
99461	1085631	France also was prepared to participate in a UN multinational force.	France also was prepared to participate in a UN multinational force.	51639011	1473271385671	1473271385787	 	32
99461	1085631	France also was prepared to participate in a UN multinational force.	France also was prepared to participate in a UN multinational force.	51639012	1473271385782	1473271385927	a	65
99461	1085631	France also was prepared to participate in a UN multinational force.	France also was prepared to participate in a UN multinational force.	51639013	1473271385878	1473271386020	 	32
99461	1085631	France also was prepared to participate in a UN multinational force.	France also was prepared to participate in a UN multinational force.	51639133	1473271386177	1473271387124	SHIFT	16
99461	1085631	France also was prepared to participate in a UN multinational force.	France also was prepared to participate in a UN multinational force.	51639016	1473271386293	1473271386359	U	85
99461	1085631	France also was prepared to participate in a UN multinational force.	France also was prepared to participate in a UN multinational force.	51639020	1473271386493	1473271386676	N	78
99461	1085631	France also was prepared to participate in a UN multinational force.	France also was prepared to participate in a UN multinational force.	51639130	1473271386663	1473271386789	 	32
99461	1085631	France also was prepared to participate in a UN multinational force.	France also was prepared to participate in a UN multinational force.	51639132	1473271387044	1473271387105	N	78
99461	1085631	France also was prepared to participate in a UN multinational force.	France also was prepared to participate in a UN multinational force.	51639135	1473271387287	1473271387354	BKSP	8
99461	1085631	France also was prepared to participate in a UN multinational force.	France also was prepared to participate in a UN multinational force.	51639137	1473271387453	1473271387556	m	77
99461	1085631	France also was prepared to participate in a UN multinational force.	France also was prepared to participate in a UN multinational force.	51639141	1473271387669	1473271387751	u	85
99461	1085631	France also was prepared to participate in a UN multinational force.	France also was prepared to participate in a UN multinational force.	51639144	1473271387932	1473271388000	k	75
99461	1085631	France also was prepared to participate in a UN multinational force.	France also was prepared to participate in a UN multinational force.	51639147	1473271388296	1473271388409	BKSP	8
99461	1085631	France also was prepared to participate in a UN multinational force.	France also was prepared to participate in a UN multinational force.	51639151	1473271388543	1473271388652	l	76
99461	1085631	France also was prepared to participate in a UN multinational force.	France also was prepared to participate in a UN multinational force.	51639199	1473271389098	1473271389200	t	84
99461	1085631	France also was prepared to participate in a UN multinational force.	France also was prepared to participate in a UN multinational force.	51639203	1473271389237	1473271389313	i	73
99461	1085631	France also was prepared to participate in a UN multinational force.	France also was prepared to participate in a UN multinational force.	51639207	1473271389428	1473271389546	n	78
99461	1085631	France also was prepared to participate in a UN multinational force.	France also was prepared to participate in a UN multinational force.	51639211	1473271389532	1473271389667	a	65
99461	1085631	France also was prepared to participate in a UN multinational force.	France also was prepared to participate in a UN multinational force.	51639215	1473271389667	1473271389781	t	84
99461	1085631	France also was prepared to participate in a UN multinational force.	France also was prepared to participate in a UN multinational force.	51639228	1473271389791	1473271389953	o	73
99461	1085631	France also was prepared to participate in a UN multinational force.	France also was prepared to participate in a UN multinational force.	51639232	1473271389879	1473271390013	n	78
99461	1085631	France also was prepared to participate in a UN multinational force.	France also was prepared to participate in a UN multinational force.	51639235	1473271389980	1473271390088	a	65
99461	1085631	France also was prepared to participate in a UN multinational force.	France also was prepared to participate in a UN multinational force.	51639239	1473271390111	1473271390243	l	76
99461	1085631	France also was prepared to participate in a UN multinational force.	France also was prepared to participate in a UN multinational force.	51639277	1473271390214	1473271390336	 	32
99461	1085631	France also was prepared to participate in a UN multinational force.	France also was prepared to participate in a UN multinational force.	51639280	1473271390417	1473271390528	f	70
99461	1085631	France also was prepared to participate in a UN multinational force.	France also was prepared to participate in a UN multinational force.	51639285	1473271390518	1473271390701	o	79
99461	1085631	France also was prepared to participate in a UN multinational force.	France also was prepared to participate in a UN multinational force.	51639292	1473271390633	1473271390724	r	82
99461	1085631	France also was prepared to participate in a UN multinational force.	France also was prepared to participate in a UN multinational force.	51639299	1473271390844	1473271390958	c	67
99461	1085631	France also was prepared to participate in a UN multinational force.	France also was prepared to participate in a UN multinational force.	51639376	1473271390907	1473271391048	e	69
99461	1085631	France also was prepared to participate in a UN multinational force.	France also was prepared to participate in a UN multinational force.	51639385	1473271391048	1473271391159	.	190
99461	1085653	Song was vice minister of the geology and mineral resources minister.	Song was vice minister of the geology and mineral resources minister.	51640099	1473271402919	1473271403391	SHIFT	16
99461	1085653	Song was vice minister of the geology and mineral resources minister.	Song was vice minister of the geology and mineral resources minister.	51640105	1473271403338	1473271403444	S	83
99461	1085653	Song was vice minister of the geology and mineral resources minister.	Song was vice minister of the geology and mineral resources minister.	51640108	1473271403518	1473271403634	o	79
99461	1085653	Song was vice minister of the geology and mineral resources minister.	Song was vice minister of the geology and mineral resources minister.	51640110	1473271403577	1473271403697	g	78
99461	1085653	Song was vice minister of the geology and mineral resources minister.	Song was vice minister of the geology and mineral resources minister.	51640112	1473271404000	1473271404115	 	32
99461	1085653	Song was vice minister of the geology and mineral resources minister.	Song was vice minister of the geology and mineral resources minister.	51640220	1473271404649	1473271404763	w	87
99461	1085653	Song was vice minister of the geology and mineral resources minister.	Song was vice minister of the geology and mineral resources minister.	51640226	1473271404830	1473271404967	a	65
99461	1085653	Song was vice minister of the geology and mineral resources minister.	Song was vice minister of the geology and mineral resources minister.	51640230	1473271404893	1473271405041	s	83
99461	1085653	Song was vice minister of the geology and mineral resources minister.	Song was vice minister of the geology and mineral resources minister.	51640234	1473271404984	1473271405141	 	32
99461	1085653	Song was vice minister of the geology and mineral resources minister.	Song was vice minister of the geology and mineral resources minister.	51640238	1473271405707	1473271405784	v	86
99461	1085653	Song was vice minister of the geology and mineral resources minister.	Song was vice minister of the geology and mineral resources minister.	51640248	1473271405819	1473271405976	i	73
99461	1085653	Song was vice minister of the geology and mineral resources minister.	Song was vice minister of the geology and mineral resources minister.	51640252	1473271405934	1473271406066	c	67
99461	1085653	Song was vice minister of the geology and mineral resources minister.	Song was vice minister of the geology and mineral resources minister.	51640255	1473271406021	1473271406148	e	69
99461	1085653	Song was vice minister of the geology and mineral resources minister.	Song was vice minister of the geology and mineral resources minister.	51640259	1473271406119	1473271406247	 	32
99461	1085653	Song was vice minister of the geology and mineral resources minister.	Song was vice minister of the geology and mineral resources minister.	51640325	1473271406215	1473271406328	m	77
99461	1085653	Song was vice minister of the geology and mineral resources minister.	Song was vice minister of the geology and mineral resources minister.	51640327	1473271406408	1473271406528	i	73
99461	1085653	Song was vice minister of the geology and mineral resources minister.	Song was vice minister of the geology and mineral resources minister.	51640333	1473271406524	1473271406680	n	78
99461	1085653	Song was vice minister of the geology and mineral resources minister.	Song was vice minister of the geology and mineral resources minister.	51640336	1473271406630	1473271406780	i	73
99461	1085653	Song was vice minister of the geology and mineral resources minister.	Song was vice minister of the geology and mineral resources minister.	51640340	1473271406928	1473271407016	s	83
99461	1085653	Song was vice minister of the geology and mineral resources minister.	Song was vice minister of the geology and mineral resources minister.	51640346	1473271407035	1473271407128	t	84
99461	1085653	Song was vice minister of the geology and mineral resources minister.	Song was vice minister of the geology and mineral resources minister.	51640365	1473271407201	1473271407316	e	69
99461	1085653	Song was vice minister of the geology and mineral resources minister.	Song was vice minister of the geology and mineral resources minister.	51640371	1473271407256	1473271407387	r	82
99461	1085653	Song was vice minister of the geology and mineral resources minister.	Song was vice minister of the geology and mineral resources minister.	51640377	1473271407347	1473271407469	 	32
99461	1085653	Song was vice minister of the geology and mineral resources minister.	Song was vice minister of the geology and mineral resources minister.	51640382	1473271407478	1473271407603	o	79
99461	1085653	Song was vice minister of the geology and mineral resources minister.	Song was vice minister of the geology and mineral resources minister.	51640396	1473271407568	1473271407623	f	70
99461	1085653	Song was vice minister of the geology and mineral resources minister.	Song was vice minister of the geology and mineral resources minister.	51640401	1473271407603	1473271407743	 	32
99461	1085653	Song was vice minister of the geology and mineral resources minister.	Song was vice minister of the geology and mineral resources minister.	51640405	1473271407714	1473271407801	t	84
99461	1085653	Song was vice minister of the geology and mineral resources minister.	Song was vice minister of the geology and mineral resources minister.	51640407	1473271407782	1473271407917	h	72
99461	1085653	Song was vice minister of the geology and mineral resources minister.	Song was vice minister of the geology and mineral resources minister.	51640408	1473271407861	1473271407971	e	69
99461	1085653	Song was vice minister of the geology and mineral resources minister.	Song was vice minister of the geology and mineral resources minister.	51640501	1473271407939	1473271408030	 	32
99461	1085653	Song was vice minister of the geology and mineral resources minister.	Song was vice minister of the geology and mineral resources minister.	51640505	1473271408120	1473271408214	g	71
99461	1085653	Song was vice minister of the geology and mineral resources minister.	Song was vice minister of the geology and mineral resources minister.	51640507	1473271408271	1473271408384	e	69
99461	1085653	Song was vice minister of the geology and mineral resources minister.	Song was vice minister of the geology and mineral resources minister.	51640509	1473271408389	1473271408551	o	79
99461	1085653	Song was vice minister of the geology and mineral resources minister.	Song was vice minister of the geology and mineral resources minister.	51640512	1473271408524	1473271408598	p	80
99461	1085653	Song was vice minister of the geology and mineral resources minister.	Song was vice minister of the geology and mineral resources minister.	51640517	1473271408882	1473271409003	BKSP	8
99461	1085653	Song was vice minister of the geology and mineral resources minister.	Song was vice minister of the geology and mineral resources minister.	51640523	1473271409064	1473271409164	l	76
99461	1085653	Song was vice minister of the geology and mineral resources minister.	Song was vice minister of the geology and mineral resources minister.	51640556	1473271409250	1473271409364	o	79
99461	1085653	Song was vice minister of the geology and mineral resources minister.	Song was vice minister of the geology and mineral resources minister.	51640561	1473271409432	1473271409550	g	71
99461	1085653	Song was vice minister of the geology and mineral resources minister.	Song was vice minister of the geology and mineral resources minister.	51640567	1473271409648	1473271409770	y	89
99461	1085653	Song was vice minister of the geology and mineral resources minister.	Song was vice minister of the geology and mineral resources minister.	51640573	1473271409738	1473271409875	 	32
99461	1085653	Song was vice minister of the geology and mineral resources minister.	Song was vice minister of the geology and mineral resources minister.	51640578	1473271409915	1473271410020	a	65
99461	1085653	Song was vice minister of the geology and mineral resources minister.	Song was vice minister of the geology and mineral resources minister.	51640607	1473271410028	1473271410138	n	78
99461	1085653	Song was vice minister of the geology and mineral resources minister.	Song was vice minister of the geology and mineral resources minister.	51640615	1473271410126	1473271410234	d	68
99461	1085653	Song was vice minister of the geology and mineral resources minister.	Song was vice minister of the geology and mineral resources minister.	51640624	1473271410181	1473271410331	 	32
99461	1085653	Song was vice minister of the geology and mineral resources minister.	Song was vice minister of the geology and mineral resources minister.	51640629	1473271410301	1473271410435	m	77
99461	1085653	Song was vice minister of the geology and mineral resources minister.	Song was vice minister of the geology and mineral resources minister.	51640632	1473271410469	1473271410602	i	73
99461	1085653	Song was vice minister of the geology and mineral resources minister.	Song was vice minister of the geology and mineral resources minister.	51640654	1473271410541	1473271410685	n	78
99461	1085653	Song was vice minister of the geology and mineral resources minister.	Song was vice minister of the geology and mineral resources minister.	51640659	1473271410716	1473271410887	e	69
99461	1085653	Song was vice minister of the geology and mineral resources minister.	Song was vice minister of the geology and mineral resources minister.	51640663	1473271410824	1473271410939	r	82
99461	1085653	Song was vice minister of the geology and mineral resources minister.	Song was vice minister of the geology and mineral resources minister.	51640670	1473271410980	1473271411107	a	65
99461	1085653	Song was vice minister of the geology and mineral resources minister.	Song was vice minister of the geology and mineral resources minister.	51640674	1473271411105	1473271411216	l	76
99461	1085653	Song was vice minister of the geology and mineral resources minister.	Song was vice minister of the geology and mineral resources minister.	51640703	1473271411180	1473271411299	 	32
99461	1085653	Song was vice minister of the geology and mineral resources minister.	Song was vice minister of the geology and mineral resources minister.	51640706	1473271411299	1473271411427	r	82
99461	1085653	Song was vice minister of the geology and mineral resources minister.	Song was vice minister of the geology and mineral resources minister.	51640710	1473271411374	1473271411490	e	69
99461	1085653	Song was vice minister of the geology and mineral resources minister.	Song was vice minister of the geology and mineral resources minister.	51640714	1473271411608	1473271411721	s	83
99461	1085653	Song was vice minister of the geology and mineral resources minister.	Song was vice minister of the geology and mineral resources minister.	51640717	1473271411768	1473271411897	o	79
99461	1085653	Song was vice minister of the geology and mineral resources minister.	Song was vice minister of the geology and mineral resources minister.	51640787	1473271411848	1473271411978	u	85
99461	1085653	Song was vice minister of the geology and mineral resources minister.	Song was vice minister of the geology and mineral resources minister.	51640794	1473271411962	1473271412076	r	82
99461	1085653	Song was vice minister of the geology and mineral resources minister.	Song was vice minister of the geology and mineral resources minister.	51640801	1473271412195	1473271412332	c	67
99461	1085653	Song was vice minister of the geology and mineral resources minister.	Song was vice minister of the geology and mineral resources minister.	51640806	1473271412307	1473271412454	e	69
99461	1085653	Song was vice minister of the geology and mineral resources minister.	Song was vice minister of the geology and mineral resources minister.	51640812	1473271412576	1473271412703	BKSP	8
99461	1085653	Song was vice minister of the geology and mineral resources minister.	Song was vice minister of the geology and mineral resources minister.	51640820	1473271412693	1473271412805	s	83
99461	1085653	Song was vice minister of the geology and mineral resources minister.	Song was vice minister of the geology and mineral resources minister.	51640825	1473271413157	1473271413279	BKSP	8
99461	1085653	Song was vice minister of the geology and mineral resources minister.	Song was vice minister of the geology and mineral resources minister.	51640879	1473271413256	1473271413345	e	69
99461	1085653	Song was vice minister of the geology and mineral resources minister.	Song was vice minister of the geology and mineral resources minister.	51640883	1473271413438	1473271413554	s	83
99461	1085653	Song was vice minister of the geology and mineral resources minister.	Song was vice minister of the geology and mineral resources minister.	51640888	1473271413560	1473271413688	 	32
99461	1085653	Song was vice minister of the geology and mineral resources minister.	Song was vice minister of the geology and mineral resources minister.	51640892	1473271413797	1473271413847	m	77
99461	1085653	Song was vice minister of the geology and mineral resources minister.	Song was vice minister of the geology and mineral resources minister.	51640896	1473271413869	1473271414013	i	73
99461	1085653	Song was vice minister of the geology and mineral resources minister.	Song was vice minister of the geology and mineral resources minister.	51640924	1473271414006	1473271414171	n	78
99461	1085653	Song was vice minister of the geology and mineral resources minister.	Song was vice minister of the geology and mineral resources minister.	51640928	1473271414100	1473271414255	i	73
99461	1085653	Song was vice minister of the geology and mineral resources minister.	Song was vice minister of the geology and mineral resources minister.	51640932	1473271414340	1473271414436	s	83
99461	1085653	Song was vice minister of the geology and mineral resources minister.	Song was vice minister of the geology and mineral resources minister.	51640935	1473271414453	1473271414536	t	84
99461	1085653	Song was vice minister of the geology and mineral resources minister.	Song was vice minister of the geology and mineral resources minister.	51640938	1473271414589	1473271414724	e	69
99461	1085653	Song was vice minister of the geology and mineral resources minister.	Song was vice minister of the geology and mineral resources minister.	51640959	1473271414659	1473271414790	r	82
99461	1085653	Song was vice minister of the geology and mineral resources minister.	Song was vice minister of the geology and mineral resources minister.	51640966	1473271414790	1473271414892	.	190
99461	1085686	The amendment has little chance of becoming law.	The amendment has little chance of becoming law.	51641204	1473271418376	1473271418686	SHIFT	16
99461	1085686	The amendment has little chance of becoming law.	The amendment has little chance of becoming law.	51641207	1473271418629	1473271418747	T	84
99461	1085686	The amendment has little chance of becoming law.	The amendment has little chance of becoming law.	51641210	1473271418797	1473271418907	h	72
99461	1085686	The amendment has little chance of becoming law.	The amendment has little chance of becoming law.	51641213	1473271418836	1473271418951	e	69
99461	1085686	The amendment has little chance of becoming law.	The amendment has little chance of becoming law.	51641216	1473271418910	1473271419055	 	32
99461	1085686	The amendment has little chance of becoming law.	The amendment has little chance of becoming law.	51641277	1473271419014	1473271419126	a	65
99461	1085686	The amendment has little chance of becoming law.	The amendment has little chance of becoming law.	51641283	1473271419122	1473271419248	m	77
99461	1085686	The amendment has little chance of becoming law.	The amendment has little chance of becoming law.	51641289	1473271419266	1473271419370	e	69
99461	1085686	The amendment has little chance of becoming law.	The amendment has little chance of becoming law.	51641297	1473271419686	1473271419800	BKSP	8
99461	1085686	The amendment has little chance of becoming law.	The amendment has little chance of becoming law.	51641303	1473271420066	1473271420170	e	69
99461	1085686	The amendment has little chance of becoming law.	The amendment has little chance of becoming law.	51641310	1473271420219	1473271420362	n	78
99461	1085686	The amendment has little chance of becoming law.	The amendment has little chance of becoming law.	51641349	1473271420310	1473271420407	d	68
99461	1085686	The amendment has little chance of becoming law.	The amendment has little chance of becoming law.	51641351	1473271420408	1473271420525	 	32
99461	1085686	The amendment has little chance of becoming law.	The amendment has little chance of becoming law.	51641356	1473271420794	1473271420873	BKSP	8
99461	1085686	The amendment has little chance of becoming law.	The amendment has little chance of becoming law.	51641361	1473271420992	1473271421095	m	77
99461	1085686	The amendment has little chance of becoming law.	The amendment has little chance of becoming law.	51641367	1473271421066	1473271421158	e	69
99461	1085686	The amendment has little chance of becoming law.	The amendment has little chance of becoming law.	51641371	1473271421180	1473271421316	n	78
99461	1085686	The amendment has little chance of becoming law.	The amendment has little chance of becoming law.	51641408	1473271421277	1473271421412	t	84
99461	1085686	The amendment has little chance of becoming law.	The amendment has little chance of becoming law.	51641414	1473271421373	1473271421514	 	32
99461	1085686	The amendment has little chance of becoming law.	The amendment has little chance of becoming law.	51641420	1473271421644	1473271421777	h	72
99461	1085686	The amendment has little chance of becoming law.	The amendment has little chance of becoming law.	51641425	1473271421737	1473271421867	a	65
99461	1085686	The amendment has little chance of becoming law.	The amendment has little chance of becoming law.	51641429	1473271421795	1473271421959	s	83
99461	1085686	The amendment has little chance of becoming law.	The amendment has little chance of becoming law.	51641465	1473271421902	1473271422045	 	32
99461	1085686	The amendment has little chance of becoming law.	The amendment has little chance of becoming law.	51641470	1473271422012	1473271422103	l	76
99461	1085686	The amendment has little chance of becoming law.	The amendment has little chance of becoming law.	51641474	1473271422190	1473271422252	i	73
99461	1085686	The amendment has little chance of becoming law.	The amendment has little chance of becoming law.	51641478	1473271422400	1473271422514	t	84
99461	1085686	The amendment has little chance of becoming law.	The amendment has little chance of becoming law.	51641483	1473271422597	1473271422688	t	84
99461	1085686	The amendment has little chance of becoming law.	The amendment has little chance of becoming law.	51641487	1473271422701	1473271422801	l	76
99461	1085686	The amendment has little chance of becoming law.	The amendment has little chance of becoming law.	51641502	1473271422799	1473271422923	e	69
99461	1085686	The amendment has little chance of becoming law.	The amendment has little chance of becoming law.	51641508	1473271422873	1473271422983	 	32
99461	1085686	The amendment has little chance of becoming law.	The amendment has little chance of becoming law.	51641515	1473271423023	1473271423118	c	67
99461	1085686	The amendment has little chance of becoming law.	The amendment has little chance of becoming law.	51641522	1473271423140	1473271423233	h	72
99461	1085686	The amendment has little chance of becoming law.	The amendment has little chance of becoming law.	51641528	1473271423222	1473271423350	a	65
99461	1085686	The amendment has little chance of becoming law.	The amendment has little chance of becoming law.	51641560	1473271423344	1473271423468	n	78
99461	1085686	The amendment has little chance of becoming law.	The amendment has little chance of becoming law.	51641563	1473271423511	1473271423645	c	67
99461	1085686	The amendment has little chance of becoming law.	The amendment has little chance of becoming law.	51641569	1473271423593	1473271423722	e	69
99461	1085686	The amendment has little chance of becoming law.	The amendment has little chance of becoming law.	51641572	1473271423678	1473271423798	 	32
99461	1085686	The amendment has little chance of becoming law.	The amendment has little chance of becoming law.	51641576	1473271423786	1473271423916	o	79
99461	1085686	The amendment has little chance of becoming law.	The amendment has little chance of becoming law.	51641615	1473271423859	1473271423978	f	70
99461	1085686	The amendment has little chance of becoming law.	The amendment has little chance of becoming law.	51641617	1473271423931	1473271424032	 	32
99461	1085686	The amendment has little chance of becoming law.	The amendment has little chance of becoming law.	51641618	1473271424110	1473271424230	b	66
99461	1085686	The amendment has little chance of becoming law.	The amendment has little chance of becoming law.	51641624	1473271424217	1473271424328	e	69
99461	1085686	The amendment has little chance of becoming law.	The amendment has little chance of becoming law.	51641628	1473271424486	1473271424624	c	67
99461	1085686	The amendment has little chance of becoming law.	The amendment has little chance of becoming law.	51641654	1473271424611	1473271424727	o	79
99461	1085686	The amendment has little chance of becoming law.	The amendment has little chance of becoming law.	51641659	1473271424688	1473271424796	m	77
99461	1085686	The amendment has little chance of becoming law.	The amendment has little chance of becoming law.	51641662	1473271424839	1473271424973	i	73
99461	1085686	The amendment has little chance of becoming law.	The amendment has little chance of becoming law.	51641669	1473271424910	1473271425022	n	78
99461	1085686	The amendment has little chance of becoming law.	The amendment has little chance of becoming law.	51641674	1473271424984	1473271425093	g	71
99461	1085686	The amendment has little chance of becoming law.	The amendment has little chance of becoming law.	51641711	1473271425035	1473271425152	 	32
99461	1085686	The amendment has little chance of becoming law.	The amendment has little chance of becoming law.	51641714	1473271425143	1473271425230	l	76
99461	1085686	The amendment has little chance of becoming law.	The amendment has little chance of becoming law.	51641718	1473271425227	1473271425429	a	65
99461	1085686	The amendment has little chance of becoming law.	The amendment has little chance of becoming law.	51641722	1473271425337	1473271425472	w	87
99461	1085686	The amendment has little chance of becoming law.	The amendment has little chance of becoming law.	51641726	1473271425533	1473271425641	.	190
99461	1085701	Valerie, the prices look fine in Sitara.	Valerie, the prices look fine in Sitara.	51642057	1473271427782	1473271430728	SHIFT	16
99461	1085701	Valerie, the prices look fine in Sitara.	Valerie, the prices look fine in Sitara.	51642062	1473271430649	1473271430765	V	86
99461	1085701	Valerie, the prices look fine in Sitara.	Valerie, the prices look fine in Sitara.	51642068	1473271430785	1473271430875	a	65
99461	1085701	Valerie, the prices look fine in Sitara.	Valerie, the prices look fine in Sitara.	51642072	1473271430899	1473271431004	l	76
99461	1085701	Valerie, the prices look fine in Sitara.	Valerie, the prices look fine in Sitara.	51642076	1473271430997	1473271431131	e	69
99461	1085701	Valerie, the prices look fine in Sitara.	Valerie, the prices look fine in Sitara.	51642123	1473271431074	1473271431191	r	82
99461	1085701	Valerie, the prices look fine in Sitara.	Valerie, the prices look fine in Sitara.	51642129	1473271431235	1473271431341	i	73
99461	1085701	Valerie, the prices look fine in Sitara.	Valerie, the prices look fine in Sitara.	51642137	1473271431325	1473271431425	e	69
99461	1085701	Valerie, the prices look fine in Sitara.	Valerie, the prices look fine in Sitara.	51642145	1473271431661	1473271431777	,	188
99461	1085701	Valerie, the prices look fine in Sitara.	Valerie, the prices look fine in Sitara.	51642152	1473271431799	1473271431946	 	32
99461	1085701	Valerie, the prices look fine in Sitara.	Valerie, the prices look fine in Sitara.	51642177	1473271431917	1473271432037	t	84
99461	1085701	Valerie, the prices look fine in Sitara.	Valerie, the prices look fine in Sitara.	51642181	1473271431991	1473271432091	h	72
99461	1085701	Valerie, the prices look fine in Sitara.	Valerie, the prices look fine in Sitara.	51642187	1473271432099	1473271432225	e	69
99461	1085701	Valerie, the prices look fine in Sitara.	Valerie, the prices look fine in Sitara.	51642192	1473271432164	1473271432277	 	32
99461	1085701	Valerie, the prices look fine in Sitara.	Valerie, the prices look fine in Sitara.	51642197	1473271432223	1473271432318	p	80
99461	1085701	Valerie, the prices look fine in Sitara.	Valerie, the prices look fine in Sitara.	51642204	1473271432323	1473271432399	r	82
99461	1085701	Valerie, the prices look fine in Sitara.	Valerie, the prices look fine in Sitara.	51642222	1473271432440	1473271432574	i	73
99461	1085701	Valerie, the prices look fine in Sitara.	Valerie, the prices look fine in Sitara.	51642228	1473271432506	1473271432581	c	67
99461	1085701	Valerie, the prices look fine in Sitara.	Valerie, the prices look fine in Sitara.	51642235	1473271432559	1473271432664	e	69
99461	1085701	Valerie, the prices look fine in Sitara.	Valerie, the prices look fine in Sitara.	51642238	1473271432740	1473271432867	s	83
99461	1085701	Valerie, the prices look fine in Sitara.	Valerie, the prices look fine in Sitara.	51642264	1473271432814	1473271432949	 	32
99461	1085701	Valerie, the prices look fine in Sitara.	Valerie, the prices look fine in Sitara.	51642270	1473271432967	1473271433044	l	76
99461	1085701	Valerie, the prices look fine in Sitara.	Valerie, the prices look fine in Sitara.	51642278	1473271433135	1473271433197	o	79
99461	1085701	Valerie, the prices look fine in Sitara.	Valerie, the prices look fine in Sitara.	51642284	1473271433286	1473271433418	o	79
99461	1085701	Valerie, the prices look fine in Sitara.	Valerie, the prices look fine in Sitara.	51642290	1473271433346	1473271433482	k	75
99461	1085701	Valerie, the prices look fine in Sitara.	Valerie, the prices look fine in Sitara.	51642307	1473271433435	1473271433547	 	32
99461	1085701	Valerie, the prices look fine in Sitara.	Valerie, the prices look fine in Sitara.	51642314	1473271433583	1473271433684	f	70
99461	1085701	Valerie, the prices look fine in Sitara.	Valerie, the prices look fine in Sitara.	51642319	1473271433693	1473271433857	i	73
99461	1085701	Valerie, the prices look fine in Sitara.	Valerie, the prices look fine in Sitara.	51642326	1473271433729	1473271433875	n	78
99461	1085701	Valerie, the prices look fine in Sitara.	Valerie, the prices look fine in Sitara.	51642331	1473271433807	1473271433930	e	69
99461	1085701	Valerie, the prices look fine in Sitara.	Valerie, the prices look fine in Sitara.	51642369	1473271433879	1473271433980	 	32
99461	1085701	Valerie, the prices look fine in Sitara.	Valerie, the prices look fine in Sitara.	51642373	1473271433997	1473271434157	i	73
99461	1085701	Valerie, the prices look fine in Sitara.	Valerie, the prices look fine in Sitara.	51642376	1473271434076	1473271434212	n	78
99461	1085701	Valerie, the prices look fine in Sitara.	Valerie, the prices look fine in Sitara.	51642381	1473271434145	1473271434282	 	32
99461	1085701	Valerie, the prices look fine in Sitara.	Valerie, the prices look fine in Sitara.	51642385	1473271434314	1473271434453	SHIFT	16
99461	1085701	Valerie, the prices look fine in Sitara.	Valerie, the prices look fine in Sitara.	51642388	1473271434389	1473271434491	S	83
99461	1085701	Valerie, the prices look fine in Sitara.	Valerie, the prices look fine in Sitara.	51642391	1473271434551	1473271434679	i	73
99461	1085701	Valerie, the prices look fine in Sitara.	Valerie, the prices look fine in Sitara.	51642399	1473271434633	1473271434714	t	84
99461	1085701	Valerie, the prices look fine in Sitara.	Valerie, the prices look fine in Sitara.	51642404	1473271434762	1473271434891	a	65
99461	1085701	Valerie, the prices look fine in Sitara.	Valerie, the prices look fine in Sitara.	51642407	1473271434851	1473271434966	r	82
99461	1085701	Valerie, the prices look fine in Sitara.	Valerie, the prices look fine in Sitara.	51642411	1473271435014	1473271435151	a	65
99461	1085701	Valerie, the prices look fine in Sitara.	Valerie, the prices look fine in Sitara.	51642417	1473271435139	1473271435240	.	190
99461	1085722	The blasts rocked prominent commercial landmarks.	The blasts rocked prominent commercial landmarks.	51642864	1473271440498	1473271440942	SHIFT	16
99461	1085722	The blasts rocked prominent commercial landmarks.	The blasts rocked prominent commercial landmarks.	51642869	1473271440862	1473271440999	T	84
99461	1085722	The blasts rocked prominent commercial landmarks.	The blasts rocked prominent commercial landmarks.	51642875	1473271441044	1473271441171	h	72
99461	1085722	The blasts rocked prominent commercial landmarks.	The blasts rocked prominent commercial landmarks.	51642880	1473271441118	1473271441215	e	69
99461	1085722	The blasts rocked prominent commercial landmarks.	The blasts rocked prominent commercial landmarks.	51642885	1473271441180	1473271441312	 	32
99461	1085722	The blasts rocked prominent commercial landmarks.	The blasts rocked prominent commercial landmarks.	51642924	1473271441306	1473271441403	b	66
99461	1085722	The blasts rocked prominent commercial landmarks.	The blasts rocked prominent commercial landmarks.	51642928	1473271441417	1473271441534	l	76
99461	1085722	The blasts rocked prominent commercial landmarks.	The blasts rocked prominent commercial landmarks.	51642934	1473271441506	1473271441640	a	65
99461	1085722	The blasts rocked prominent commercial landmarks.	The blasts rocked prominent commercial landmarks.	51642938	1473271441617	1473271441744	s	83
99461	1085722	The blasts rocked prominent commercial landmarks.	The blasts rocked prominent commercial landmarks.	51642945	1473271441847	1473271441941	t	84
99461	1085722	The blasts rocked prominent commercial landmarks.	The blasts rocked prominent commercial landmarks.	51642950	1473271441966	1473271442086	s	83
99461	1085722	The blasts rocked prominent commercial landmarks.	The blasts rocked prominent commercial landmarks.	51642998	1473271442136	1473271442229	 	32
99461	1085722	The blasts rocked prominent commercial landmarks.	The blasts rocked prominent commercial landmarks.	51643000	1473271442290	1473271442383	r	82
99461	1085722	The blasts rocked prominent commercial landmarks.	The blasts rocked prominent commercial landmarks.	51643004	1473271442406	1473271442524	o	79
99461	1085722	The blasts rocked prominent commercial landmarks.	The blasts rocked prominent commercial landmarks.	51643007	1473271442527	1473271442618	c	67
99461	1085722	The blasts rocked prominent commercial landmarks.	The blasts rocked prominent commercial landmarks.	51643011	1473271442653	1473271442802	k	75
99461	1085722	The blasts rocked prominent commercial landmarks.	The blasts rocked prominent commercial landmarks.	51643050	1473271442773	1473271442854	e	69
99461	1085722	The blasts rocked prominent commercial landmarks.	The blasts rocked prominent commercial landmarks.	51643056	1473271442942	1473271443034	d	68
99461	1085722	The blasts rocked prominent commercial landmarks.	The blasts rocked prominent commercial landmarks.	51643063	1473271443014	1473271443133	 	32
99461	1085722	The blasts rocked prominent commercial landmarks.	The blasts rocked prominent commercial landmarks.	51643071	1473271443144	1473271443271	p	80
99461	1085722	The blasts rocked prominent commercial landmarks.	The blasts rocked prominent commercial landmarks.	51643076	1473271443198	1473271443315	r	82
99461	1085722	The blasts rocked prominent commercial landmarks.	The blasts rocked prominent commercial landmarks.	51643081	1473271443407	1473271443556	i	73
99461	1085722	The blasts rocked prominent commercial landmarks.	The blasts rocked prominent commercial landmarks.	51643198	1473271443516	1473271443685	m	77
99461	1085722	The blasts rocked prominent commercial landmarks.	The blasts rocked prominent commercial landmarks.	51643200	1473271443664	1473271443840	i	73
99461	1085722	The blasts rocked prominent commercial landmarks.	The blasts rocked prominent commercial landmarks.	51643201	1473271443797	1473271443978	n	78
99461	1085722	The blasts rocked prominent commercial landmarks.	The blasts rocked prominent commercial landmarks.	51643203	1473271443985	1473271444075	u	85
99461	1085722	The blasts rocked prominent commercial landmarks.	The blasts rocked prominent commercial landmarks.	51643210	1473271444278	1473271444343	BKSP	8
99461	1085722	The blasts rocked prominent commercial landmarks.	The blasts rocked prominent commercial landmarks.	51643215	1473271444453	1473271444545	BKSP	8
99461	1085722	The blasts rocked prominent commercial landmarks.	The blasts rocked prominent commercial landmarks.	51643220	1473271444643	1473271444730	BKSP	8
99461	1085722	The blasts rocked prominent commercial landmarks.	The blasts rocked prominent commercial landmarks.	51643229	1473271444827	1473271444908	BKSP	8
99461	1085722	The blasts rocked prominent commercial landmarks.	The blasts rocked prominent commercial landmarks.	51643235	1473271445005	1473271445068	BKSP	8
99461	1085722	The blasts rocked prominent commercial landmarks.	The blasts rocked prominent commercial landmarks.	51643407	1473271445227	1473271445317	o	73
99461	1085722	The blasts rocked prominent commercial landmarks.	The blasts rocked prominent commercial landmarks.	51643412	1473271445286	1473271445418	m	77
99461	1085722	The blasts rocked prominent commercial landmarks.	The blasts rocked prominent commercial landmarks.	51643422	1473271445613	1473271445695	BKSP	8
99461	1085722	The blasts rocked prominent commercial landmarks.	The blasts rocked prominent commercial landmarks.	51643429	1473271445792	1473271445866	BKSP	8
99461	1085722	The blasts rocked prominent commercial landmarks.	The blasts rocked prominent commercial landmarks.	51643436	1473271445947	1473271446018	BKSP	8
99461	1085722	The blasts rocked prominent commercial landmarks.	The blasts rocked prominent commercial landmarks.	51643442	1473271446152	1473271446351	o	79
99461	1085722	The blasts rocked prominent commercial landmarks.	The blasts rocked prominent commercial landmarks.	51643446	1473271446244	1473271446411	m	77
99461	1085722	The blasts rocked prominent commercial landmarks.	The blasts rocked prominent commercial landmarks.	51643450	1473271446865	1473271447032	i	73
99461	1085722	The blasts rocked prominent commercial landmarks.	The blasts rocked prominent commercial landmarks.	51643453	1473271446986	1473271447179	n	78
99461	1085722	The blasts rocked prominent commercial landmarks.	The blasts rocked prominent commercial landmarks.	51643456	1473271447627	1473271447720	e	69
99461	1085722	The blasts rocked prominent commercial landmarks.	The blasts rocked prominent commercial landmarks.	51643457	1473271447715	1473271447872	n	78
99461	1085722	The blasts rocked prominent commercial landmarks.	The blasts rocked prominent commercial landmarks.	51643460	1473271447815	1473271447920	t	84
99461	1085722	The blasts rocked prominent commercial landmarks.	The blasts rocked prominent commercial landmarks.	51643465	1473271447875	1473271447983	 	32
99461	1085722	The blasts rocked prominent commercial landmarks.	The blasts rocked prominent commercial landmarks.	51643471	1473271448077	1473271448166	c	67
99461	1085722	The blasts rocked prominent commercial landmarks.	The blasts rocked prominent commercial landmarks.	51643478	1473271448139	1473271448244	o	79
99461	1085722	The blasts rocked prominent commercial landmarks.	The blasts rocked prominent commercial landmarks.	51643515	1473271448229	1473271448302	m	77
99461	1085722	The blasts rocked prominent commercial landmarks.	The blasts rocked prominent commercial landmarks.	51643518	1473271448382	1473271448515	m	77
99461	1085722	The blasts rocked prominent commercial landmarks.	The blasts rocked prominent commercial landmarks.	51643524	1473271448517	1473271448634	e	69
99461	1085722	The blasts rocked prominent commercial landmarks.	The blasts rocked prominent commercial landmarks.	51643530	1473271448563	1473271448679	r	82
99461	1085722	The blasts rocked prominent commercial landmarks.	The blasts rocked prominent commercial landmarks.	51643541	1473271448791	1473271448885	c	67
99461	1085722	The blasts rocked prominent commercial landmarks.	The blasts rocked prominent commercial landmarks.	51643550	1473271448943	1473271449036	i	73
99461	1085722	The blasts rocked prominent commercial landmarks.	The blasts rocked prominent commercial landmarks.	51643570	1473271449026	1473271449154	a	65
99461	1085722	The blasts rocked prominent commercial landmarks.	The blasts rocked prominent commercial landmarks.	51643573	1473271449164	1473271449266	l	76
99461	1085722	The blasts rocked prominent commercial landmarks.	The blasts rocked prominent commercial landmarks.	51643577	1473271449251	1473271449366	 	32
99461	1085722	The blasts rocked prominent commercial landmarks.	The blasts rocked prominent commercial landmarks.	51643580	1473271449400	1473271449493	l	76
99461	1085722	The blasts rocked prominent commercial landmarks.	The blasts rocked prominent commercial landmarks.	51643583	1473271449485	1473271449596	a	65
99461	1085722	The blasts rocked prominent commercial landmarks.	The blasts rocked prominent commercial landmarks.	51643635	1473271449589	1473271449720	n	78
99461	1085722	The blasts rocked prominent commercial landmarks.	The blasts rocked prominent commercial landmarks.	51643638	1473271449772	1473271449870	d	68
99461	1085722	The blasts rocked prominent commercial landmarks.	The blasts rocked prominent commercial landmarks.	51643643	1473271449977	1473271450063	m	77
99461	1085722	The blasts rocked prominent commercial landmarks.	The blasts rocked prominent commercial landmarks.	51643648	1473271450058	1473271450202	a	65
99461	1085722	The blasts rocked prominent commercial landmarks.	The blasts rocked prominent commercial landmarks.	51643655	1473271450168	1473271450297	r	82
99461	1085722	The blasts rocked prominent commercial landmarks.	The blasts rocked prominent commercial landmarks.	51643664	1473271450297	1473271450433	k	75
99461	1085722	The blasts rocked prominent commercial landmarks.	The blasts rocked prominent commercial landmarks.	51643687	1473271450575	1473271450695	s	83
99461	1085722	The blasts rocked prominent commercial landmarks.	The blasts rocked prominent commercial landmarks.	51643692	1473271450704	1473271450817	.	190
99461	1085743	Very foggy this morning.	Very foggy this morning.	51643944	1473271452639	1473271453830	SHIFT	16
99461	1085743	Very foggy this morning.	Very foggy this morning.	51643947	1473271453760	1473271453880	V	86
99461	1085743	Very foggy this morning.	Very foggy this morning.	51643952	1473271453856	1473271453978	e	69
99461	1085743	Very foggy this morning.	Very foggy this morning.	51643959	1473271453926	1473271454030	r	82
99461	1085743	Very foggy this morning.	Very foggy this morning.	51643966	1473271454118	1473271454207	y	89
99461	1085743	Very foggy this morning.	Very foggy this morning.	51644019	1473271454177	1473271454298	 	32
99461	1085743	Very foggy this morning.	Very foggy this morning.	51644023	1473271454400	1473271454493	f	70
99461	1085743	Very foggy this morning.	Very foggy this morning.	51644028	1473271454570	1473271454693	o	79
99461	1085743	Very foggy this morning.	Very foggy this morning.	51644033	1473271454672	1473271454742	g	71
99461	1085743	Very foggy this morning.	Very foggy this morning.	51644039	1473271454816	1473271454923	g	71
99461	1085743	Very foggy this morning.	Very foggy this morning.	51644044	1473271455041	1473271455125	y	89
99461	1085743	Very foggy this morning.	Very foggy this morning.	51644067	1473271455155	1473271455297	 	32
99461	1085743	Very foggy this morning.	Very foggy this morning.	51644074	1473271455250	1473271455380	t	84
99461	1085743	Very foggy this morning.	Very foggy this morning.	51644078	1473271455381	1473271455504	h	72
99461	1085743	Very foggy this morning.	Very foggy this morning.	51644082	1473271455448	1473271455585	i	73
99461	1085743	Very foggy this morning.	Very foggy this morning.	51644088	1473271455725	1473271455841	s	83
99461	1085743	Very foggy this morning.	Very foggy this morning.	51644120	1473271455804	1473271455929	 	32
99461	1085743	Very foggy this morning.	Very foggy this morning.	51644126	1473271455897	1473271456046	m	77
99461	1085743	Very foggy this morning.	Very foggy this morning.	51644130	1473271455990	1473271456133	o	79
99461	1085743	Very foggy this morning.	Very foggy this morning.	51644136	1473271456137	1473271456256	r	82
99461	1085743	Very foggy this morning.	Very foggy this morning.	51644141	1473271456254	1473271456349	n	78
99461	1085743	Very foggy this morning.	Very foggy this morning.	51644166	1473271456319	1473271456475	i	73
99461	1085743	Very foggy this morning.	Very foggy this morning.	51644171	1473271456428	1473271456552	n	78
99461	1085743	Very foggy this morning.	Very foggy this morning.	51644176	1473271456538	1473271456657	g	71
99461	1085756	Kay Mann is going to take the lead on this.	Kay Mann is going to take the lead on this.	51644843	1473271456684	1473271465611	.	190
99461	1085756	Kay Mann is going to take the lead on this.	Kay Mann is going to take the lead on this.	51644512	1473271460276	1473271461220	SHIFT	16
99461	1085756	Kay Mann is going to take the lead on this.	Kay Mann is going to take the lead on this.	51644515	1473271461122	1473271461263	K	75
99461	1085756	Kay Mann is going to take the lead on this.	Kay Mann is going to take the lead on this.	51644519	1473271461247	1473271461337	a	65
99461	1085756	Kay Mann is going to take the lead on this.	Kay Mann is going to take the lead on this.	51644526	1473271461316	1473271461398	y	89
99461	1085756	Kay Mann is going to take the lead on this.	Kay Mann is going to take the lead on this.	51644530	1473271461339	1473271461455	 	32
99461	1085756	Kay Mann is going to take the lead on this.	Kay Mann is going to take the lead on this.	51644534	1473271461691	1473271461845	SHIFT	16
99461	1085756	Kay Mann is going to take the lead on this.	Kay Mann is going to take the lead on this.	51644554	1473271461779	1473271461895	M	77
99461	1085756	Kay Mann is going to take the lead on this.	Kay Mann is going to take the lead on this.	51644557	1473271461897	1473271462002	a	65
99461	1085756	Kay Mann is going to take the lead on this.	Kay Mann is going to take the lead on this.	51644565	1473271462006	1473271462087	n	78
99461	1085756	Kay Mann is going to take the lead on this.	Kay Mann is going to take the lead on this.	51644571	1473271462144	1473271462256	n	78
99461	1085756	Kay Mann is going to take the lead on this.	Kay Mann is going to take the lead on this.	51644578	1473271462263	1473271462366	 	32
99461	1085756	Kay Mann is going to take the lead on this.	Kay Mann is going to take the lead on this.	51644609	1473271462365	1473271462475	i	73
99461	1085756	Kay Mann is going to take the lead on this.	Kay Mann is going to take the lead on this.	51644614	1473271462457	1473271462550	s	83
99461	1085756	Kay Mann is going to take the lead on this.	Kay Mann is going to take the lead on this.	51644619	1473271462498	1473271462615	 	32
99461	1085756	Kay Mann is going to take the lead on this.	Kay Mann is going to take the lead on this.	51644624	1473271462652	1473271462760	g	71
99461	1085756	Kay Mann is going to take the lead on this.	Kay Mann is going to take the lead on this.	51644628	1473271462722	1473271462802	o	79
99461	1085756	Kay Mann is going to take the lead on this.	Kay Mann is going to take the lead on this.	51644632	1473271462871	1473271463024	i	73
99461	1085756	Kay Mann is going to take the lead on this.	Kay Mann is going to take the lead on this.	51644637	1473271462961	1473271463104	n	78
99461	1085756	Kay Mann is going to take the lead on this.	Kay Mann is going to take the lead on this.	51644633	1473271462996	1473271463047	g	71
99461	1085756	Kay Mann is going to take the lead on this.	Kay Mann is going to take the lead on this.	51644644	1473271463027	1473271463150	 	32
99461	1085756	Kay Mann is going to take the lead on this.	Kay Mann is going to take the lead on this.	51644647	1473271463144	1473271463224	t	84
99461	1085756	Kay Mann is going to take the lead on this.	Kay Mann is going to take the lead on this.	51644652	1473271463202	1473271463294	o	79
99461	1085756	Kay Mann is going to take the lead on this.	Kay Mann is going to take the lead on this.	51644655	1473271463272	1473271463377	 	32
99461	1085756	Kay Mann is going to take the lead on this.	Kay Mann is going to take the lead on this.	51644667	1473271463374	1473271463491	t	84
99461	1085756	Kay Mann is going to take the lead on this.	Kay Mann is going to take the lead on this.	51644672	1473271463479	1473271463637	a	65
99461	1085756	Kay Mann is going to take the lead on this.	Kay Mann is going to take the lead on this.	51644678	1473271463587	1473271463714	k	75
99461	1085756	Kay Mann is going to take the lead on this.	Kay Mann is going to take the lead on this.	51644684	1473271463722	1473271463799	 	69
99461	1085756	Kay Mann is going to take the lead on this.	Kay Mann is going to take the lead on this.	51644706	1473271463847	1473271463986	t	84
99461	1085756	Kay Mann is going to take the lead on this.	Kay Mann is going to take the lead on this.	51644710	1473271463888	1473271463987	h	72
99461	1085756	Kay Mann is going to take the lead on this.	Kay Mann is going to take the lead on this.	51644714	1473271463966	1473271464088	e	69
99461	1085756	Kay Mann is going to take the lead on this.	Kay Mann is going to take the lead on this.	51644719	1473271464042	1473271464201	 	32
99461	1085756	Kay Mann is going to take the lead on this.	Kay Mann is going to take the lead on this.	51644723	1473271464153	1473271464256	l	76
99461	1085756	Kay Mann is going to take the lead on this.	Kay Mann is going to take the lead on this.	51644777	1473271464215	1473271464352	e	69
99461	1085756	Kay Mann is going to take the lead on this.	Kay Mann is going to take the lead on this.	51644782	1473271464414	1473271464564	a	65
99461	1085756	Kay Mann is going to take the lead on this.	Kay Mann is going to take the lead on this.	51644789	1473271464761	1473271464878	d	68
99461	1085756	Kay Mann is going to take the lead on this.	Kay Mann is going to take the lead on this.	51644794	1473271464846	1473271464972	 	32
99461	1085756	Kay Mann is going to take the lead on this.	Kay Mann is going to take the lead on this.	51644801	1473271464959	1473271465061	o	79
99461	1085756	Kay Mann is going to take the lead on this.	Kay Mann is going to take the lead on this.	51644806	1473271465032	1473271465122	n	78
99461	1085756	Kay Mann is going to take the lead on this.	Kay Mann is going to take the lead on this.	51644809	1473271465082	1473271465206	 	32
99461	1085756	Kay Mann is going to take the lead on this.	Kay Mann is going to take the lead on this.	51644812	1473271465152	1473271465258	t	84
99461	1085756	Kay Mann is going to take the lead on this.	Kay Mann is going to take the lead on this.	51644816	1473271465223	1473271465333	h	72
99461	1085756	Kay Mann is going to take the lead on this.	Kay Mann is going to take the lead on this.	51644818	1473271465292	1473271465370	i	73
99461	1085756	Kay Mann is going to take the lead on this.	Kay Mann is going to take the lead on this.	51644835	1473271465365	1473271465465	s	83
99461	1085773	Ty needs to work on our model before we could start anything anyway.	Ty needs to work on our model before we could start anything anyway.	51645008	1473271467304	1473271467498	SHIFT	16
99461	1085773	Ty needs to work on our model before we could start anything anyway.	Ty needs to work on our model before we could start anything anyway.	51645015	1473271467410	1473271467522	T	84
99461	1085773	Ty needs to work on our model before we could start anything anyway.	Ty needs to work on our model before we could start anything anyway.	51645021	1473271467608	1473271467742	y	89
99461	1085773	Ty needs to work on our model before we could start anything anyway.	Ty needs to work on our model before we could start anything anyway.	51645029	1473271467691	1473271467810	 	32
99461	1085773	Ty needs to work on our model before we could start anything anyway.	Ty needs to work on our model before we could start anything anyway.	51645034	1473271467804	1473271467928	n	78
99461	1085773	Ty needs to work on our model before we could start anything anyway.	Ty needs to work on our model before we could start anything anyway.	51645057	1473271467882	1473271467997	e	69
99461	1085773	Ty needs to work on our model before we could start anything anyway.	Ty needs to work on our model before we could start anything anyway.	51645062	1473271468046	1473271468140	e	69
99461	1085773	Ty needs to work on our model before we could start anything anyway.	Ty needs to work on our model before we could start anything anyway.	51645066	1473271468221	1473271468387	d	68
99461	1085773	Ty needs to work on our model before we could start anything anyway.	Ty needs to work on our model before we could start anything anyway.	51645071	1473271468333	1473271468458	 	83
99461	1085773	Ty needs to work on our model before we could start anything anyway.	Ty needs to work on our model before we could start anything anyway.	51645085	1473271468479	1473271468595	t	84
99461	1085773	Ty needs to work on our model before we could start anything anyway.	Ty needs to work on our model before we could start anything anyway.	51645088	1473271468578	1473271468693	o	79
99461	1085773	Ty needs to work on our model before we could start anything anyway.	Ty needs to work on our model before we could start anything anyway.	51645093	1473271468644	1473271468736	 	32
99461	1085773	Ty needs to work on our model before we could start anything anyway.	Ty needs to work on our model before we could start anything anyway.	51645096	1473271468740	1473271468866	w	87
99461	1085773	Ty needs to work on our model before we could start anything anyway.	Ty needs to work on our model before we could start anything anyway.	51645104	1473271468863	1473271468960	o	79
99461	1085773	Ty needs to work on our model before we could start anything anyway.	Ty needs to work on our model before we could start anything anyway.	51645122	1473271468934	1473271469029	r	82
99461	1085773	Ty needs to work on our model before we could start anything anyway.	Ty needs to work on our model before we could start anything anyway.	51645125	1473271469040	1473271469142	k	75
99461	1085773	Ty needs to work on our model before we could start anything anyway.	Ty needs to work on our model before we could start anything anyway.	51645131	1473271469131	1473271469233	 	32
99461	1085773	Ty needs to work on our model before we could start anything anyway.	Ty needs to work on our model before we could start anything anyway.	51645137	1473271469242	1473271469381	o	79
99461	1085773	Ty needs to work on our model before we could start anything anyway.	Ty needs to work on our model before we could start anything anyway.	51645189	1473271469341	1473271469431	n	78
99461	1085773	Ty needs to work on our model before we could start anything anyway.	Ty needs to work on our model before we could start anything anyway.	51645194	1473271469378	1473271469511	 	32
99461	1085773	Ty needs to work on our model before we could start anything anyway.	Ty needs to work on our model before we could start anything anyway.	51645202	1473271469607	1473271469734	o	79
99461	1085773	Ty needs to work on our model before we could start anything anyway.	Ty needs to work on our model before we could start anything anyway.	51645205	1473271469669	1473271469810	u	85
99461	1085773	Ty needs to work on our model before we could start anything anyway.	Ty needs to work on our model before we could start anything anyway.	51645212	1473271469765	1473271469889	r	82
99461	1085773	Ty needs to work on our model before we could start anything anyway.	Ty needs to work on our model before we could start anything anyway.	51645216	1473271469848	1473271469979	 	32
99461	1085773	Ty needs to work on our model before we could start anything anyway.	Ty needs to work on our model before we could start anything anyway.	51645223	1473271469997	1473271470122	m	77
99461	1085773	Ty needs to work on our model before we could start anything anyway.	Ty needs to work on our model before we could start anything anyway.	51645269	1473271470105	1473271470233	o	79
99461	1085773	Ty needs to work on our model before we could start anything anyway.	Ty needs to work on our model before we could start anything anyway.	51645278	1473271470242	1473271470386	d	68
99461	1085773	Ty needs to work on our model before we could start anything anyway.	Ty needs to work on our model before we could start anything anyway.	51645282	1473271470320	1473271470434	e	69
99461	1085773	Ty needs to work on our model before we could start anything anyway.	Ty needs to work on our model before we could start anything anyway.	51645288	1473271470444	1473271470550	l	76
99461	1085773	Ty needs to work on our model before we could start anything anyway.	Ty needs to work on our model before we could start anything anyway.	51645294	1473271470526	1473271470612	 	32
99461	1085773	Ty needs to work on our model before we could start anything anyway.	Ty needs to work on our model before we could start anything anyway.	51645301	1473271470654	1473271470754	b	66
99461	1085773	Ty needs to work on our model before we could start anything anyway.	Ty needs to work on our model before we could start anything anyway.	51645326	1473271470847	1473271470942	e	69
99461	1085773	Ty needs to work on our model before we could start anything anyway.	Ty needs to work on our model before we could start anything anyway.	51645334	1473271471026	1473271471110	f	70
99461	1085773	Ty needs to work on our model before we could start anything anyway.	Ty needs to work on our model before we could start anything anyway.	51645343	1473271471127	1473271471269	o	79
99461	1085773	Ty needs to work on our model before we could start anything anyway.	Ty needs to work on our model before we could start anything anyway.	51645354	1473271471204	1473271471341	r	82
99461	1085773	Ty needs to work on our model before we could start anything anyway.	Ty needs to work on our model before we could start anything anyway.	51645402	1473271471301	1473271471377	 	69
99461	1085773	Ty needs to work on our model before we could start anything anyway.	Ty needs to work on our model before we could start anything anyway.	51645408	1473271471472	1473271471603	w	87
99461	1085773	Ty needs to work on our model before we could start anything anyway.	Ty needs to work on our model before we could start anything anyway.	51645415	1473271471547	1473271471651	e	69
99461	1085773	Ty needs to work on our model before we could start anything anyway.	Ty needs to work on our model before we could start anything anyway.	51645424	1473271471596	1473271471702	 	32
99461	1085773	Ty needs to work on our model before we could start anything anyway.	Ty needs to work on our model before we could start anything anyway.	51645435	1473271471750	1473271471853	c	67
99461	1085773	Ty needs to work on our model before we could start anything anyway.	Ty needs to work on our model before we could start anything anyway.	51645534	1473271471844	1473271471962	o	79
99461	1085773	Ty needs to work on our model before we could start anything anyway.	Ty needs to work on our model before we could start anything anyway.	51645536	1473271471905	1473271472043	u	85
99461	1085773	Ty needs to work on our model before we could start anything anyway.	Ty needs to work on our model before we could start anything anyway.	51645538	1473271472031	1473271472137	l	76
99461	1085773	Ty needs to work on our model before we could start anything anyway.	Ty needs to work on our model before we could start anything anyway.	51645541	1473271472135	1473271472242	s	83
99461	1085773	Ty needs to work on our model before we could start anything anyway.	Ty needs to work on our model before we could start anything anyway.	51645542	1473271472257	1473271472414	 	32
99461	1085773	Ty needs to work on our model before we could start anything anyway.	Ty needs to work on our model before we could start anything anyway.	51645544	1473271472760	1473271472842	BKSP	8
99461	1085773	Ty needs to work on our model before we could start anything anyway.	Ty needs to work on our model before we could start anything anyway.	51645547	1473271472896	1473271473016	BKSP	8
99461	1085773	Ty needs to work on our model before we could start anything anyway.	Ty needs to work on our model before we could start anything anyway.	51645575	1473271472994	1473271473077	d	68
99461	1085773	Ty needs to work on our model before we could start anything anyway.	Ty needs to work on our model before we could start anything anyway.	51645581	1473271473042	1473271473145	 	32
99461	1085773	Ty needs to work on our model before we could start anything anyway.	Ty needs to work on our model before we could start anything anyway.	51645584	1473271473214	1473271473335	s	83
99461	1085773	Ty needs to work on our model before we could start anything anyway.	Ty needs to work on our model before we could start anything anyway.	51645591	1473271473329	1473271473410	t	84
99461	1085773	Ty needs to work on our model before we could start anything anyway.	Ty needs to work on our model before we could start anything anyway.	51645600	1473271473414	1473271473556	a	65
99461	1085773	Ty needs to work on our model before we could start anything anyway.	Ty needs to work on our model before we could start anything anyway.	51645639	1473271473525	1473271473629	r	82
99461	1085773	Ty needs to work on our model before we could start anything anyway.	Ty needs to work on our model before we could start anything anyway.	51645642	1473271473705	1473271473800	t	84
99461	1085773	Ty needs to work on our model before we could start anything anyway.	Ty needs to work on our model before we could start anything anyway.	51645645	1473271473741	1473271473854	 	32
99461	1085773	Ty needs to work on our model before we could start anything anyway.	Ty needs to work on our model before we could start anything anyway.	51645648	1473271473873	1473271473984	a	65
99461	1085773	Ty needs to work on our model before we could start anything anyway.	Ty needs to work on our model before we could start anything anyway.	51645650	1473271473956	1473271474079	n	78
99461	1085773	Ty needs to work on our model before we could start anything anyway.	Ty needs to work on our model before we could start anything anyway.	51645655	1473271474105	1473271474213	y	89
99461	1085773	Ty needs to work on our model before we could start anything anyway.	Ty needs to work on our model before we could start anything anyway.	51645671	1473271474297	1473271474429	t	84
99461	1085773	Ty needs to work on our model before we could start anything anyway.	Ty needs to work on our model before we could start anything anyway.	51645680	1473271474359	1473271474481	h	72
99461	1085773	Ty needs to work on our model before we could start anything anyway.	Ty needs to work on our model before we could start anything anyway.	51645688	1473271474435	1473271474609	i	73
99461	1085773	Ty needs to work on our model before we could start anything anyway.	Ty needs to work on our model before we could start anything anyway.	51645699	1473271474542	1473271474680	n	78
99461	1085773	Ty needs to work on our model before we could start anything anyway.	Ty needs to work on our model before we could start anything anyway.	51645783	1473271474650	1473271474711	 	71
99461	1085773	Ty needs to work on our model before we could start anything anyway.	Ty needs to work on our model before we could start anything anyway.	51645789	1473271474786	1473271474927	a	65
99461	1085773	Ty needs to work on our model before we could start anything anyway.	Ty needs to work on our model before we could start anything anyway.	51645797	1473271474847	1473271474976	n	78
99461	1085773	Ty needs to work on our model before we could start anything anyway.	Ty needs to work on our model before we could start anything anyway.	51645807	1473271474994	1473271475072	y	89
99461	1085773	Ty needs to work on our model before we could start anything anyway.	Ty needs to work on our model before we could start anything anyway.	51645818	1473271475205	1473271475331	w	87
99461	1085773	Ty needs to work on our model before we could start anything anyway.	Ty needs to work on our model before we could start anything anyway.	51645831	1473271475845	1473271475973	a	65
99461	1085773	Ty needs to work on our model before we could start anything anyway.	Ty needs to work on our model before we could start anything anyway.	51645849	1473271475932	1473271476025	y	89
99461	1085788	I think this move will not overcome the problem.	I think this move will not overcome the problem.	51647119	1473271476295	1473271485660	.	190
99461	1085788	I think this move will not overcome the problem.	I think this move will not overcome the problem.	51646120	1473271479212	1473271479543	SHIFT	16
99461	1085788	I think this move will not overcome the problem.	I think this move will not overcome the problem.	51646125	1473271479476	1473271479582	I	73
99461	1085788	I think this move will not overcome the problem.	I think this move will not overcome the problem.	51646128	1473271479527	1473271479692	 	32
99461	1085788	I think this move will not overcome the problem.	I think this move will not overcome the problem.	51646131	1473271479638	1473271479759	t	84
99461	1085788	I think this move will not overcome the problem.	I think this move will not overcome the problem.	51646135	1473271479711	1473271479825	h	72
99461	1085788	I think this move will not overcome the problem.	I think this move will not overcome the problem.	51646231	1473271479811	1473271479972	i	73
99461	1085788	I think this move will not overcome the problem.	I think this move will not overcome the problem.	51646234	1473271479906	1473271480082	n	78
99461	1085788	I think this move will not overcome the problem.	I think this move will not overcome the problem.	51646240	1473271480047	1473271480149	 	32
99461	1085788	I think this move will not overcome the problem.	I think this move will not overcome the problem.	51646246	1473271480482	1473271480554	BKSP	8
99461	1085788	I think this move will not overcome the problem.	I think this move will not overcome the problem.	51646249	1473271480739	1473271480848	k	75
99461	1085788	I think this move will not overcome the problem.	I think this move will not overcome the problem.	51646255	1473271480861	1473271480998	 	32
99461	1085788	I think this move will not overcome the problem.	I think this move will not overcome the problem.	51646277	1473271480958	1473271481067	t	84
99461	1085788	I think this move will not overcome the problem.	I think this move will not overcome the problem.	51646286	1473271481032	1473271481186	h	72
99461	1085788	I think this move will not overcome the problem.	I think this move will not overcome the problem.	51646293	1473271481111	1473271481234	i	73
99461	1085788	I think this move will not overcome the problem.	I think this move will not overcome the problem.	51646305	1473271481184	1473271481291	s	83
99461	1085788	I think this move will not overcome the problem.	I think this move will not overcome the problem.	51646313	1473271481261	1473271481383	 	32
99461	1085788	I think this move will not overcome the problem.	I think this move will not overcome the problem.	51646343	1473271481363	1473271481474	m	77
99461	1085788	I think this move will not overcome the problem.	I think this move will not overcome the problem.	51646347	1473271481405	1473271481551	o	79
99461	1085788	I think this move will not overcome the problem.	I think this move will not overcome the problem.	51646351	1473271481573	1473271481677	v	86
99461	1085788	I think this move will not overcome the problem.	I think this move will not overcome the problem.	51646354	1473271481642	1473271481775	e	69
99461	1085788	I think this move will not overcome the problem.	I think this move will not overcome the problem.	51646356	1473271481725	1473271481844	 	32
99461	1085788	I think this move will not overcome the problem.	I think this move will not overcome the problem.	51646359	1473271481857	1473271481949	w	73
99461	1085788	I think this move will not overcome the problem.	I think this move will not overcome the problem.	51646374	1473271482067	1473271482148	l	76
99461	1085788	I think this move will not overcome the problem.	I think this move will not overcome the problem.	51646377	1473271482217	1473271482312	l	76
99461	1085788	I think this move will not overcome the problem.	I think this move will not overcome the problem.	51646382	1473271482326	1473271482437	 	32
99461	1085788	I think this move will not overcome the problem.	I think this move will not overcome the problem.	51646386	1473271482426	1473271482572	n	78
99461	1085788	I think this move will not overcome the problem.	I think this move will not overcome the problem.	51646465	1473271482483	1473271482622	o	79
99461	1085788	I think this move will not overcome the problem.	I think this move will not overcome the problem.	51646471	1473271482692	1473271482835	t	84
99461	1085788	I think this move will not overcome the problem.	I think this move will not overcome the problem.	51646476	1473271482797	1473271482901	 	32
99461	1085788	I think this move will not overcome the problem.	I think this move will not overcome the problem.	51646481	1473271483341	1473271483470	o	79
99461	1085788	I think this move will not overcome the problem.	I think this move will not overcome the problem.	51646484	1473271483436	1473271483603	v	86
99461	1085788	I think this move will not overcome the problem.	I think this move will not overcome the problem.	51646513	1473271483513	1473271483669	e	69
99461	1085788	I think this move will not overcome the problem.	I think this move will not overcome the problem.	51646517	1473271483570	1473271483708	r	82
99461	1085788	I think this move will not overcome the problem.	I think this move will not overcome the problem.	51646525	1473271483863	1473271483942	c	67
99461	1085788	I think this move will not overcome the problem.	I think this move will not overcome the problem.	51646532	1473271483947	1473271484097	o	79
99461	1085788	I think this move will not overcome the problem.	I think this move will not overcome the problem.	51646538	1473271484034	1473271484159	m	77
99461	1085788	I think this move will not overcome the problem.	I think this move will not overcome the problem.	51646545	1473271484132	1473271484208	e	69
99461	1085788	I think this move will not overcome the problem.	I think this move will not overcome the problem.	51646567	1473271484182	1473271484324	 	32
99461	1085788	I think this move will not overcome the problem.	I think this move will not overcome the problem.	51646577	1473271484289	1473271484396	t	84
99461	1085788	I think this move will not overcome the problem.	I think this move will not overcome the problem.	51646586	1473271484386	1473271484493	h	72
99461	1085788	I think this move will not overcome the problem.	I think this move will not overcome the problem.	51646594	1473271484462	1473271484561	e	69
99461	1085788	I think this move will not overcome the problem.	I think this move will not overcome the problem.	51646603	1473271484514	1473271484639	 	32
99461	1085788	I think this move will not overcome the problem.	I think this move will not overcome the problem.	51646615	1473271484603	1473271484713	p	80
99461	1085788	I think this move will not overcome the problem.	I think this move will not overcome the problem.	51646619	1473271484690	1473271484781	r	82
99461	1085788	I think this move will not overcome the problem.	I think this move will not overcome the problem.	51646626	1473271484804	1473271484903	o	79
99461	1085788	I think this move will not overcome the problem.	I think this move will not overcome the problem.	51646633	1473271484903	1473271484989	b	66
99461	1085788	I think this move will not overcome the problem.	I think this move will not overcome the problem.	51646641	1473271485018	1473271485113	l	76
99461	1085788	I think this move will not overcome the problem.	I think this move will not overcome the problem.	51647108	1473271485111	1473271485231	e	69
99461	1085788	I think this move will not overcome the problem.	I think this move will not overcome the problem.	51647114	1473271485231	1473271485332	m	77
99461	1085788	I think this move will not overcome the problem.	I think this move will not overcome the problem.	51647128	1473271486098	1473271487464	ARW_LEFT	37
99461	1085788	I think this move will not overcome the problem.	I think this move will not overcome the problem.	51647133	1473271487900	1473271487981	BKSP	8
99461	1085788	I think this move will not overcome the problem.	I think this move will not overcome the problem.	51647142	1473271488070	1473271488146	BKSP	8
99461	1085788	I think this move will not overcome the problem.	I think this move will not overcome the problem.	51647152	1473271488345	1473271488496	w	87
99461	1085788	I think this move will not overcome the problem.	I think this move will not overcome the problem.	51647162	1473271488608	1473271488719	i	73
99461	1085788	I think this move will not overcome the problem.	I think this move will not overcome the problem.	51647170	1473271488890	1473271488974	BKSP	8
99461	1085788	I think this move will not overcome the problem.	I think this move will not overcome the problem.	51647180	1473271489046	1473271489121	BKSP	8
99461	1085788	I think this move will not overcome the problem.	I think this move will not overcome the problem.	51647188	1473271489529	1473271489637	q	81
99461	1085788	I think this move will not overcome the problem.	I think this move will not overcome the problem.	51647195	1473271489722	1473271489837	BKSP	8
99461	1085788	I think this move will not overcome the problem.	I think this move will not overcome the problem.	51647200	1473271489924	1473271490056	w	87
99461	1085788	I think this move will not overcome the problem.	I think this move will not overcome the problem.	51647123	1473271490011	1473271490116	i	73
99461	1085817	Did we plan that?	Did we plan that?	51647403	1473271491955	1473271492124	SHIFT	16
99461	1085817	Did we plan that?	Did we plan that?	51647406	1473271492085	1473271492172	D	68
99461	1085817	Did we plan that?	Did we plan that?	51647411	1473271492216	1473271492341	i	73
99461	1085817	Did we plan that?	Did we plan that?	51647416	1473271492309	1473271492436	d	68
99461	1085817	Did we plan that?	Did we plan that?	51647420	1473271492406	1473271492554	 	32
99461	1085817	Did we plan that?	Did we plan that?	51647455	1473271492530	1473271492686	w	87
99461	1085817	Did we plan that?	Did we plan that?	51647457	1473271492624	1473271492733	e	69
99461	1085817	Did we plan that?	Did we plan that?	51647463	1473271492677	1473271492828	 	32
99461	1085817	Did we plan that?	Did we plan that?	51647470	1473271492904	1473271493043	p	80
99461	1085817	Did we plan that?	Did we plan that?	51647478	1473271492987	1473271493111	l	76
99461	1085817	Did we plan that?	Did we plan that?	51647501	1473271493084	1473271493197	a	65
99461	1085817	Did we plan that?	Did we plan that?	51647504	1473271493238	1473271493343	n	78
99461	1085817	Did we plan that?	Did we plan that?	51647507	1473271493320	1473271493444	 	32
99461	1085817	Did we plan that?	Did we plan that?	51647513	1473271493408	1473271493506	t	84
99461	1085817	Did we plan that?	Did we plan that?	51647525	1473271493469	1473271493573	h	72
99461	1085817	Did we plan that?	Did we plan that?	51647543	1473271493543	1473271493661	a	65
99461	1085817	Did we plan that?	Did we plan that?	51647548	1473271493620	1473271493726	t	84
99461	1085817	Did we plan that?	Did we plan that?	51647552	1473271493699	1473271493888	SHIFT	16
99461	1085832	Thomas has no real value as a Fantasy player.	Thomas has no real value as a Fantasy player.	51647719	1473271495515	1473271495788	SHIFT	16
99461	1085832	Thomas has no real value as a Fantasy player.	Thomas has no real value as a Fantasy player.	51647712	1473271495681	1473271495759	T	84
99461	1085832	Thomas has no real value as a Fantasy player.	Thomas has no real value as a Fantasy player.	51647730	1473271495859	1473271495952	h	72
99461	1085832	Thomas has no real value as a Fantasy player.	Thomas has no real value as a Fantasy player.	51647739	1473271495954	1473271496091	o	79
99461	1085832	Thomas has no real value as a Fantasy player.	Thomas has no real value as a Fantasy player.	51647746	1473271496041	1473271496170	m	77
99461	1085832	Thomas has no real value as a Fantasy player.	Thomas has no real value as a Fantasy player.	51647796	1473271496137	1473271496261	a	65
99461	1085832	Thomas has no real value as a Fantasy player.	Thomas has no real value as a Fantasy player.	51647802	1473271496461	1473271496590	s	83
99461	1085832	Thomas has no real value as a Fantasy player.	Thomas has no real value as a Fantasy player.	51647809	1473271496605	1473271496731	 	32
99461	1085832	Thomas has no real value as a Fantasy player.	Thomas has no real value as a Fantasy player.	51647819	1473271496964	1473271497092	h	72
99461	1085832	Thomas has no real value as a Fantasy player.	Thomas has no real value as a Fantasy player.	51647830	1473271497037	1473271497186	a	65
99461	1085832	Thomas has no real value as a Fantasy player.	Thomas has no real value as a Fantasy player.	51647863	1473271497135	1473271497225	s	83
99461	1085832	Thomas has no real value as a Fantasy player.	Thomas has no real value as a Fantasy player.	51647874	1473271497196	1473271497313	 	32
99461	1085832	Thomas has no real value as a Fantasy player.	Thomas has no real value as a Fantasy player.	51647881	1473271497318	1473271497456	n	78
99461	1085832	Thomas has no real value as a Fantasy player.	Thomas has no real value as a Fantasy player.	51647888	1473271497373	1473271497493	o	79
99461	1085832	Thomas has no real value as a Fantasy player.	Thomas has no real value as a Fantasy player.	51647897	1473271497445	1473271497561	 	32
99461	1085832	Thomas has no real value as a Fantasy player.	Thomas has no real value as a Fantasy player.	51647902	1473271497637	1473271497756	r	82
99461	1085832	Thomas has no real value as a Fantasy player.	Thomas has no real value as a Fantasy player.	51647917	1473271497697	1473271497838	e	69
99461	1085832	Thomas has no real value as a Fantasy player.	Thomas has no real value as a Fantasy player.	51647922	1473271497803	1473271497923	a	65
99461	1085832	Thomas has no real value as a Fantasy player.	Thomas has no real value as a Fantasy player.	51647927	1473271497960	1473271498072	l	76
99461	1085832	Thomas has no real value as a Fantasy player.	Thomas has no real value as a Fantasy player.	51647937	1473271498047	1473271498157	 	32
99461	1085832	Thomas has no real value as a Fantasy player.	Thomas has no real value as a Fantasy player.	51647945	1473271498214	1473271498354	v	86
99461	1085832	Thomas has no real value as a Fantasy player.	Thomas has no real value as a Fantasy player.	51647978	1473271498312	1473271498442	a	65
99461	1085832	Thomas has no real value as a Fantasy player.	Thomas has no real value as a Fantasy player.	51647983	1473271498429	1473271498502	l	76
99461	1085832	Thomas has no real value as a Fantasy player.	Thomas has no real value as a Fantasy player.	51647988	1473271498601	1473271498718	u	85
99461	1085832	Thomas has no real value as a Fantasy player.	Thomas has no real value as a Fantasy player.	51647995	1473271498696	1473271498805	e	69
99461	1085832	Thomas has no real value as a Fantasy player.	Thomas has no real value as a Fantasy player.	51648004	1473271498763	1473271498884	 	32
99461	1085832	Thomas has no real value as a Fantasy player.	Thomas has no real value as a Fantasy player.	51648051	1473271498855	1473271499029	a	65
99461	1085832	Thomas has no real value as a Fantasy player.	Thomas has no real value as a Fantasy player.	51648057	1473271499016	1473271499128	s	83
99461	1085832	Thomas has no real value as a Fantasy player.	Thomas has no real value as a Fantasy player.	51648067	1473271499057	1473271499160	 	32
99461	1085832	Thomas has no real value as a Fantasy player.	Thomas has no real value as a Fantasy player.	51648077	1473271499157	1473271499287	a	65
99461	1085832	Thomas has no real value as a Fantasy player.	Thomas has no real value as a Fantasy player.	51648082	1473271499251	1473271499388	 	32
99461	1085832	Thomas has no real value as a Fantasy player.	Thomas has no real value as a Fantasy player.	51648094	1473271499396	1473271499552	SHIFT	16
99461	1085832	Thomas has no real value as a Fantasy player.	Thomas has no real value as a Fantasy player.	51648121	1473271499471	1473271499570	F	70
99461	1085832	Thomas has no real value as a Fantasy player.	Thomas has no real value as a Fantasy player.	51648124	1473271499556	1473271499667	a	65
99461	1085832	Thomas has no real value as a Fantasy player.	Thomas has no real value as a Fantasy player.	51648129	1473271499685	1473271499840	n	78
99461	1085832	Thomas has no real value as a Fantasy player.	Thomas has no real value as a Fantasy player.	51648135	1473271499767	1473271499868	t	84
99461	1085832	Thomas has no real value as a Fantasy player.	Thomas has no real value as a Fantasy player.	51648140	1473271499918	1473271500109	a	65
99461	1085832	Thomas has no real value as a Fantasy player.	Thomas has no real value as a Fantasy player.	51648285	1473271500094	1473271500200	s	83
99461	1085832	Thomas has no real value as a Fantasy player.	Thomas has no real value as a Fantasy player.	51648304	1473271500317	1473271500408	y	89
99461	1085832	Thomas has no real value as a Fantasy player.	Thomas has no real value as a Fantasy player.	51648294	1473271500353	1473271500395	t	84
99461	1085832	Thomas has no real value as a Fantasy player.	Thomas has no real value as a Fantasy player.	51648314	1473271500486	1473271500591	 	32
99461	1085832	Thomas has no real value as a Fantasy player.	Thomas has no real value as a Fantasy player.	51648319	1473271500828	1473271500899	BKSP	8
99461	1085832	Thomas has no real value as a Fantasy player.	Thomas has no real value as a Fantasy player.	51648326	1473271500992	1473271501070	BKSP	8
99461	1085832	Thomas has no real value as a Fantasy player.	Thomas has no real value as a Fantasy player.	51648330	1473271501157	1473271501287	 	32
99461	1085832	Thomas has no real value as a Fantasy player.	Thomas has no real value as a Fantasy player.	51648335	1473271501306	1473271501460	SHIFT	16
99461	1085832	Thomas has no real value as a Fantasy player.	Thomas has no real value as a Fantasy player.	51648339	1473271501599	1473271501761	p	80
99461	1085832	Thomas has no real value as a Fantasy player.	Thomas has no real value as a Fantasy player.	51648364	1473271501669	1473271501835	l	76
99461	1085832	Thomas has no real value as a Fantasy player.	Thomas has no real value as a Fantasy player.	51648371	1473271501766	1473271501912	a	65
99461	1085832	Thomas has no real value as a Fantasy player.	Thomas has no real value as a Fantasy player.	51648381	1473271501872	1473271501957	y	89
99461	1085832	Thomas has no real value as a Fantasy player.	Thomas has no real value as a Fantasy player.	51648391	1473271502072	1473271502188	e	69
99461	1085832	Thomas has no real value as a Fantasy player.	Thomas has no real value as a Fantasy player.	51648400	1473271502129	1473271502278	r	82
99461	1085847	Please call tomorrow if possible.	Please call tomorrow if possible.	51648644	1473271504561	1473271504943	SHIFT	16
99461	1085847	Please call tomorrow if possible.	Please call tomorrow if possible.	51648649	1473271504865	1473271504978	P	80
99461	1085847	Please call tomorrow if possible.	Please call tomorrow if possible.	51648654	1473271505032	1473271505158	l	76
99461	1085847	Please call tomorrow if possible.	Please call tomorrow if possible.	51648658	1473271505106	1473271505218	e	69
99461	1085847	Please call tomorrow if possible.	Please call tomorrow if possible.	51648668	1473271505241	1473271505464	a	65
99461	1085847	Please call tomorrow if possible.	Please call tomorrow if possible.	51648688	1473271505462	1473271505605	s	83
99461	1085847	Please call tomorrow if possible.	Please call tomorrow if possible.	51648689	1473271505516	1473271505659	e	69
99461	1085847	Please call tomorrow if possible.	Please call tomorrow if possible.	51648692	1473271505615	1473271505743	 	32
99461	1085847	Please call tomorrow if possible.	Please call tomorrow if possible.	51648697	1473271505763	1473271505882	c	67
99461	1085847	Please call tomorrow if possible.	Please call tomorrow if possible.	51648702	1473271505828	1473271505952	a	65
99461	1085847	Please call tomorrow if possible.	Please call tomorrow if possible.	51648749	1473271505947	1473271506029	l	76
99461	1085847	Please call tomorrow if possible.	Please call tomorrow if possible.	51648751	1473271506107	1473271506207	l	76
99461	1085847	Please call tomorrow if possible.	Please call tomorrow if possible.	51648756	1473271506163	1473271506329	 	32
99461	1085847	Please call tomorrow if possible.	Please call tomorrow if possible.	51648761	1473271506295	1473271506414	t	84
99461	1085847	Please call tomorrow if possible.	Please call tomorrow if possible.	51648767	1473271506381	1473271506485	o	79
99461	1085847	Please call tomorrow if possible.	Please call tomorrow if possible.	51648815	1473271506472	1473271506625	m	77
99461	1085847	Please call tomorrow if possible.	Please call tomorrow if possible.	51648823	1473271506558	1473271506692	o	79
99461	1085847	Please call tomorrow if possible.	Please call tomorrow if possible.	51648831	1473271506661	1473271506735	r	82
99461	1085847	Please call tomorrow if possible.	Please call tomorrow if possible.	51648839	1473271506817	1473271506923	r	82
99461	1085847	Please call tomorrow if possible.	Please call tomorrow if possible.	51648844	1473271506946	1473271507070	o	79
99461	1085847	Please call tomorrow if possible.	Please call tomorrow if possible.	51648893	1473271507044	1473271507144	w	87
99461	1085847	Please call tomorrow if possible.	Please call tomorrow if possible.	51648898	1473271507255	1473271507388	 	32
99461	1085847	Please call tomorrow if possible.	Please call tomorrow if possible.	51648904	1473271507384	1473271507510	i	73
99461	1085847	Please call tomorrow if possible.	Please call tomorrow if possible.	51648911	1473271507458	1473271507576	f	70
99461	1085847	Please call tomorrow if possible.	Please call tomorrow if possible.	51648916	1473271507529	1473271507659	 	32
99461	1085847	Please call tomorrow if possible.	Please call tomorrow if possible.	51648920	1473271507713	1473271507767	p	80
99461	1085847	Please call tomorrow if possible.	Please call tomorrow if possible.	51649051	1473271508036	1473271508121	BKSP	8
99461	1085847	Please call tomorrow if possible.	Please call tomorrow if possible.	51649057	1473271508467	1473271508597	p	80
99461	1085847	Please call tomorrow if possible.	Please call tomorrow if possible.	51649060	1473271508494	1473271508648	o	79
99461	1085847	Please call tomorrow if possible.	Please call tomorrow if possible.	51649063	1473271508709	1473271508833	s	83
99461	1085847	Please call tomorrow if possible.	Please call tomorrow if possible.	51649069	1473271508890	1473271509010	s	83
99461	1085847	Please call tomorrow if possible.	Please call tomorrow if possible.	51649077	1473271509032	1473271509127	i	73
99461	1085847	Please call tomorrow if possible.	Please call tomorrow if possible.	51649096	1473271509152	1473271509237	b	66
99461	1085847	Please call tomorrow if possible.	Please call tomorrow if possible.	51649099	1473271509271	1473271509376	l	76
99461	1085847	Please call tomorrow if possible.	Please call tomorrow if possible.	51649102	1473271509370	1473271509512	e	69
99461	1085863	What do you think about Tracy and Jim?	What do you think about Tracy and Jim?	51649351	1473271511377	1473271511585	SHIFT	16
99461	1085863	What do you think about Tracy and Jim?	What do you think about Tracy and Jim?	51649354	1473271511508	1473271511626	W	87
99461	1085863	What do you think about Tracy and Jim?	What do you think about Tracy and Jim?	51649357	1473271511685	1473271511808	h	72
99461	1085863	What do you think about Tracy and Jim?	What do you think about Tracy and Jim?	51649359	1473271511718	1473271511825	a	65
99461	1085863	What do you think about Tracy and Jim?	What do you think about Tracy and Jim?	51649360	1473271511791	1473271511906	t	84
99461	1085863	What do you think about Tracy and Jim?	What do you think about Tracy and Jim?	51649366	1473271511837	1473271511951	 	32
99461	1085863	What do you think about Tracy and Jim?	What do you think about Tracy and Jim?	51649371	1473271512001	1473271512093	d	68
99461	1085863	What do you think about Tracy and Jim?	What do you think about Tracy and Jim?	51649373	1473271512095	1473271512182	o	79
99461	1085863	What do you think about Tracy and Jim?	What do you think about Tracy and Jim?	51649378	1473271512137	1473271512272	 	32
99461	1085863	What do you think about Tracy and Jim?	What do you think about Tracy and Jim?	51649384	1473271512243	1473271512342	y	89
99461	1085863	What do you think about Tracy and Jim?	What do you think about Tracy and Jim?	51649413	1473271512294	1473271512424	o	79
99461	1085863	What do you think about Tracy and Jim?	What do you think about Tracy and Jim?	51649417	1473271512365	1473271512478	u	85
99461	1085863	What do you think about Tracy and Jim?	What do you think about Tracy and Jim?	51649423	1473271512397	1473271512548	 	32
99461	1085863	What do you think about Tracy and Jim?	What do you think about Tracy and Jim?	51649430	1473271512508	1473271512647	t	84
99461	1085863	What do you think about Tracy and Jim?	What do you think about Tracy and Jim?	51649435	1473271512610	1473271512771	h	72
99461	1085863	What do you think about Tracy and Jim?	What do you think about Tracy and Jim?	51649462	1473271512687	1473271512801	i	73
99461	1085863	What do you think about Tracy and Jim?	What do you think about Tracy and Jim?	51649468	1473271512776	1473271512951	n	78
99461	1085863	What do you think about Tracy and Jim?	What do you think about Tracy and Jim?	51649473	1473271512883	1473271512996	k	75
99461	1085863	What do you think about Tracy and Jim?	What do you think about Tracy and Jim?	51649477	1473271513004	1473271513119	 	32
99461	1085863	What do you think about Tracy and Jim?	What do you think about Tracy and Jim?	51649481	1473271513141	1473271513276	a	65
99461	1085863	What do you think about Tracy and Jim?	What do you think about Tracy and Jim?	51649495	1473271513238	1473271513327	b	66
99461	1085863	What do you think about Tracy and Jim?	What do you think about Tracy and Jim?	51649501	1473271513304	1473271513415	o	79
99461	1085863	What do you think about Tracy and Jim?	What do you think about Tracy and Jim?	51649510	1473271513346	1473271513487	u	85
99461	1085863	What do you think about Tracy and Jim?	What do you think about Tracy and Jim?	51649522	1473271513443	1473271513556	t	84
99461	1085863	What do you think about Tracy and Jim?	What do you think about Tracy and Jim?	51649537	1473271513491	1473271513622	 	32
99461	1085863	What do you think about Tracy and Jim?	What do you think about Tracy and Jim?	51649545	1473271513610	1473271513734	SHIFT	16
99461	1085863	What do you think about Tracy and Jim?	What do you think about Tracy and Jim?	51649571	1473271513662	1473271513754	T	84
99461	1085863	What do you think about Tracy and Jim?	What do you think about Tracy and Jim?	51649574	1473271513826	1473271513918	r	82
99461	1085863	What do you think about Tracy and Jim?	What do you think about Tracy and Jim?	51649578	1473271513917	1473271514046	a	65
99461	1085863	What do you think about Tracy and Jim?	What do you think about Tracy and Jim?	51649583	1473271514064	1473271514155	c	67
99461	1085863	What do you think about Tracy and Jim?	What do you think about Tracy and Jim?	51649589	1473271514277	1473271514384	y	89
99461	1085863	What do you think about Tracy and Jim?	What do you think about Tracy and Jim?	51649642	1473271514339	1473271514448	 	32
99461	1085863	What do you think about Tracy and Jim?	What do you think about Tracy and Jim?	51649646	1473271514487	1473271514611	a	65
99461	1085863	What do you think about Tracy and Jim?	What do you think about Tracy and Jim?	51649649	1473271514561	1473271514670	n	78
99461	1085863	What do you think about Tracy and Jim?	What do you think about Tracy and Jim?	51649653	1473271514699	1473271514815	d	68
99461	1085863	What do you think about Tracy and Jim?	What do you think about Tracy and Jim?	51649661	1473271514756	1473271514870	 	32
99461	1085863	What do you think about Tracy and Jim?	What do you think about Tracy and Jim?	51649944	1473271514953	1473271515105	SHIFT	16
99461	1085863	What do you think about Tracy and Jim?	What do you think about Tracy and Jim?	51649664	1473271515017	1473271515086	H	72
99461	1085863	What do you think about Tracy and Jim?	What do you think about Tracy and Jim?	51649952	1473271515240	1473271515303	i	73
99461	1085863	What do you think about Tracy and Jim?	What do you think about Tracy and Jim?	51649959	1473271515558	1473271515637	BKSP	8
99461	1085863	What do you think about Tracy and Jim?	What do you think about Tracy and Jim?	51649966	1473271515712	1473271515783	BKSP	8
99461	1085863	What do you think about Tracy and Jim?	What do you think about Tracy and Jim?	51649982	1473271515893	1473271516111	SHIFT	16
99461	1085863	What do you think about Tracy and Jim?	What do you think about Tracy and Jim?	51649974	1473271516004	1473271516108	J	74
99461	1085863	What do you think about Tracy and Jim?	What do you think about Tracy and Jim?	51649991	1473271516136	1473271516215	i	73
99461	1085863	What do you think about Tracy and Jim?	What do you think about Tracy and Jim?	51649998	1473271516331	1473271516490	m	77
99461	1085863	What do you think about Tracy and Jim?	What do you think about Tracy and Jim?	51650002	1473271516988	1473271517146	SHIFT	16
99461	1085881	It's just very confusing at first.	It's just very confusing at first.	51650217	1473271519425	1473271519642	SHIFT	16
99461	1085881	It's just very confusing at first.	It's just very confusing at first.	51650226	1473271519578	1473271519718	I	73
99461	1085881	It's just very confusing at first.	It's just very confusing at first.	51650234	1473271519697	1473271519791	t	84
99461	1085881	It's just very confusing at first.	It's just very confusing at first.	51650241	1473271519785	1473271519882	'	222
99461	1085881	It's just very confusing at first.	It's just very confusing at first.	51650248	1473271519902	1473271520002	s	83
99461	1085881	It's just very confusing at first.	It's just very confusing at first.	51650283	1473271519947	1473271520097	 	32
99461	1085881	It's just very confusing at first.	It's just very confusing at first.	51650290	1473271520096	1473271520186	j	74
99461	1085881	It's just very confusing at first.	It's just very confusing at first.	51650298	1473271520266	1473271520373	u	85
99461	1085881	It's just very confusing at first.	It's just very confusing at first.	51650306	1473271520334	1473271520453	s	83
99461	1085881	It's just very confusing at first.	It's just very confusing at first.	51650345	1473271520417	1473271520459	 	84
99461	1085881	It's just very confusing at first.	It's just very confusing at first.	51650357	1473271520598	1473271520730	v	86
99461	1085881	It's just very confusing at first.	It's just very confusing at first.	51650365	1473271520678	1473271520790	e	69
99461	1085881	It's just very confusing at first.	It's just very confusing at first.	51650378	1473271520735	1473271520868	r	82
99461	1085881	It's just very confusing at first.	It's just very confusing at first.	51650385	1473271520914	1473271521001	y	89
99461	1085881	It's just very confusing at first.	It's just very confusing at first.	51650426	1473271520975	1473271521062	 	32
99461	1085881	It's just very confusing at first.	It's just very confusing at first.	51650432	1473271521146	1473271521229	c	67
99461	1085881	It's just very confusing at first.	It's just very confusing at first.	51650443	1473271521211	1473271521355	o	79
99461	1085881	It's just very confusing at first.	It's just very confusing at first.	51650453	1473271521313	1473271521443	n	78
99461	1085881	It's just very confusing at first.	It's just very confusing at first.	51650462	1473271521416	1473271521536	f	70
99461	1085881	It's just very confusing at first.	It's just very confusing at first.	51650470	1473271521552	1473271521644	u	85
99461	1085881	It's just very confusing at first.	It's just very confusing at first.	51650501	1473271521689	1473271521782	s	83
99461	1085881	It's just very confusing at first.	It's just very confusing at first.	51650507	1473271521791	1473271521914	i	73
99461	1085881	It's just very confusing at first.	It's just very confusing at first.	51650515	1473271521851	1473271522021	n	78
99461	1085881	It's just very confusing at first.	It's just very confusing at first.	51650529	1473271521984	1473271522107	 	32
99461	1085881	It's just very confusing at first.	It's just very confusing at first.	51650538	1473271522124	1473271522298	a	65
99461	1085881	It's just very confusing at first.	It's just very confusing at first.	51650621	1473271522333	1473271522474	t	84
99461	1085881	It's just very confusing at first.	It's just very confusing at first.	51650631	1473271522557	1473271522642	BKSP	8
99461	1085881	It's just very confusing at first.	It's just very confusing at first.	51650641	1473271522721	1473271522801	BKSP	8
99461	1085881	It's just very confusing at first.	It's just very confusing at first.	51650653	1473271522886	1473271523028	BKSP	8
99461	1085881	It's just very confusing at first.	It's just very confusing at first.	51650661	1473271523001	1473271523106	g	71
99461	1085881	It's just very confusing at first.	It's just very confusing at first.	51650664	1473271523071	1473271523147	 	32
99461	1085881	It's just very confusing at first.	It's just very confusing at first.	51650669	1473271523179	1473271523331	a	65
99461	1085881	It's just very confusing at first.	It's just very confusing at first.	51650718	1473271523263	1473271523397	t	84
99461	1085881	It's just very confusing at first.	It's just very confusing at first.	51650723	1473271523335	1473271523474	 	32
99461	1085881	It's just very confusing at first.	It's just very confusing at first.	51650729	1473271523679	1473271523780	f	70
99461	1085881	It's just very confusing at first.	It's just very confusing at first.	51650735	1473271523793	1473271523927	i	73
99461	1085881	It's just very confusing at first.	It's just very confusing at first.	51650742	1473271523896	1473271524002	r	82
99461	1085881	It's just very confusing at first.	It's just very confusing at first.	51650748	1473271524030	1473271524176	s	83
99461	1085881	It's just very confusing at first.	It's just very confusing at first.	51650732	1473271524102	1473271524205	t	84
99461	1085897	We have been consistent and we have a good balance.	We have been consistent and we have a good balance	51650960	1473271525867	1473271526029	SHIFT	16
99461	1085897	We have been consistent and we have a good balance.	We have been consistent and we have a good balance	51650966	1473271525958	1473271526093	W	87
99461	1085897	We have been consistent and we have a good balance.	We have been consistent and we have a good balance	51650974	1473271526034	1473271526137	e	69
99461	1085897	We have been consistent and we have a good balance.	We have been consistent and we have a good balance	51650984	1473271526096	1473271526221	 	32
99461	1085897	We have been consistent and we have a good balance.	We have been consistent and we have a good balance	51650997	1473271526269	1473271526384	a	72
99461	1085897	We have been consistent and we have a good balance.	We have been consistent and we have a good balance	51651060	1473271526347	1473271526454	v	86
99461	1085897	We have been consistent and we have a good balance.	We have been consistent and we have a good balance	51651064	1473271526382	1473271526503	e	69
99461	1085897	We have been consistent and we have a good balance.	We have been consistent and we have a good balance	51651069	1473271526450	1473271526564	 	32
99461	1085897	We have been consistent and we have a good balance.	We have been consistent and we have a good balance	51651074	1473271526608	1473271526707	b	66
99461	1085897	We have been consistent and we have a good balance.	We have been consistent and we have a good balance	51651080	1473271526717	1473271526808	e	69
99461	1085897	We have been consistent and we have a good balance.	We have been consistent and we have a good balance	51651085	1473271526876	1473271526964	e	69
99461	1085897	We have been consistent and we have a good balance.	We have been consistent and we have a good balance	51651093	1473271526988	1473271527098	n	78
99461	1085897	We have been consistent and we have a good balance.	We have been consistent and we have a good balance	51651117	1473271527048	1473271527137	 	32
99461	1085897	We have been consistent and we have a good balance.	We have been consistent and we have a good balance	51651122	1473271527189	1473271527282	c	67
99461	1085897	We have been consistent and we have a good balance.	We have been consistent and we have a good balance	51651126	1473271527258	1473271527383	o	79
99461	1085897	We have been consistent and we have a good balance.	We have been consistent and we have a good balance	51651131	1473271527328	1473271527448	n	78
99461	1085897	We have been consistent and we have a good balance.	We have been consistent and we have a good balance	51651136	1473271527425	1473271527520	s	83
99461	1085897	We have been consistent and we have a good balance.	We have been consistent and we have a good balance	51651142	1473271527533	1473271527664	i	73
99461	1085897	We have been consistent and we have a good balance.	We have been consistent and we have a good balance	51651206	1473271527632	1473271527763	s	83
99461	1085897	We have been consistent and we have a good balance.	We have been consistent and we have a good balance	51651215	1473271527795	1473271527935	t	84
99461	1085897	We have been consistent and we have a good balance.	We have been consistent and we have a good balance	51651226	1473271527937	1473271527979	s	83
99461	1085897	We have been consistent and we have a good balance.	We have been consistent and we have a good balance	51651232	1473271528246	1473271528314	BKSP	8
99461	1085897	We have been consistent and we have a good balance.	We have been consistent and we have a good balance	51651241	1473271528331	1473271528442	e	69
99461	1085897	We have been consistent and we have a good balance.	We have been consistent and we have a good balance	51651249	1473271528453	1473271528602	n	78
99461	1085897	We have been consistent and we have a good balance.	We have been consistent and we have a good balance	51651309	1473271528534	1473271528656	t	84
99461	1085897	We have been consistent and we have a good balance.	We have been consistent and we have a good balance	51651315	1473271528589	1473271528713	 	32
99461	1085897	We have been consistent and we have a good balance.	We have been consistent and we have a good balance	51651322	1473271528889	1473271529016	a	65
99461	1085897	We have been consistent and we have a good balance.	We have been consistent and we have a good balance	51651329	1473271529007	1473271529148	n	78
99461	1085897	We have been consistent and we have a good balance.	We have been consistent and we have a good balance	51651335	1473271529075	1473271529184	d	68
99461	1085897	We have been consistent and we have a good balance.	We have been consistent and we have a good balance	51651343	1473271529164	1473271529270	 	32
99461	1085897	We have been consistent and we have a good balance.	We have been consistent and we have a good balance	51651351	1473271529286	1473271529397	w	87
99461	1085897	We have been consistent and we have a good balance.	We have been consistent and we have a good balance	51651420	1473271529442	1473271529513	w	87
99461	1085897	We have been consistent and we have a good balance.	We have been consistent and we have a good balance	51651425	1473271529599	1473271529725	e	69
99461	1085897	We have been consistent and we have a good balance.	We have been consistent and we have a good balance	51651428	1473271530062	1473271530143	BKSP	8
99461	1085897	We have been consistent and we have a good balance.	We have been consistent and we have a good balance	51651433	1473271530226	1473271530314	BKSP	8
99461	1085897	We have been consistent and we have a good balance.	We have been consistent and we have a good balance	51651437	1473271530314	1473271530425	e	69
99461	1085897	We have been consistent and we have a good balance.	We have been consistent and we have a good balance	51651443	1473271530371	1473271530499	 	32
99461	1085897	We have been consistent and we have a good balance.	We have been consistent and we have a good balance	51651447	1473271530511	1473271530661	h	72
99461	1085897	We have been consistent and we have a good balance.	We have been consistent and we have a good balance	51651483	1473271530588	1473271530725	a	65
99461	1085897	We have been consistent and we have a good balance.	We have been consistent and we have a good balance	51651488	1473271530639	1473271530768	v	86
99461	1085897	We have been consistent and we have a good balance.	We have been consistent and we have a good balance	51651495	1473271530702	1473271530807	e	69
99461	1085897	We have been consistent and we have a good balance.	We have been consistent and we have a good balance	51651506	1473271530776	1473271530894	 	32
99461	1085897	We have been consistent and we have a good balance.	We have been consistent and we have a good balance	51651522	1473271530868	1473271530993	a	65
99461	1085897	We have been consistent and we have a good balance.	We have been consistent and we have a good balance	51651529	1473271530971	1473271531055	 	32
99461	1085897	We have been consistent and we have a good balance.	We have been consistent and we have a good balance	51651540	1473271531204	1473271531290	o	79
99461	1085897	We have been consistent and we have a good balance.	We have been consistent and we have a good balance	51651591	1473271531368	1473271531514	o	79
99461	1085897	We have been consistent and we have a good balance.	We have been consistent and we have a good balance	51651598	1473271531454	1473271531564	d	68
99461	1085897	We have been consistent and we have a good balance.	We have been consistent and we have a good balance	51651602	1473271531534	1473271531648	 	32
99461	1085897	We have been consistent and we have a good balance.	We have been consistent and we have a good balance	51651608	1473271531889	1473271531980	b	66
99461	1085897	We have been consistent and we have a good balance.	We have been consistent and we have a good balance	51651612	1473271532012	1473271532088	a	65
99461	1085897	We have been consistent and we have a good balance.	We have been consistent and we have a good balance	51651834	1473271532312	1473271532984	BKSP	8
99461	1085897	We have been consistent and we have a good balance.	We have been consistent and we have a good balance	51651842	1473271533443	1473271533545	 	32
99461	1085897	We have been consistent and we have a good balance.	We have been consistent and we have a good balance	51651848	1473271533665	1473271533746	g	71
99461	1085897	We have been consistent and we have a good balance.	We have been consistent and we have a good balance	51651853	1473271533763	1473271533859	o	79
99461	1085897	We have been consistent and we have a good balance.	We have been consistent and we have a good balance	51651857	1473271533909	1473271534067	o	79
99461	1085897	We have been consistent and we have a good balance.	We have been consistent and we have a good balance	51651895	1473271534014	1473271534096	d	68
99461	1085897	We have been consistent and we have a good balance.	We have been consistent and we have a good balance	51651900	1473271534065	1473271534160	 	32
99461	1085897	We have been consistent and we have a good balance.	We have been consistent and we have a good balance	51651906	1473271534209	1473271534284	b	66
99461	1085897	We have been consistent and we have a good balance.	We have been consistent and we have a good balance	51651915	1473271534293	1473271534399	a	65
99461	1085897	We have been consistent and we have a good balance.	We have been consistent and we have a good balance	51651923	1473271534388	1473271534502	l	76
99461	1085897	We have been consistent and we have a good balance.	We have been consistent and we have a good balance	51651931	1473271534502	1473271534612	a	65
99461	1085897	We have been consistent and we have a good balance.	We have been consistent and we have a good balance	51651937	1473271534641	1473271534757	n	78
99461	1085897	We have been consistent and we have a good balance.	We have been consistent and we have a good balance	51651919	1473271534738	1473271534864	c	67
